L251 LINKER/LOCATER V4.66.93.0                                                          01/16/2025  23:25:20  PAGE 1


L251 LINKER/LOCATER V4.66.93.0, INVOKED BY:
D:\KEIL_V5\C251\BIN\L251.EXE .\out_file\ai8051u_isr.obj, .\out_file\zf_common_clock.obj, .\out_file\zf_common_debug.obj,
>>  .\out_file\zf_common_fifo.obj, .\out_file\zf_common_font.obj, .\out_file\zf_common_function.obj, .\out_file\zf_commo
>> n_typedef.obj, .\out_file\zf_common_interrupt.obj, .\out_file\zf_driver_adc.obj, .\out_file\zf_driver_delay.obj, .\ou
>> t_file\zf_driver_eeprom.obj, .\out_file\zf_driver_encoder.obj, .\out_file\zf_driver_exti.obj, .\out_file\zf_driver_gp
>> io.obj, .\out_file\zf_driver_pit.obj, .\out_file\zf_driver_pwm.obj, .\out_file\zf_driver_soft_iic.obj, .\out_file\zf_
>> driver_spi.obj, .\out_file\zf_driver_timer.obj, .\out_file\zf_driver_uart.obj, .\out_file\zf_device_config.obj, .\out
>> _file\zf_device_type.obj, .\out_file\zf_device_tft180.obj, .\out_file\zf_device_ips114.obj, .\out_file\zf_device_ips2
>> 00.obj, .\out_file\zf_device_dl1a.obj, .\out_file\zf_device_ble6a20.obj, .\out_file\zf_device_wireless_uart.obj, .\ou
>> t_file\zf_device_mpu6050.obj, .\out_file\zf_device_icm20602.obj, .\out_file\zf_device_imu660ra.obj, .\out_file\zf_dev
>> ice_imu963ra.obj, .\out_file\zf_device_gps_tau1201.obj, .\out_file\zf_device_tsl1401.obj, .\out_file\seekfree_assista
>> nt.obj, .\out_file\seekfree_assistant_interface.obj, .\out_file\isr.obj, .\out_file\main.obj, .\out_file\sys.obj, .\o
>> ut_file\uart.obj, .\out_file\motor.obj, .\out_file\rocker.obj TO .\out_file\SEEKFREE PRINT (.\out_file\SEEKFREE.map) 
>> CASE DISABLEWARNING (57, 16) REMOVEUNUSED CLASSES (EDATA (0X0-0X7FF), HDATA (0X0-0X7FF))


CPU MODE:     251 SOURCE MODE
INTR FRAME:   4 BYTES SAVED ON INTERRUPT
MEMORY MODEL: LARGE WITH DOUBLE PRECISION FLOATING POINT ARITHMETIC


INPUT MODULES INCLUDED:
  .\out_file\ai8051u_isr.obj (ai8051u_isr)
         COMMENT TYPE 0: A251 V4.69.13.0
  .\out_file\zf_common_clock.obj (zf_common_clock)
         COMMENT TYPE 0: C251 V5.60.0
  .\out_file\zf_common_debug.obj (zf_common_debug)
         COMMENT TYPE 0: C251 V5.60.0
  .\out_file\zf_common_fifo.obj (zf_common_fifo)
         COMMENT TYPE 0: C251 V5.60.0
  .\out_file\zf_common_font.obj (zf_common_font)
         COMMENT TYPE 0: C251 V5.60.0
  .\out_file\zf_common_function.obj (zf_common_function)
         COMMENT TYPE 0: C251 V5.60.0
  .\out_file\zf_common_typedef.obj (zf_common_typedef)
         COMMENT TYPE 0: C251 V5.60.0
  .\out_file\zf_common_interrupt.obj (zf_common_interrupt)
         COMMENT TYPE 0: C251 V5.60.0
  .\out_file\zf_driver_adc.obj (zf_driver_adc)
         COMMENT TYPE 0: C251 V5.60.0
  .\out_file\zf_driver_delay.obj (zf_driver_delay)
         COMMENT TYPE 0: C251 V5.60.0
  .\out_file\zf_driver_eeprom.obj (zf_driver_eeprom)
         COMMENT TYPE 0: C251 V5.60.0
  .\out_file\zf_driver_encoder.obj (zf_driver_encoder)
         COMMENT TYPE 0: C251 V5.60.0
  .\out_file\zf_driver_exti.obj (zf_driver_exti)
         COMMENT TYPE 0: C251 V5.60.0
  .\out_file\zf_driver_gpio.obj (zf_driver_gpio)
         COMMENT TYPE 0: C251 V5.60.0
  .\out_file\zf_driver_pit.obj (zf_driver_pit)
         COMMENT TYPE 0: C251 V5.60.0
  .\out_file\zf_driver_pwm.obj (zf_driver_pwm)
         COMMENT TYPE 0: C251 V5.60.0
  .\out_file\zf_driver_soft_iic.obj (zf_driver_soft_iic)
         COMMENT TYPE 0: C251 V5.60.0
  .\out_file\zf_driver_spi.obj (zf_driver_spi)
         COMMENT TYPE 0: C251 V5.60.0
  .\out_file\zf_driver_timer.obj (zf_driver_timer)
         COMMENT TYPE 0: C251 V5.60.0
  .\out_file\zf_driver_uart.obj (zf_driver_uart)
         COMMENT TYPE 0: C251 V5.60.0
  .\out_file\zf_device_config.obj (zf_device_config)
         COMMENT TYPE 0: C251 V5.60.0
  .\out_file\zf_device_type.obj (zf_device_type)
         COMMENT TYPE 0: C251 V5.60.0
L251 LINKER/LOCATER V4.66.93.0                                                        01/16/2025  23:25:20  PAGE 2


  .\out_file\zf_device_tft180.obj (zf_device_tft180)
         COMMENT TYPE 0: C251 V5.60.0
  .\out_file\zf_device_ips114.obj (zf_device_ips114)
         COMMENT TYPE 0: C251 V5.60.0
  .\out_file\zf_device_ips200.obj (zf_device_ips200)
         COMMENT TYPE 0: C251 V5.60.0
  .\out_file\zf_device_dl1a.obj (zf_device_dl1a)
         COMMENT TYPE 0: C251 V5.60.0
  .\out_file\zf_device_ble6a20.obj (zf_device_ble6a20)
         COMMENT TYPE 0: C251 V5.60.0
  .\out_file\zf_device_wireless_uart.obj (zf_device_wireless_uart)
         COMMENT TYPE 0: C251 V5.60.0
  .\out_file\zf_device_mpu6050.obj (zf_device_mpu6050)
         COMMENT TYPE 0: C251 V5.60.0
  .\out_file\zf_device_icm20602.obj (zf_device_icm20602)
         COMMENT TYPE 0: C251 V5.60.0
  .\out_file\zf_device_imu660ra.obj (zf_device_imu660ra)
         COMMENT TYPE 0: C251 V5.60.0
  .\out_file\zf_device_imu963ra.obj (zf_device_imu963ra)
         COMMENT TYPE 0: C251 V5.60.0
  .\out_file\zf_device_gps_tau1201.obj (zf_device_gps_tau1201)
         COMMENT TYPE 0: C251 V5.60.0
  .\out_file\zf_device_tsl1401.obj (zf_device_tsl1401)
         COMMENT TYPE 0: C251 V5.60.0
  .\out_file\seekfree_assistant.obj (seekfree_assistant)
         COMMENT TYPE 0: C251 V5.60.0
  .\out_file\seekfree_assistant_interface.obj (seekfree_assistant_interface)
         COMMENT TYPE 0: C251 V5.60.0
  .\out_file\isr.obj (isr)
         COMMENT TYPE 0: C251 V5.60.0
  .\out_file\main.obj (main)
         COMMENT TYPE 0: C251 V5.60.0
  .\out_file\sys.obj (sys)
         COMMENT TYPE 0: C251 V5.60.0
  .\out_file\uart.obj (uart)
         COMMENT TYPE 0: C251 V5.60.0
  .\out_file\motor.obj (motor)
         COMMENT TYPE 0: C251 V5.60.0
  .\out_file\rocker.obj (rocker)
         COMMENT TYPE 0: C251 V5.60.0
  D:\KEIL_V5\C251\LIB\C2SDPL.LIB (?C?DPADD)
         COMMENT TYPE 0: A251 V4.69.6.0
  D:\KEIL_V5\C251\LIB\C2SDPL.LIB (?C?DPMUL)
         COMMENT TYPE 0: A251 V4.69.6.0
  D:\KEIL_V5\C251\LIB\C2SDPL.LIB (?C?DPDIV)
         COMMENT TYPE 0: A251 V4.69.6.0
  D:\KEIL_V5\C251\LIB\C2SDPL.LIB (?C?DPCMP)
         COMMENT TYPE 0: A251 V4.69.6.0
  D:\KEIL_V5\C251\LIB\C2SDPL.LIB (?C?DPNEG)
         COMMENT TYPE 0: A251 V4.69.6.0
  D:\KEIL_V5\C251\LIB\C2SDPL.LIB (?C?DCAST)
         COMMENT TYPE 0: A251 V4.69.6.0
  D:\KEIL_V5\C251\LIB\C2SDPL.LIB (?C?CASTD)
         COMMENT TYPE 0: A251 V4.69.6.0
  D:\KEIL_V5\C251\LIB\C2SDPL.LIB (?C?DCASTF)
         COMMENT TYPE 0: A251 V4.69.6.0
  D:\KEIL_V5\C251\LIB\C2SDPL.LIB (?C?FCASTD)
         COMMENT TYPE 0: A251 V4.69.6.0
  D:\KEIL_V5\C251\LIB\C2SDPL.LIB (PRINTF)
         COMMENT TYPE 0: A251 V4.69.6.0
  D:\KEIL_V5\C251\LIB\C2SDPL.LIB (SQRT?_)
         COMMENT TYPE 0: A251 V4.69.6.0
  D:\KEIL_V5\C251\LIB\C2SDPL.LIB (pow)
         COMMENT TYPE 0: C251 V5.58.7
  D:\KEIL_V5\C251\LIB\C2SDPL.LIB (SIN?_)
L251 LINKER/LOCATER V4.66.93.0                                                        01/16/2025  23:25:20  PAGE 3


         COMMENT TYPE 0: A251 V4.69.6.0
  D:\KEIL_V5\C251\LIB\C2SDPL.LIB (ATAN?_)
         COMMENT TYPE 0: A251 V4.69.6.0
  D:\KEIL_V5\C251\LIB\C2SDPL.LIB (ASIN?_)
         COMMENT TYPE 0: A251 V4.69.6.0
  D:\KEIL_V5\C251\LIB\C2SDPL.LIB (?C?DPGETOPN)
         COMMENT TYPE 0: A251 V4.69.6.0
  D:\KEIL_V5\C251\LIB\C2SDPL.LIB (_CHKDOUBLE_?_)
         COMMENT TYPE 0: A251 V4.69.6.0
  D:\KEIL_V5\C251\LIB\C2SDPL.LIB (?C?PRNFMT)
         COMMENT TYPE 0: A251 V4.69.6.0
  D:\KEIL_V5\C251\LIB\C2SDPL.LIB (?C?DPSERIES)
         COMMENT TYPE 0: A251 V4.69.6.0
  D:\KEIL_V5\C251\LIB\C2SDPL.LIB (EXP?_)
         COMMENT TYPE 0: A251 V4.69.6.0
  D:\KEIL_V5\C251\LIB\C2SDPL.LIB (LOG?_)
         COMMENT TYPE 0: A251 V4.69.6.0
  D:\KEIL_V5\C251\LIB\C2SDPL.LIB (?C?DPCONVERT)
         COMMENT TYPE 0: A251 V4.69.6.0
  D:\KEIL_V5\C251\LIB\C2SDPL.LIB (?C?DTNPWR)
         COMMENT TYPE 0: A251 V4.69.6.0
  D:\KEIL_V5\C251\LIB\C2SFPL.LIB (?C?FPGETOPN)
         COMMENT TYPE 0: A251 V4.69.6.0
  D:\KEIL_V5\C251\LIB\C2SFPL.LIB (?C?FPADD)
         COMMENT TYPE 0: A251 V4.69.6.0
  D:\KEIL_V5\C251\LIB\C2SFPL.LIB (?C?FPMUL)
         COMMENT TYPE 0: A251 V4.69.6.0
  D:\KEIL_V5\C251\LIB\C2SFPL.LIB (?C?FPDIV)
         COMMENT TYPE 0: A251 V4.69.6.0
  D:\KEIL_V5\C251\LIB\C2SFPL.LIB (?C?FPCMP)
         COMMENT TYPE 0: A251 V4.69.6.0
  D:\KEIL_V5\C251\LIB\C2SFPL.LIB (?C?FPNEG)
         COMMENT TYPE 0: A251 V4.69.6.0
  D:\KEIL_V5\C251\LIB\C2SFPL.LIB (?C?FCAST)
         COMMENT TYPE 0: A251 V4.69.6.0
  D:\KEIL_V5\C251\LIB\C2SFPL.LIB (?C?CASTF)
         COMMENT TYPE 0: A251 V4.69.6.0
  D:\KEIL_V5\C251\LIB\C2SL.LIB (?C_START)
         COMMENT TYPE 0: A251 V4.69.6.0
  D:\KEIL_V5\C251\LIB\C2SL.LIB (?C?INITHDATA)
         COMMENT TYPE 0: A251 V4.69.6.0
  D:\KEIL_V5\C251\LIB\C2SL.LIB (?C?SIDIV)
         COMMENT TYPE 0: A251 V4.69.6.0
  D:\KEIL_V5\C251\LIB\C2SL.LIB (?C?LMUL)
         COMMENT TYPE 0: A251 V4.69.6.0
  D:\KEIL_V5\C251\LIB\C2SL.LIB (?C?LIMUL)
         COMMENT TYPE 0: A251 V4.69.6.0
  D:\KEIL_V5\C251\LIB\C2SL.LIB (?C?ULDIV)
         COMMENT TYPE 0: A251 V4.69.6.0
  D:\KEIL_V5\C251\LIB\C2SL.LIB (?C?SLDIV)
         COMMENT TYPE 0: A251 V4.69.6.0
  D:\KEIL_V5\C251\LIB\C2SL.LIB (?C?BMOVEPP)
         COMMENT TYPE 0: A251 V4.69.6.0
  D:\KEIL_V5\C251\LIB\C2SL.LIB (STRNCMP)
         COMMENT TYPE 0: C251 V5.58.7
  D:\KEIL_V5\C251\LIB\C2SL.LIB (STRNCPY)
         COMMENT TYPE 0: C251 V5.58.7
  D:\KEIL_V5\C251\LIB\C2SL.LIB (STRLEN)
         COMMENT TYPE 0: C251 V5.58.7
  D:\KEIL_V5\C251\LIB\C2SL.LIB (STRCHR)
         COMMENT TYPE 0: C251 V5.58.7
  D:\KEIL_V5\C251\LIB\C2SL.LIB (memcpy)
         COMMENT TYPE 0: C251 V5.58.7
  D:\KEIL_V5\C251\LIB\C2SL.LIB (memset)
         COMMENT TYPE 0: C251 V5.58.7
L251 LINKER/LOCATER V4.66.93.0                                                        01/16/2025  23:25:20  PAGE 4


  D:\KEIL_V5\C251\LIB\C2SL.LIB (?C?INITHDATA_END)
         COMMENT TYPE 0: A251 V4.69.6.0


ACTIVE MEMORY CLASSES OF MODULE:  .\out_file\SEEKFREE (ai8051u_isr)

BASE        START       END         USED      MEMORY CLASS
==========================================================
000000H     000000H     0007FFH     000100H   EDATA
000000H     000000H     0007FFH               HDATA
FF0000H     FF0000H     FFFFFFH     0063FAH   CODE
010000H     010000H     01FFFFH     00072EH   XDATA
000000H     FF0000H     FFFFFFH     000BBDH   HCONST
000020H.0   000020H.0   00002FH.7             BIT
FF0000H     FF0000H     FFFFFFH     000004H   CONST
000000H     000000H     00007FH     000008H   DATA


MEMORY MAP OF MODULE:  .\out_file\SEEKFREE (ai8051u_isr)


START     STOP      LENGTH    ALIGN  RELOC    MEMORY CLASS   SEGMENT NAME
=========================================================================
000000H   000007H   000008H   ---    AT..     DATA           "REG BANK 0"
000008H   000107H   000100H   BYTE   UNIT     EDATA          ?STACK
000108H   00FFFFH   00FEF8H   ---    ---      **GAP**
010000H   010201H   000202H   BYTE   INSEG    XDATA          ?XD?ZF_DEVICE_TSL1401
010202H   0103D1H   0001D0H   BYTE   INSEG    XDATA          ?XD?ZF_DEVICE_GPS_TAU1201
0103D2H   01050EH   00013DH   BYTE   INSEG    XDATA          ?XD?SEEKFREE_ASSISTANT
01050FH   010567H   000059H   BYTE   INSEG    XDATA          ?XD?ZF_COMMON_DEBUG
010568H   0105BEH   000057H   BYTE   INSEG    XDATA          ?XD?ZF_DEVICE_BLE6A20
0105BFH   010615H   000057H   BYTE   INSEG    XDATA          ?XD?ZF_DEVICE_WIRELESS_UART
010616H   01063EH   000029H   BYTE   UNIT     XDATA          _XDATA_GROUP_
01063FH   01065CH   00001EH   BYTE   INSEG    XDATA          ?XD?ZF_COMMON_TYPEDEF
01065DH   01067AH   00001EH   BYTE   INSEG    XDATA          ?XD?ZF_DEVICE_IMU963RA
01067BH   01068FH   000015H   BYTE   INSEG    XDATA          ?XD?ZF_DEVICE_MPU6050
010690H   0106A3H   000014H   BYTE   INSEG    XDATA          ?XD?ZF_DEVICE_ICM20602
0106A4H   0106B7H   000014H   BYTE   INSEG    XDATA          ?XD?ZF_DEVICE_IMU660RA
0106B8H   0106C4H   00000DH   BYTE   INSEG    XDATA          ?XD?ZF_DEVICE_DL1A
0106C5H   0106D0H   00000CH   BYTE   INSEG    XDATA          ?XD?ZF_DRIVER_TIMER
0106D1H   0106DCH   00000CH   BYTE   INSEG    XDATA          ?XD?ZF_DRIVER_UART
0106DDH   0106E6H   00000AH   BYTE   INSEG    XDATA          ?XD?ZF_DEVICE_IPS200
0106E7H   0106F0H   00000AH   BYTE   INSEG    XDATA          ?XD?ROCKER
0106F1H   0106F8H   000008H   BYTE   UNIT     XDATA          ?XD?SOFT_IIC_DELAY?ZF_DRIVER_SOFT_IIC
0106F9H   010700H   000008H   BYTE   INSEG    XDATA          ?XD?ZF_DEVICE_TYPE
010701H   010708H   000008H   BYTE   INSEG    XDATA          ?XD?ZF_DEVICE_TFT180
010709H   010710H   000008H   BYTE   INSEG    XDATA          ?XD?ZF_DEVICE_IPS114
010711H   010716H   000006H   BYTE   INSEG    XDATA          ?XD?ZF_DRIVER_ENCODER
010717H   01071AH   000004H   BYTE   INSEG    XDATA          ?XD?ZF_COMMON_CLOCK
01071BH   01071EH   000004H   BYTE   INSEG    XDATA          ?XD?ZF_DRIVER_DELAY
01071FH   010722H   000004H   BYTE   INSEG    XDATA          ?XD?SEEKFREE_ASSISTANT_INTERFACE
010723H   010725H   000003H   BYTE   UNIT     XDATA          ?XD?SOFT_IIC_READ_DATA?ZF_DRIVER_SOFT_IIC
010726H   010727H   000002H   BYTE   UNIT     XDATA          ?XD?SOFT_IIC_SEND_DATA?ZF_DRIVER_SOFT_IIC
010728H   010729H   000002H   BYTE   INSEG    XDATA          ?XD?MAIN
01072AH   01072AH   000001H   BYTE   INSEG    XDATA          ?XD?ZF_DRIVER_ADC
01072BH   01072BH   000001H   BYTE   UNIT     XDATA          ?XD?SOFT_IIC_SEND_ACK?ZF_DRIVER_SOFT_IIC
01072CH   01072CH   000001H   BYTE   UNIT     XDATA          ?XD?SOFT_IIC_WAIT_ACK?ZF_DRIVER_SOFT_IIC
01072DH   01072DH   000001H   BYTE   INSEG    XDATA          ?XD?ISR
01072EH   FEFFFFH   FDF8D2H   ---    ---      **GAP**
FF0000H   FF0002H   000003H   ---    OFFS..   CODE           ?CO?start251?4
FF0003H   FF0005H   000003H   BYTE   INSEG    CODE           ?PR?INTERRUPT_GLOBAL_ENABLE?ZF_COMMON_INTERRUPT
FF0006H   FF0009H   000004H   BYTE   UNIT     CONST          ?CO?PRINTF
FF000AH   FF000AH   000001H   ---    ---      **GAP**
FF000BH   FF000DH   000003H   ---    OFFS..   CODE           ?PR?IV?1
FF000EH   FF0013H   000006H   BYTE   UNIT     HCONST         ?HC?ZF_DEVICE_TFT180
L251 LINKER/LOCATER V4.66.93.0                                                        01/16/2025  23:25:20  PAGE 5


FF0014H   FF0019H   000006H   BYTE   UNIT     HCONST         ?HC?ZF_DEVICE_IPS114
FF001AH   FF001AH   000001H   ---    ---      **GAP**
FF001BH   FF001DH   000003H   ---    OFFS..   CODE           ?PR?IV?3
FF001EH   FF0022H   000005H   ---    ---      **GAP**
FF0023H   FF0025H   000003H   ---    OFFS..   CODE           ?PR?IV?4
FF0026H   FF003CH   000017H   BYTE   INSEG    CODE           ?PR?SPI_WRITE_8BIT_REGISTER?ZF_DRIVER_SPI
FF003DH   FF0042H   000006H   BYTE   UNIT     HCONST         ?HC?ZF_DEVICE_IPS200
FF0043H   FF0045H   000003H   ---    OFFS..   CODE           ?PR?IV?8
FF0046H   FF0058H   000013H   BYTE   INSEG    CODE           ?PR?UART_WRITE_BYTE?ZF_DRIVER_UART
FF0059H   FF0062H   00000AH   ---    ---      **GAP**
FF0063H   FF0065H   000003H   ---    OFFS..   CODE           ?PR?IV?12
FF0066H   FF008AH   000025H   BYTE   INSEG    CODE           ?PR?ICM20602_WRITE_REGISTER?ZF_DEVICE_ICM20602
FF008BH   FF008DH   000003H   ---    OFFS..   CODE           ?PR?IV?17
FF008EH   FF0092H   000005H   ---    ---      **GAP**
FF0093H   FF0095H   000003H   ---    OFFS..   CODE           ?PR?IV?18
FF0096H   FF009AH   000005H   ---    ---      **GAP**
FF009BH   FF009DH   000003H   ---    OFFS..   CODE           ?PR?IV?19
FF009EH   FF00A2H   000005H   ---    ---      **GAP**
FF00A3H   FF00A5H   000003H   ---    OFFS..   CODE           ?PR?IV?20
FF00A6H   FF00B7H   000012H   BYTE   INSEG    CODE           ?PR?ROCKER_INIT?ROCKER
FF00B8H   FF00C2H   00000BH   ---    ---      **GAP**
FF00C3H   FF00C5H   000003H   ---    OFFS..   CODE           ?PR?IV?24
FF00C6H   FF018EH   0000C9H   BYTE   INSEG    CODE           ?PR?GPIO_GET_LEVEL?ZF_DRIVER_GPIO
FF018FH   FF019AH   00000CH   ---    ---      **GAP**
FF019BH   FF019DH   000003H   ---    OFFS..   CODE           ?CO?ai8051u_isr?1
FF019EH   FF01AAH   00000DH   ---    ---      **GAP**
FF01ABH   FF01ADH   000003H   ---    OFFS..   CODE           ?CO?ai8051u_isr?2
FF01AEH   FF01BAH   00000DH   ---    ---      **GAP**
FF01BBH   FF01BDH   000003H   ---    OFFS..   CODE           ?CO?ai8051u_isr?3
FF01BEH   FF01CAH   00000DH   ---    ---      **GAP**
FF01CBH   FF01CDH   000003H   ---    OFFS..   CODE           ?CO?ai8051u_isr?4
FF01CEH   FF021AH   00004DH   BYTE   INSEG    CODE           ?PR?FIFO_INIT?ZF_COMMON_FIFO
FF021BH   FF021DH   000003H   ---    OFFS..   CODE           ?CO?ai8051u_isr?5
FF021EH   FF221DH   002000H   BYTE   UNIT     CODE           ?CO?ZF_DEVICE_CONFIG
FF221EH   FF391FH   001702H   BYTE   UNIT     CODE           ?C?LIB_CODE
FF3920H   FF4137H   000818H   BYTE   UNIT     CODE           ?CO?ZF_COMMON_FONT
FF4138H   FF44E4H   0003ADH   BYTE   INSEG    CODE           ?PR?PWM_INIT?ZF_DRIVER_PWM
FF44E5H   FF4887H   0003A3H   BYTE   INSEG    CODE           ?PR?SPI_INIT?ZF_DRIVER_SPI
FF4888H   FF4B8EH   000307H   BYTE   INSEG    CODE           ?PR?FIFO_WRITE_BUFFER?ZF_COMMON_FIFO
FF4B8FH   FF4E06H   000278H   BYTE   INSEG    CODE           ?PR?GPIO_SET_DIR?ZF_DRIVER_GPIO
FF4E07H   FF4FC3H   0001BDH   BYTE   INSEG    CODE           ?PR?GPIO_SET_LEVEL_SPEED?ZF_DRIVER_GPIO
FF4FC4H   FF515FH   00019CH   BYTE   INSEG    CODE           ?PR?UART_INIT?ZF_DRIVER_UART
FF5160H   FF52D5H   000176H   BYTE   INSEG    CODE           ?PR?GPIO_SET_MODE?ZF_DRIVER_GPIO
FF52D6H   FF5424H   00014FH   BYTE   INSEG    CODE           ?PR?GPIO_SET_LEVEL?ZF_DRIVER_GPIO
FF5425H   FF5533H   00010FH   BYTE   INSEG    CODE           ?PR?ICM20602_INIT?ZF_DEVICE_ICM20602
FF5534H   FF55FAH   0000C7H   BYTE   INSEG    CODE           ?PR?CLOCK_INIT?ZF_COMMON_CLOCK
FF55FBH   FF56BAH   0000C0H   BYTE   INSEG    CODE           ?PR?GPIO_SET_IMPEDANCE?ZF_DRIVER_GPIO
FF56BBH   FF5773H   0000B9H   BYTE   INSEG    CODE           ?PR?MAIN?MAIN
FF5774H   FF582AH   0000B7H   BYTE   INSEG    CODE           ?PR?UART_DMA_INIT?ZF_DRIVER_UART
FF582BH   FF58C7H   00009DH   BYTE   INSEG    CODE           ?PR?UART_WRITE_BUFFER?ZF_DRIVER_UART
FF58C8H   FF5961H   00009AH   BYTE   INSEG    CODE           ?PR?SOFT_IIC_READ_DATA?ZF_DRIVER_SOFT_IIC
FF5962H   FF59F8H   000097H   BYTE   INSEG    CODE           ?PR?DMA_UART1_IRQHANDLER?ISR
FF59F9H   FF5A71H   000079H   BYTE   INSEG    CODE           ?PR?DMA_UART2_IRQHANDLER?ISR
FF5A72H   FF5AEAH   000079H   BYTE   INSEG    CODE           ?PR?DMA_UART3_IRQHANDLER?ISR
FF5AEBH   FF5B63H   000079H   BYTE   INSEG    CODE           ?PR?DMA_UART4_IRQHANDLER?ISR
FF5B64H   FF5BD5H   000072H   BYTE   INSEG    CODE           ?PR?SOFT_IIC_SEND_DATA?ZF_DRIVER_SOFT_IIC
FF5BD6H   FF5C41H   00006CH   BYTE   INSEG    CODE           ?PR?GPIO_INIT?ZF_DRIVER_GPIO
FF5C42H   FF5CA2H   000061H   BYTE   INSEG    CODE           ?PR?ADC_INIT?ZF_DRIVER_ADC
FF5CA3H   FF5D02H   000060H   BYTE   INSEG    CODE           ?PR?UART_RX_START_BUFF?ZF_DRIVER_UART
FF5D03H   FF5D60H   00005EH   BYTE   INSEG    CODE           ?PR?DEBUG_INIT?ZF_COMMON_DEBUG
FF5D61H   FF5DBEH   00005EH   BYTE   INSEG    CODE           ?PR?SOFT_IIC_WAIT_ACK?ZF_DRIVER_SOFT_IIC
FF5DBFH   FF5E14H   000056H   BYTE   INSEG    CODE           ?PR?SOFT_IIC_SEND_ACK?ZF_DRIVER_SOFT_IIC
FF5E15H   FF5E65H   000051H   BYTE   INSEG    CODE           ?PR?SYSTEM_DELAY_MS?ZF_DRIVER_DELAY
FF5E66H   FF5EB5H   000050H   BYTE   INSEG    CODE           ?PR?ICM20602_GET_ACC?ZF_DEVICE_ICM20602
FF5EB6H   FF5F05H   000050H   BYTE   INSEG    CODE           ?PR?ICM20602_GET_GYRO?ZF_DEVICE_ICM20602
L251 LINKER/LOCATER V4.66.93.0                                                        01/16/2025  23:25:20  PAGE 6


FF5F06H   FF5F54H   00004FH   BYTE   INSEG    CODE           ?PR?SYSTEM_DELAY_INIT?ZF_DRIVER_DELAY
FF5F55H   FF5F9FH   00004BH   BYTE   INSEG    CODE           ?PR?TM11_IRQHANDLER?ISR
FF5FA0H   FF5FE8H   000049H   BYTE   INSEG    CODE           ?PR?UART_QUERY_BYTE?ZF_DRIVER_UART
FF5FE9H   FF6030H   000048H   BYTE   INSEG    CODE           ?PR?SOFT_IIC_STOP?ZF_DRIVER_SOFT_IIC
FF6031H   FF6077H   000047H   BYTE   INSEG    CODE           ?PR?ICM20602_READ_REGISTERS?ZF_DEVICE_ICM20602
FF6078H   FF608AH   000013H   BYTE   UNIT     CODE           ?C_C51STARTUP
FF608BH   FF60BBH   000031H   BYTE   UNIT     CODE           ?C_C51STARTUP?2
FF60BCH   FF60BEH   000003H   BYTE   UNIT     CODE           ?C_C51STARTUP?3
FF60BFH   FF6104H   000046H   BYTE   INSEG    CODE           ?PR?FIFO_HEAD_OFFSET?ZF_COMMON_FIFO
FF6105H   FF6144H   000040H   BYTE   INSEG    CODE           ?PR?SPI_READ_8BIT_REGISTERS?ZF_DRIVER_SPI
FF6145H   FF6184H   000040H   BYTE   INSEG    CODE           ?PR?SPI_READ_DAT?ZF_DRIVER_SPI
FF6185H   FF61C2H   00003EH   BYTE   INSEG    CODE           ?PR?TM0_IRQHANDLER?ISR
FF61C3H   FF6200H   00003EH   BYTE   INSEG    CODE           ?PR?TM1_IRQHANDLER?ISR
FF6201H   FF623EH   00003EH   BYTE   INSEG    CODE           ?PR?TM2_IRQHANDLER?ISR
FF623FH   FF627CH   00003EH   BYTE   INSEG    CODE           ?PR?TM3_IRQHANDLER?ISR
FF627DH   FF62BAH   00003EH   BYTE   INSEG    CODE           ?PR?TM4_IRQHANDLER?ISR
FF62BBH   FF62F7H   00003DH   BYTE   INSEG    CODE           ?PR?SOFT_IIC_START?ZF_DRIVER_SOFT_IIC
FF62F8H   FF6333H   00003CH   BYTE   INSEG    CODE           ?PR?UART_RX_INTERRUPT?ZF_DRIVER_UART
FF6334H   FF636EH   00003BH   BYTE   INSEG    CODE           ?PR?DEBUG_INTERRUPR_HANDLER?ZF_COMMON_DEBUG
FF636FH   FF63A6H   000038H   BYTE   INSEG    CODE           ?PR?SOFT_IIC_DELAY?ZF_DRIVER_SOFT_IIC
FF63A7H   FF63D4H   00002EH   BYTE   INSEG    CODE           ?PR?SPI_WRITE_DAT?ZF_DRIVER_SPI
FF63D5H   FF6401H   00002DH   BYTE   INSEG    CODE           ?PR?ICM20602_SELF_CHECK?ZF_DEVICE_ICM20602
FF6402H   FF6428H   000027H   BYTE   INSEG    CODE           ?PR?ICM20602_READ_REGISTER?ZF_DEVICE_ICM20602
FF6429H   FF644DH   000025H   BYTE   INSEG    CODE           ?PR?MEMCPY?_?MEMCPY
FF644EH   FF645DH   000010H   BYTE   INSEG    CODE           ?PR?PUTCHAR?ZF_COMMON_DEBUG
FF645EH   FF646DH   000010H   BYTE   INSEG    CODE           ?PR?SPI_READ_8BIT_REGISTER?ZF_DRIVER_SPI
FF646EH   FF685AH   0003EDH   BYTE   UNIT     HCONST         ?C_INITHDATA
FF685BH   FF6A5AH   000200H   BYTE   UNIT     HCONST         ?HC?ZF_DRIVER_EEPROM
FF6A5BH   FF6B5EH   000104H   BYTE   UNIT     HCONST         ?HC?ZF_DEVICE_DL1A
FF6B5FH   FF6C23H   0000C5H   BYTE   UNIT     HCONST         ?HC?ZF_DEVICE_IMU963RA
FF6C24H   FF6CCAH   0000A7H   BYTE   UNIT     HCONST         ?HC?ZF_DEVICE_IMU660RA
FF6CCBH   FF6D6EH   0000A4H   BYTE   UNIT     HCONST         ?HC?SEEKFREE_ASSISTANT
FF6D6FH   FF6E10H   0000A2H   BYTE   UNIT     HCONST         ?HC?ZF_DEVICE_GPS_TAU1201
FF6E11H   FF6E98H   000088H   BYTE   UNIT     HCONST         ?HC?ZF_DEVICE_ICM20602
FF6E99H   FF6F18H   000080H   BYTE   UNIT     HCONST         ?HC?ZF_DEVICE_BLE6A20
FF6F19H   FF6F78H   000060H   BYTE   UNIT     HCONST         ?HC?ZF_DRIVER_PWM
FF6F79H   FF6FD0H   000058H   BYTE   UNIT     HCONST         ?HC?MAIN
FF6FD1H   FF6FEEH   00001EH   BYTE   UNIT     HCONST         ?HC?ZF_DEVICE_WIRELESS_UART
FF6FEFH   FF7008H   00001AH   BYTE   UNIT     HCONST         ?HC?ZF_DEVICE_MPU6050
FF7009H   FF7018H   000010H   BYTE   UNIT     HCONST         ?HC?ZF_COMMON_FUNCTION

* * * * * * * * *   R E M O V E D     S E G M E N T S   * * * * * * * *
   *DEL*:           00003EH   BYTE   INSEG    CODE           ?PR?DEBUG_READ_BUFFER?ZF_COMMON_DEBUG
   *DEL*:           000031H   BYTE   INSEG    CODE           ?PR?DEBUG_SEND_BUFFER?ZF_COMMON_DEBUG
   *DEL*:           000004H   BYTE   UNIT     XDATA          ?XD?DEBUG_READ_BUFFER?ZF_COMMON_DEBUG
   *DEL*:           000323H   BYTE   INSEG    CODE           ?PR?FIFO_READ_BUFFER?ZF_COMMON_FIFO
   *DEL*:           000083H   BYTE   INSEG    CODE           ?PR?FIFO_CLEAR?ZF_COMMON_FIFO
   *DEL*:           000046H   BYTE   INSEG    CODE           ?PR?FIFO_END_OFFSET?ZF_COMMON_FIFO
   *DEL*:           000015H   BYTE   INSEG    CODE           ?PR?FIFO_USED?ZF_COMMON_FIFO
   *DEL*:           000002H   BYTE   UNIT     XDATA          ?XD?FIFO_CLEAR?ZF_COMMON_FIFO
   *DEL*:           000014H   BYTE   UNIT     XDATA          ?XD?FIFO_READ_BUFFER?ZF_COMMON_FIFO
   *DEL*:           000236H   BYTE   INSEG    CODE           ?PR?FUNC_DOUBLE_TO_STR?ZF_COMMON_FUNCTION
   *DEL*:           00021BH   BYTE   INSEG    CODE           ?PR?FUNC_STR_TO_DOUBLE?ZF_COMMON_FUNCTION
   *DEL*:           00008AH   BYTE   INSEG    CODE           ?PR?NUMBER_CONVERSION_ASCII?ZF_COMMON_FUNCTION
   *DEL*:           00016EH   BYTE   INSEG    CODE           ?PR?FUNC_FLOAT_TO_STR?ZF_COMMON_FUNCTION
   *DEL*:           000106H   BYTE   INSEG    CODE           ?PR?FUNC_STR_TO_FLOAT?ZF_COMMON_FUNCTION
   *DEL*:           000024H   BYTE   INSEG    CODE           ?PR?FUNC_SOFT_DELAY?ZF_COMMON_FUNCTION
   *DEL*:           0006CDH   BYTE   INSEG    CODE           ?PR?ZF_SPRINTF?ZF_COMMON_FUNCTION
   *DEL*:           00006DH   BYTE   INSEG    CODE           ?PR?FUNC_UINT_TO_STR?ZF_COMMON_FUNCTION
   *DEL*:           000034H   BYTE   INSEG    CODE           ?PR?FUNC_STR_TO_UINT?ZF_COMMON_FUNCTION
   *DEL*:           000092H   BYTE   INSEG    CODE           ?PR?FUNC_HEX_TO_STR?ZF_COMMON_FUNCTION
   *DEL*:           0000A3H   BYTE   INSEG    CODE           ?PR?FUNC_STR_TO_HEX?ZF_COMMON_FUNCTION
   *DEL*:           00009DH   BYTE   INSEG    CODE           ?PR?FUNC_INT_TO_STR?ZF_COMMON_FUNCTION
   *DEL*:           000058H   BYTE   INSEG    CODE           ?PR?FUNC_STR_TO_INT?ZF_COMMON_FUNCTION
   *DEL*:           000019H   BYTE   INSEG    CODE           ?PR?FUNC_GET_GREATEST_COMMON_DIVISOR?ZF_COMMON_FUNCTION
L251 LINKER/LOCATER V4.66.93.0                                                        01/16/2025  23:25:20  PAGE 7


   *DEL*:           00003EH   BYTE   INSEG    CODE           ?PR?PRINTF_REVERSE_ORDER?ZF_COMMON_FUNCTION
   *DEL*:           000004H   BYTE   UNIT     XDATA          ?XD?FUNC_SOFT_DELAY?ZF_COMMON_FUNCTION
   *DEL*:           000010H   BYTE   UNIT     XDATA          ?XD?FUNC_INT_TO_STR?ZF_COMMON_FUNCTION
   *DEL*:           000010H   BYTE   UNIT     XDATA          ?XD?FUNC_UINT_TO_STR?ZF_COMMON_FUNCTION
   *DEL*:           000005H   BYTE   UNIT     XDATA          ?XD?FUNC_STR_TO_FLOAT?ZF_COMMON_FUNCTION
   *DEL*:           00001CH   BYTE   UNIT     XDATA          ?XD?FUNC_FLOAT_TO_STR?ZF_COMMON_FUNCTION
   *DEL*:           000019H   BYTE   UNIT     XDATA          ?XD?FUNC_STR_TO_DOUBLE?ZF_COMMON_FUNCTION
   *DEL*:           000038H   BYTE   UNIT     XDATA          ?XD?FUNC_DOUBLE_TO_STR?ZF_COMMON_FUNCTION
   *DEL*:           00001CH   BYTE   UNIT     XDATA          ?XD?FUNC_HEX_TO_STR?ZF_COMMON_FUNCTION
   *DEL*:           000001H   BYTE   UNIT     XDATA          ?XD?NUMBER_CONVERSION_ASCII?ZF_COMMON_FUNCTION
   *DEL*:           000063H   BYTE   UNIT     XDATA          ?XD?ZF_SPRINTF?ZF_COMMON_FUNCTION
   *DEL*:           000003H   BYTE   INSEG    CODE           ?PR?INTERRUPT_GLOBAL_DISABLE?ZF_COMMON_INTERRUPT
   *DEL*:           00009EH   BYTE   INSEG    CODE           ?PR?INTERRUPT_SET_PRIORITY?ZF_COMMON_INTERRUPT
   *DEL*:           00005AH   BYTE   INSEG    CODE           ?PR?ADC_MEAN_FILTER_CONVERT?ZF_DRIVER_ADC
   *DEL*:           000030H   BYTE   INSEG    CODE           ?PR?ADC_CONVERT?ZF_DRIVER_ADC
   *DEL*:           000004H   BYTE   UNIT     XDATA          ?XD?ADC_MEAN_FILTER_CONVERT?ZF_DRIVER_ADC
   *DEL*:           000051H   BYTE   INSEG    CODE           ?PR?SYSTEM_DELAY_US?ZF_DRIVER_DELAY
   *DEL*:           00001CH   BYTE   INSEG    CODE           ?PR?IAP_SET_TPS?ZF_DRIVER_EEPROM
   *DEL*:           00000BH   BYTE   INSEG    CODE           ?PR?EEPROM_TRIG?ZF_DRIVER_EEPROM
   *DEL*:           000025H   BYTE   INSEG    CODE           ?PR?IAP_ERASE_PAGE?ZF_DRIVER_EEPROM
   *DEL*:           000004H   BYTE   INSEG    CODE           ?PR?IAP_IDLE?ZF_DRIVER_EEPROM
   *DEL*:           000049H   BYTE   INSEG    CODE           ?PR?IAP_READ_BUFF?ZF_DRIVER_EEPROM
   *DEL*:           0000E9H   BYTE   INSEG    CODE           ?PR?EXTERN_IAP_WRITE_BUFF?ZF_DRIVER_EEPROM
   *DEL*:           000049H   BYTE   INSEG    CODE           ?PR?IAP_WRITE_BUFF?ZF_DRIVER_EEPROM
   *DEL*:           000021H   BYTE   INSEG    CODE           ?PR?IAP_READ_BYTE?ZF_DRIVER_EEPROM
   *DEL*:           000006H   BYTE   INSEG    CODE           ?PR?IAP_INIT?ZF_DRIVER_EEPROM
   *DEL*:           000028H   BYTE   INSEG    CODE           ?PR?IAP_WRITE_BYTE?ZF_DRIVER_EEPROM
   *DEL*:           00000CH   BYTE   INSEG    CODE           ?PR?IAP_GET_CMD_STATE?ZF_DRIVER_EEPROM
   *DEL*:           000000H.1 BIT    UNIT     BIT            ?BI?IAP_READ_BYTE?ZF_DRIVER_EEPROM
   *DEL*:           000000H.1 BIT    UNIT     BIT            ?BI?IAP_WRITE_BYTE?ZF_DRIVER_EEPROM
   *DEL*:           000006H   BYTE   UNIT     XDATA          ?XD?IAP_READ_BUFF?ZF_DRIVER_EEPROM
   *DEL*:           000006H   BYTE   UNIT     XDATA          ?XD?IAP_WRITE_BUFF?ZF_DRIVER_EEPROM
   *DEL*:           000000H.1 BIT    UNIT     BIT            ?BI?IAP_ERASE_PAGE?ZF_DRIVER_EEPROM
   *DEL*:           000206H   BYTE   UNIT     XDATA          ?XD?EXTERN_IAP_WRITE_BUFF?ZF_DRIVER_EEPROM
   *DEL*:           00008FH   BYTE   INSEG    CODE           ?PR?ENCODER_GET_COUNT?ZF_DRIVER_ENCODER
   *DEL*:           0000B0H   BYTE   INSEG    CODE           ?PR?ENCODER_DIR_INIT?ZF_DRIVER_ENCODER
   *DEL*:           000083H   BYTE   INSEG    CODE           ?PR?ENCODER_CLEAR_COUNT?ZF_DRIVER_ENCODER
   *DEL*:           000002H   BYTE   UNIT     XDATA          ?XD?ENCODER_DIR_INIT?ZF_DRIVER_ENCODER
   *DEL*:           000018H   BYTE   INSEG    CODE           ?PR?GPIO_TOGGLE_LEVEL?ZF_DRIVER_GPIO
   *DEL*:           0001BDH   BYTE   INSEG    CODE           ?PR?PIT_INIT?ZF_DRIVER_PIT
   *DEL*:           0000FEH   BYTE   INSEG    CODE           ?PR?PWM_SET_FREQ?ZF_DRIVER_PWM
   *DEL*:           0000C4H   BYTE   INSEG    CODE           ?PR?PWM_SET_DUTY?ZF_DRIVER_PWM
   *DEL*:           000004H   BYTE   UNIT     XDATA          ?XD?PWM_SET_FREQ?ZF_DRIVER_PWM
   *DEL*:           000036H   BYTE   INSEG    CODE           ?PR?SOFT_IIC_WRITE_8BIT_REGISTER?ZF_DRIVER_SOFT_IIC
   *DEL*:           0000BDH   BYTE   INSEG    CODE           ?PR?SOFT_IIC_READ_16BIT_REGISTERS?ZF_DRIVER_SOFT_IIC
   *DEL*:           00004DH   BYTE   INSEG    CODE           ?PR?SOFT_IIC_SCCB_READ_REGISTER?ZF_DRIVER_SOFT_IIC
   *DEL*:           000079H   BYTE   INSEG    CODE           ?PR?SOFT_IIC_READ_16BIT_REGISTER?ZF_DRIVER_SOFT_IIC
   *DEL*:           000101H   BYTE   INSEG    CODE           ?PR?SOFT_IIC_TRANSFER_16BIT_ARRAY?ZF_DRIVER_SOFT_IIC
   *DEL*:           00007FH   BYTE   INSEG    CODE           ?PR?SOFT_IIC_WRITE_16BIT_REGISTERS?ZF_DRIVER_SOFT_IIC
   *DEL*:           000036H   BYTE   INSEG    CODE           ?PR?SOFT_IIC_SCCB_WRITE_REGISTER?ZF_DRIVER_SOFT_IIC
   *DEL*:           00002BH   BYTE   INSEG    CODE           ?PR?SOFT_IIC_READ_8BIT?ZF_DRIVER_SOFT_IIC
   *DEL*:           000072H   BYTE   INSEG    CODE           ?PR?SOFT_IIC_READ_8BIT_ARRAY?ZF_DRIVER_SOFT_IIC
   *DEL*:           000056H   BYTE   INSEG    CODE           ?PR?SOFT_IIC_WRITE_16BIT_REGISTER?ZF_DRIVER_SOFT_IIC
   *DEL*:           000027H   BYTE   INSEG    CODE           ?PR?SOFT_IIC_WRITE_8BIT?ZF_DRIVER_SOFT_IIC
   *DEL*:           000057H   BYTE   INSEG    CODE           ?PR?SOFT_IIC_WRITE_8BIT_ARRAY?ZF_DRIVER_SOFT_IIC
   *DEL*:           00004BH   BYTE   INSEG    CODE           ?PR?SOFT_IIC_READ_16BIT?ZF_DRIVER_SOFT_IIC
   *DEL*:           000099H   BYTE   INSEG    CODE           ?PR?SOFT_IIC_READ_16BIT_ARRAY?ZF_DRIVER_SOFT_IIC
   *DEL*:           000043H   BYTE   INSEG    CODE           ?PR?SOFT_IIC_INIT?ZF_DRIVER_SOFT_IIC
   *DEL*:           00008FH   BYTE   INSEG    CODE           ?PR?SOFT_IIC_READ_8BIT_REGISTERS?ZF_DRIVER_SOFT_IIC
   *DEL*:           000038H   BYTE   INSEG    CODE           ?PR?SOFT_IIC_WRITE_16BIT?ZF_DRIVER_SOFT_IIC
   *DEL*:           00006BH   BYTE   INSEG    CODE           ?PR?SOFT_IIC_WRITE_16BIT_ARRAY?ZF_DRIVER_SOFT_IIC
   *DEL*:           000048H   BYTE   INSEG    CODE           ?PR?SOFT_IIC_READ_8BIT_REGISTER?ZF_DRIVER_SOFT_IIC
   *DEL*:           0000C3H   BYTE   INSEG    CODE           ?PR?SOFT_IIC_TRANSFER_8BIT_ARRAY?ZF_DRIVER_SOFT_IIC
   *DEL*:           000064H   BYTE   INSEG    CODE           ?PR?SOFT_IIC_WRITE_8BIT_REGISTERS?ZF_DRIVER_SOFT_IIC
   *DEL*:           000001H   BYTE   UNIT     XDATA          ?XD?SOFT_IIC_WRITE_8BIT?ZF_DRIVER_SOFT_IIC
L251 LINKER/LOCATER V4.66.93.0                                                        01/16/2025  23:25:20  PAGE 8


   *DEL*:           000008H   BYTE   UNIT     XDATA          ?XD?SOFT_IIC_WRITE_8BIT_ARRAY?ZF_DRIVER_SOFT_IIC
   *DEL*:           000002H   BYTE   UNIT     XDATA          ?XD?SOFT_IIC_WRITE_16BIT?ZF_DRIVER_SOFT_IIC
   *DEL*:           000008H   BYTE   UNIT     XDATA          ?XD?SOFT_IIC_WRITE_16BIT_ARRAY?ZF_DRIVER_SOFT_IIC
   *DEL*:           000002H   BYTE   UNIT     XDATA          ?XD?SOFT_IIC_WRITE_8BIT_REGISTER?ZF_DRIVER_SOFT_IIC
   *DEL*:           000009H   BYTE   UNIT     XDATA          ?XD?SOFT_IIC_WRITE_8BIT_REGISTERS?ZF_DRIVER_SOFT_IIC
   *DEL*:           000004H   BYTE   UNIT     XDATA          ?XD?SOFT_IIC_WRITE_16BIT_REGISTER?ZF_DRIVER_SOFT_IIC
   *DEL*:           00000AH   BYTE   UNIT     XDATA          ?XD?SOFT_IIC_WRITE_16BIT_REGISTERS?ZF_DRIVER_SOFT_IIC
   *DEL*:           000001H   BYTE   UNIT     XDATA          ?XD?SOFT_IIC_READ_8BIT?ZF_DRIVER_SOFT_IIC
   *DEL*:           000008H   BYTE   UNIT     XDATA          ?XD?SOFT_IIC_READ_8BIT_ARRAY?ZF_DRIVER_SOFT_IIC
   *DEL*:           000002H   BYTE   UNIT     XDATA          ?XD?SOFT_IIC_READ_16BIT?ZF_DRIVER_SOFT_IIC
   *DEL*:           000008H   BYTE   UNIT     XDATA          ?XD?SOFT_IIC_READ_16BIT_ARRAY?ZF_DRIVER_SOFT_IIC
   *DEL*:           000002H   BYTE   UNIT     XDATA          ?XD?SOFT_IIC_READ_8BIT_REGISTER?ZF_DRIVER_SOFT_IIC
   *DEL*:           000009H   BYTE   UNIT     XDATA          ?XD?SOFT_IIC_READ_8BIT_REGISTERS?ZF_DRIVER_SOFT_IIC
   *DEL*:           000004H   BYTE   UNIT     XDATA          ?XD?SOFT_IIC_READ_16BIT_REGISTER?ZF_DRIVER_SOFT_IIC
   *DEL*:           00000AH   BYTE   UNIT     XDATA          ?XD?SOFT_IIC_READ_16BIT_REGISTERS?ZF_DRIVER_SOFT_IIC
   *DEL*:           000010H   BYTE   UNIT     XDATA          ?XD?SOFT_IIC_TRANSFER_8BIT_ARRAY?ZF_DRIVER_SOFT_IIC
   *DEL*:           000010H   BYTE   UNIT     XDATA          ?XD?SOFT_IIC_TRANSFER_16BIT_ARRAY?ZF_DRIVER_SOFT_IIC
   *DEL*:           000002H   BYTE   UNIT     XDATA          ?XD?SOFT_IIC_SCCB_WRITE_REGISTER?ZF_DRIVER_SOFT_IIC
   *DEL*:           000002H   BYTE   UNIT     XDATA          ?XD?SOFT_IIC_SCCB_READ_REGISTER?ZF_DRIVER_SOFT_IIC
   *DEL*:           000004H   BYTE   UNIT     XDATA          ?XD?SOFT_IIC_INIT?ZF_DRIVER_SOFT_IIC
   *DEL*:           000079H   BYTE   INSEG    CODE           ?PR?SPI_READ_16BIT_REGISTERS?ZF_DRIVER_SPI
   *DEL*:           00002DH   BYTE   INSEG    CODE           ?PR?SPI_READ_16BIT_REGISTER?ZF_DRIVER_SPI
   *DEL*:           0000ACH   BYTE   INSEG    CODE           ?PR?SPI_TRANSFER_16BIT?ZF_DRIVER_SPI
   *DEL*:           00004EH   BYTE   INSEG    CODE           ?PR?SPI_WRITE_16BIT_REGISTERS?ZF_DRIVER_SPI
   *DEL*:           000004H   BYTE   INSEG    CODE           ?PR?SPI_READ_8BIT?ZF_DRIVER_SPI
   *DEL*:           000037H   BYTE   INSEG    CODE           ?PR?SPI_READ_8BIT_ARRAY?ZF_DRIVER_SPI
   *DEL*:           000033H   BYTE   INSEG    CODE           ?PR?SPI_WRITE_16BIT_REGISTER?ZF_DRIVER_SPI
   *DEL*:           000003H   BYTE   INSEG    CODE           ?PR?SPI_WRITE_8BIT?ZF_DRIVER_SPI
   *DEL*:           000036H   BYTE   INSEG    CODE           ?PR?SPI_WRITE_8BIT_ARRAY?ZF_DRIVER_SPI
   *DEL*:           00001DH   BYTE   INSEG    CODE           ?PR?SPI_READ_16BIT?ZF_DRIVER_SPI
   *DEL*:           000051H   BYTE   INSEG    CODE           ?PR?SPI_READ_16BIT_ARRAY?ZF_DRIVER_SPI
   *DEL*:           000015H   BYTE   INSEG    CODE           ?PR?SPI_WRITE_16BIT?ZF_DRIVER_SPI
   *DEL*:           000044H   BYTE   INSEG    CODE           ?PR?SPI_WRITE_16BIT_ARRAY?ZF_DRIVER_SPI
   *DEL*:           000077H   BYTE   INSEG    CODE           ?PR?SPI_TRANSFER_8BIT?ZF_DRIVER_SPI
   *DEL*:           00003CH   BYTE   INSEG    CODE           ?PR?SPI_WRITE_8BIT_REGISTERS?ZF_DRIVER_SPI
   *DEL*:           000006H   BYTE   UNIT     XDATA          ?XD?SPI_WRITE_8BIT_ARRAY?ZF_DRIVER_SPI
   *DEL*:           000006H   BYTE   UNIT     XDATA          ?XD?SPI_WRITE_16BIT_ARRAY?ZF_DRIVER_SPI
   *DEL*:           000006H   BYTE   UNIT     XDATA          ?XD?SPI_WRITE_8BIT_REGISTERS?ZF_DRIVER_SPI
   *DEL*:           000002H   BYTE   UNIT     XDATA          ?XD?SPI_WRITE_16BIT_REGISTER?ZF_DRIVER_SPI
   *DEL*:           000008H   BYTE   UNIT     XDATA          ?XD?SPI_WRITE_16BIT_REGISTERS?ZF_DRIVER_SPI
   *DEL*:           000006H   BYTE   UNIT     XDATA          ?XD?SPI_READ_8BIT_ARRAY?ZF_DRIVER_SPI
   *DEL*:           000006H   BYTE   UNIT     XDATA          ?XD?SPI_READ_16BIT_ARRAY?ZF_DRIVER_SPI
   *DEL*:           000008H   BYTE   UNIT     XDATA          ?XD?SPI_READ_16BIT_REGISTERS?ZF_DRIVER_SPI
   *DEL*:           00000AH   BYTE   UNIT     XDATA          ?XD?SPI_TRANSFER_8BIT?ZF_DRIVER_SPI
   *DEL*:           00000AH   BYTE   UNIT     XDATA          ?XD?SPI_TRANSFER_16BIT?ZF_DRIVER_SPI
   *DEL*:           000031H   BYTE   INSEG    CODE           ?PR?TIMER_FUNCITON_CHECK?ZF_DRIVER_TIMER
   *DEL*:           00004AH   BYTE   INSEG    CODE           ?PR?UART_WRITE_STRING?ZF_DRIVER_UART
   *DEL*:           00003DH   BYTE   INSEG    CODE           ?PR?UART_READ_BYTE?ZF_DRIVER_UART
   *DEL*:           000031H   BYTE   INSEG    CODE           ?PR?UART_FUNCITON_CHECK?ZF_DRIVER_UART
   *DEL*:           000104H   BYTE   UNIT     XDATA          ?XD?UART_WRITE_STRING?ZF_DRIVER_UART
   *DEL*:           00000DH   BYTE   INSEG    CODE           ?PR?SET_TOF_TYPE?ZF_DEVICE_TYPE
   *DEL*:           00003AH   BYTE   INSEG    CODE           ?PR?SET_GPS_TYPE?ZF_DEVICE_TYPE
   *DEL*:           00003AH   BYTE   INSEG    CODE           ?PR?SET_WIRELESS_TYPE?ZF_DEVICE_TYPE
   *DEL*:           000095H   BYTE   INSEG    CODE           ?PR?TFT180_SET_REGION?ZF_DEVICE_TFT180
   *DEL*:           0002CEH   BYTE   INSEG    CODE           ?PR?TFT180_INIT?ZF_DEVICE_TFT180
   *DEL*:           00015AH   BYTE   INSEG    CODE           ?PR?TFT180_SHOW_FLOAT?ZF_DEVICE_TFT180
   *DEL*:           000015H   BYTE   INSEG    CODE           ?PR?TFT180_DRAW_POINT?ZF_DEVICE_TFT180
   *DEL*:           00005AH   BYTE   INSEG    CODE           ?PR?TFT180_SHOW_STRING?ZF_DEVICE_TFT180
   *DEL*:           00008EH   BYTE   INSEG    CODE           ?PR?TFT180_SHOW_CHAR?ZF_DEVICE_TFT180
   *DEL*:           000088H   BYTE   INSEG    CODE           ?PR?TFT180_SHOW_UINT16?ZF_DEVICE_TFT180
   *DEL*:           00000DH   BYTE   INSEG    CODE           ?PR?TFT180_SET_COLOR?ZF_DEVICE_TFT180
   *DEL*:           0000C0H   BYTE   INSEG    CODE           ?PR?TFT180_SHOW_INT32?ZF_DEVICE_TFT180
   *DEL*:           0000DDH   BYTE   INSEG    CODE           ?PR?TFT180_SHOW_INT16?ZF_DEVICE_TFT180
   *DEL*:           00015CH   BYTE   INSEG    CODE           ?PR?TFT180_SHOW_WAVE?ZF_DEVICE_TFT180
   *DEL*:           000023H   BYTE   INSEG    CODE           ?PR?TFT180_SET_DIR?ZF_DEVICE_TFT180
L251 LINKER/LOCATER V4.66.93.0                                                        01/16/2025  23:25:20  PAGE 9


   *DEL*:           000063H   BYTE   INSEG    CODE           ?PR?TFT180_CLEAR?ZF_DEVICE_TFT180
   *DEL*:           000074H   BYTE   INSEG    CODE           ?PR?TFT180_SHOW_UINT8?ZF_DEVICE_TFT180
   *DEL*:           0000A9H   BYTE   INSEG    CODE           ?PR?TFT180_SHOW_INT8?ZF_DEVICE_TFT180
   *DEL*:           000012H   BYTE   INSEG    CODE           ?PR?TFT180_WRITE_INDEX?ZF_DEVICE_TFT180
   *DEL*:           000004H   BYTE   UNIT     XDATA          ?XD?TFT180_SET_REGION?ZF_DEVICE_TFT180
   *DEL*:           000004H   BYTE   UNIT     XDATA          ?XD?TFT180_CLEAR?ZF_DEVICE_TFT180
   *DEL*:           000004H   BYTE   UNIT     XDATA          ?XD?TFT180_SHOW_CHAR?ZF_DEVICE_TFT180
   *DEL*:           000006H   BYTE   UNIT     XDATA          ?XD?TFT180_SHOW_STRING?ZF_DEVICE_TFT180
   *DEL*:           000005H   BYTE   UNIT     XDATA          ?XD?TFT180_SHOW_INT8?ZF_DEVICE_TFT180
   *DEL*:           000004H   BYTE   UNIT     XDATA          ?XD?TFT180_SHOW_UINT8?ZF_DEVICE_TFT180
   *DEL*:           000008H   BYTE   UNIT     XDATA          ?XD?TFT180_SHOW_INT16?ZF_DEVICE_TFT180
   *DEL*:           000006H   BYTE   UNIT     XDATA          ?XD?TFT180_SHOW_UINT16?ZF_DEVICE_TFT180
   *DEL*:           000028H   BYTE   UNIT     XDATA          ?XD?TFT180_SHOW_INT32?ZF_DEVICE_TFT180
   *DEL*:           000031H   BYTE   UNIT     XDATA          ?XD?TFT180_SHOW_FLOAT?ZF_DEVICE_TFT180
   *DEL*:           00001CH   BYTE   UNIT     XDATA          ?XD?TFT180_SHOW_WAVE?ZF_DEVICE_TFT180
   *DEL*:           00015AH   BYTE   INSEG    CODE           ?PR?IPS114_SHOW_FLOAT?ZF_DEVICE_IPS114
   *DEL*:           000015H   BYTE   INSEG    CODE           ?PR?IPS114_DRAW_POINT?ZF_DEVICE_IPS114
   *DEL*:           00005AH   BYTE   INSEG    CODE           ?PR?IPS114_SHOW_STRING?ZF_DEVICE_IPS114
   *DEL*:           00008EH   BYTE   INSEG    CODE           ?PR?IPS114_SHOW_CHAR?ZF_DEVICE_IPS114
   *DEL*:           000088H   BYTE   INSEG    CODE           ?PR?IPS114_SHOW_UINT16?ZF_DEVICE_IPS114
   *DEL*:           00000DH   BYTE   INSEG    CODE           ?PR?IPS114_SET_COLOR?ZF_DEVICE_IPS114
   *DEL*:           0000C0H   BYTE   INSEG    CODE           ?PR?IPS114_SHOW_INT32?ZF_DEVICE_IPS114
   *DEL*:           0000DDH   BYTE   INSEG    CODE           ?PR?IPS114_SHOW_INT16?ZF_DEVICE_IPS114
   *DEL*:           00015CH   BYTE   INSEG    CODE           ?PR?IPS114_SHOW_WAVE?ZF_DEVICE_IPS114
   *DEL*:           000023H   BYTE   INSEG    CODE           ?PR?IPS114_SET_DIR?ZF_DEVICE_IPS114
   *DEL*:           00013AH   BYTE   INSEG    CODE           ?PR?IPS114_SHOW_CHINESE?ZF_DEVICE_IPS114
   *DEL*:           000057H   BYTE   INSEG    CODE           ?PR?IPS114_CLEAR?ZF_DEVICE_IPS114
   *DEL*:           000074H   BYTE   INSEG    CODE           ?PR?IPS114_SHOW_UINT8?ZF_DEVICE_IPS114
   *DEL*:           0000A9H   BYTE   INSEG    CODE           ?PR?IPS114_SHOW_INT8?ZF_DEVICE_IPS114
   *DEL*:           000012H   BYTE   INSEG    CODE           ?PR?IPS114_WRITE_INDEX?ZF_DEVICE_IPS114
   *DEL*:           000113H   BYTE   INSEG    CODE           ?PR?IPS114_SET_REGION?ZF_DEVICE_IPS114
   *DEL*:           000223H   BYTE   INSEG    CODE           ?PR?IPS114_INIT?ZF_DEVICE_IPS114
   *DEL*:           000004H   BYTE   UNIT     XDATA          ?XD?IPS114_SET_REGION?ZF_DEVICE_IPS114
   *DEL*:           000002H   BYTE   UNIT     XDATA          ?XD?IPS114_CLEAR?ZF_DEVICE_IPS114
   *DEL*:           000004H   BYTE   UNIT     XDATA          ?XD?IPS114_SHOW_CHAR?ZF_DEVICE_IPS114
   *DEL*:           000006H   BYTE   UNIT     XDATA          ?XD?IPS114_SHOW_STRING?ZF_DEVICE_IPS114
   *DEL*:           000005H   BYTE   UNIT     XDATA          ?XD?IPS114_SHOW_INT8?ZF_DEVICE_IPS114
   *DEL*:           000004H   BYTE   UNIT     XDATA          ?XD?IPS114_SHOW_UINT8?ZF_DEVICE_IPS114
   *DEL*:           000008H   BYTE   UNIT     XDATA          ?XD?IPS114_SHOW_INT16?ZF_DEVICE_IPS114
   *DEL*:           000006H   BYTE   UNIT     XDATA          ?XD?IPS114_SHOW_UINT16?ZF_DEVICE_IPS114
   *DEL*:           000028H   BYTE   UNIT     XDATA          ?XD?IPS114_SHOW_INT32?ZF_DEVICE_IPS114
   *DEL*:           000031H   BYTE   UNIT     XDATA          ?XD?IPS114_SHOW_FLOAT?ZF_DEVICE_IPS114
   *DEL*:           00001CH   BYTE   UNIT     XDATA          ?XD?IPS114_SHOW_WAVE?ZF_DEVICE_IPS114
   *DEL*:           000011H   BYTE   UNIT     XDATA          ?XD?IPS114_SHOW_CHINESE?ZF_DEVICE_IPS114
   *DEL*:           00015AH   BYTE   INSEG    CODE           ?PR?IPS200_SHOW_FLOAT?ZF_DEVICE_IPS200
   *DEL*:           000015H   BYTE   INSEG    CODE           ?PR?IPS200_DRAW_POINT?ZF_DEVICE_IPS200
   *DEL*:           00005AH   BYTE   INSEG    CODE           ?PR?IPS200_SHOW_STRING?ZF_DEVICE_IPS200
   *DEL*:           00008EH   BYTE   INSEG    CODE           ?PR?IPS200_SHOW_CHAR?ZF_DEVICE_IPS200
   *DEL*:           000088H   BYTE   INSEG    CODE           ?PR?IPS200_SHOW_UINT16?ZF_DEVICE_IPS200
   *DEL*:           00000DH   BYTE   INSEG    CODE           ?PR?IPS200_SET_COLOR?ZF_DEVICE_IPS200
   *DEL*:           0000C0H   BYTE   INSEG    CODE           ?PR?IPS200_SHOW_INT32?ZF_DEVICE_IPS200
   *DEL*:           0000DDH   BYTE   INSEG    CODE           ?PR?IPS200_SHOW_INT16?ZF_DEVICE_IPS200
   *DEL*:           00015CH   BYTE   INSEG    CODE           ?PR?IPS200_SHOW_WAVE?ZF_DEVICE_IPS200
   *DEL*:           000007H   BYTE   INSEG    CODE           ?PR?IPS200_SET_DIR?ZF_DEVICE_IPS200
   *DEL*:           00013AH   BYTE   INSEG    CODE           ?PR?IPS200_SHOW_CHINESE?ZF_DEVICE_IPS200
   *DEL*:           000057H   BYTE   INSEG    CODE           ?PR?IPS200_CLEAR?ZF_DEVICE_IPS200
   *DEL*:           000074H   BYTE   INSEG    CODE           ?PR?IPS200_SHOW_UINT8?ZF_DEVICE_IPS200
   *DEL*:           0000A9H   BYTE   INSEG    CODE           ?PR?IPS200_SHOW_INT8?ZF_DEVICE_IPS200
   *DEL*:           000012H   BYTE   INSEG    CODE           ?PR?IPS200_WRITE_INDEX?ZF_DEVICE_IPS200
   *DEL*:           000048H   BYTE   INSEG    CODE           ?PR?IPS200_SET_REGION?ZF_DEVICE_IPS200
   *DEL*:           000223H   BYTE   INSEG    CODE           ?PR?IPS200_INIT?ZF_DEVICE_IPS200
   *DEL*:           000004H   BYTE   UNIT     XDATA          ?XD?IPS200_SET_REGION?ZF_DEVICE_IPS200
   *DEL*:           000002H   BYTE   UNIT     XDATA          ?XD?IPS200_CLEAR?ZF_DEVICE_IPS200
   *DEL*:           000004H   BYTE   UNIT     XDATA          ?XD?IPS200_SHOW_CHAR?ZF_DEVICE_IPS200
   *DEL*:           000006H   BYTE   UNIT     XDATA          ?XD?IPS200_SHOW_STRING?ZF_DEVICE_IPS200
L251 LINKER/LOCATER V4.66.93.0                                                        01/16/2025  23:25:20  PAGE 10


   *DEL*:           000005H   BYTE   UNIT     XDATA          ?XD?IPS200_SHOW_INT8?ZF_DEVICE_IPS200
   *DEL*:           000004H   BYTE   UNIT     XDATA          ?XD?IPS200_SHOW_UINT8?ZF_DEVICE_IPS200
   *DEL*:           000008H   BYTE   UNIT     XDATA          ?XD?IPS200_SHOW_INT16?ZF_DEVICE_IPS200
   *DEL*:           000006H   BYTE   UNIT     XDATA          ?XD?IPS200_SHOW_UINT16?ZF_DEVICE_IPS200
   *DEL*:           000028H   BYTE   UNIT     XDATA          ?XD?IPS200_SHOW_INT32?ZF_DEVICE_IPS200
   *DEL*:           000031H   BYTE   UNIT     XDATA          ?XD?IPS200_SHOW_FLOAT?ZF_DEVICE_IPS200
   *DEL*:           00001CH   BYTE   UNIT     XDATA          ?XD?IPS200_SHOW_WAVE?ZF_DEVICE_IPS200
   *DEL*:           000011H   BYTE   UNIT     XDATA          ?XD?IPS200_SHOW_CHINESE?ZF_DEVICE_IPS200
   *DEL*:           00003CH   BYTE   INSEG    CODE           ?PR?DL1A_TIMEOUT_MICROSECONDS_TO_MCLKS?ZF_DEVICE_DL1A
   *DEL*:           00003EH   BYTE   INSEG    CODE           ?PR?DL1A_TIMEOUT_MCLKS_TO_MICROSECONDS?ZF_DEVICE_DL1A
   *DEL*:           00003FH   BYTE   INSEG    CODE           ?PR?DL1A_SET_SIGNAL_RATE_LIMIT?ZF_DEVICE_DL1A
   *DEL*:           000010H   BYTE   INSEG    CODE           ?PR?DL1A_DECODE_TIMEOUT?ZF_DEVICE_DL1A
   *DEL*:           000230H   BYTE   INSEG    CODE           ?PR?DL1A_GET_SPAD_INFO?ZF_DEVICE_DL1A
   *DEL*:           000034H   BYTE   INSEG    CODE           ?PR?DL1A_ENCODE_TIMEOUT?ZF_DEVICE_DL1A
   *DEL*:           000066H   BYTE   INSEG    CODE           ?PR?DL1A_GET_SEQUENCE_STEP_ENABLES?ZF_DEVICE_DL1A
   *DEL*:           0000C4H   BYTE   INSEG    CODE           ?PR?DL1A_GET_DISTANCE?ZF_DEVICE_DL1A
   *DEL*:           0000B9H   BYTE   INSEG    CODE           ?PR?DL1A_PERFORM_SINGLE_REF_CALIBRATION?ZF_DEVICE_DL1A
   *DEL*:           000128H   BYTE   INSEG    CODE           ?PR?DL1A_GET_SEQUENCE_STEP_TIMEOUTS?ZF_DEVICE_DL1A
   *DEL*:           000001H   BYTE   INSEG    CODE           ?PR?DL1A_INT_HANDLER?ZF_DEVICE_DL1A
   *DEL*:           00009DH   BYTE   INSEG    CODE           ?PR?DL1A_GET_MEASUREMENT_TIMING_BUDGET?ZF_DEVICE_DL1A
   *DEL*:           000171H   BYTE   INSEG    CODE           ?PR?DL1A_SET_MEASUREMENT_TIMING_BUDGET?ZF_DEVICE_DL1A
   *DEL*:           0004A9H   BYTE   INSEG    CODE           ?PR?DL1A_INIT?ZF_DEVICE_DL1A
   *DEL*:           000078H   BYTE   INSEG    CODE           ?PR?DL1A_GET_VCSEL_PULSE_PERIOD?ZF_DEVICE_DL1A
   *DEL*:           000008H   BYTE   UNIT     XDATA          ?XD?DL1A_GET_SPAD_INFO?ZF_DEVICE_DL1A
   *DEL*:           000001H   BYTE   UNIT     XDATA          ?XD?DL1A_GET_SEQUENCE_STEP_ENABLES?ZF_DEVICE_DL1A
   *DEL*:           000001H   BYTE   UNIT     XDATA          ?XD?DL1A_GET_VCSEL_PULSE_PERIOD?ZF_DEVICE_DL1A
   *DEL*:           000008H   BYTE   UNIT     XDATA          ?XD?DL1A_GET_SEQUENCE_STEP_TIMEOUTS?ZF_DEVICE_DL1A
   *DEL*:           000003H   BYTE   UNIT     XDATA          ?XD?DL1A_PERFORM_SINGLE_REF_CALIBRATION?ZF_DEVICE_DL1A
   *DEL*:           000025H   BYTE   UNIT     XDATA          ?XD?DL1A_SET_MEASUREMENT_TIMING_BUDGET?ZF_DEVICE_DL1A
   *DEL*:           00001BH   BYTE   UNIT     XDATA          ?XD?DL1A_GET_MEASUREMENT_TIMING_BUDGET?ZF_DEVICE_DL1A
   *DEL*:           000003H   BYTE   UNIT     XDATA          ?XD?DL1A_SET_SIGNAL_RATE_LIMIT?ZF_DEVICE_DL1A
   *DEL*:           000003H   BYTE   UNIT     XDATA          ?XD?DL1A_GET_DISTANCE?ZF_DEVICE_DL1A
   *DEL*:           0000CAH   BYTE   UNIT     XDATA          ?XD?DL1A_INIT?ZF_DEVICE_DL1A
   *DEL*:           00003EH   BYTE   INSEG    CODE           ?PR?BLE6A20_READ_BUFFER?ZF_DEVICE_BLE6A20
   *DEL*:           000091H   BYTE   INSEG    CODE           ?PR?BLE6A20_SEND_BUFFER?ZF_DEVICE_BLE6A20
   *DEL*:           00010EH   BYTE   INSEG    CODE           ?PR?BLE6A20_SEND_STRING?ZF_DEVICE_BLE6A20
   *DEL*:           000025H   BYTE   INSEG    CODE           ?PR?BLE6A20_CALLBACK?ZF_DEVICE_BLE6A20
   *DEL*:           000080H   BYTE   INSEG    CODE           ?PR?BLE6A20_INIT?ZF_DEVICE_BLE6A20
   *DEL*:           00003CH   BYTE   INSEG    CODE           ?PR?BLE6A20_SEND_BYTE?ZF_DEVICE_BLE6A20
   *DEL*:           000006H   BYTE   UNIT     XDATA          ?XD?BLE6A20_SEND_BUFFER?ZF_DEVICE_BLE6A20
   *DEL*:           000086H   BYTE   UNIT     XDATA          ?XD?BLE6A20_SEND_STRING?ZF_DEVICE_BLE6A20
   *DEL*:           000004H   BYTE   UNIT     XDATA          ?XD?BLE6A20_READ_BUFFER?ZF_DEVICE_BLE6A20
   *DEL*:           000001H   BYTE   UNIT     XDATA          ?XD?BLE6A20_CALLBACK?ZF_DEVICE_BLE6A20
   *DEL*:           000091H   BYTE   INSEG    CODE           ?PR?WIRELESS_UART_SEND_BUFFER?ZF_DEVICE_WIRELESS_UART
   *DEL*:           00010EH   BYTE   INSEG    CODE           ?PR?WIRELESS_UART_SEND_STRING?ZF_DEVICE_WIRELESS_UART
   *DEL*:           000025H   BYTE   INSEG    CODE           ?PR?WIRELESS_UART_CALLBACK?ZF_DEVICE_WIRELESS_UART
   *DEL*:           000079H   BYTE   INSEG    CODE           ?PR?WIRELESS_UART_INIT?ZF_DEVICE_WIRELESS_UART
   *DEL*:           00003CH   BYTE   INSEG    CODE           ?PR?WIRELESS_UART_SEND_BYTE?ZF_DEVICE_WIRELESS_UART
   *DEL*:           00003EH   BYTE   INSEG    CODE           ?PR?WIRELESS_UART_READ_BUFFER?ZF_DEVICE_WIRELESS_UART
   *DEL*:           000006H   BYTE   UNIT     XDATA          ?XD?WIRELESS_UART_SEND_BUFFER?ZF_DEVICE_WIRELESS_UART
   *DEL*:           000024H   BYTE   UNIT     XDATA          ?XD?WIRELESS_UART_SEND_STRING?ZF_DEVICE_WIRELESS_UART
   *DEL*:           000004H   BYTE   UNIT     XDATA          ?XD?WIRELESS_UART_READ_BUFFER?ZF_DEVICE_WIRELESS_UART
   *DEL*:           000001H   BYTE   UNIT     XDATA          ?XD?WIRELESS_UART_CALLBACK?ZF_DEVICE_WIRELESS_UART
   *DEL*:           0000B6H   BYTE   INSEG    CODE           ?PR?MPU6050_INIT?ZF_DEVICE_MPU6050
   *DEL*:           000054H   BYTE   INSEG    CODE           ?PR?MPU6050_SELF1_CHECK?ZF_DEVICE_MPU6050
   *DEL*:           000062H   BYTE   INSEG    CODE           ?PR?MPU6050_GET_ACC?ZF_DEVICE_MPU6050
   *DEL*:           000010H   BYTE   INSEG    CODE           ?PR?MPU6050_ACC_TRANSITION?ZF_DEVICE_MPU6050
   *DEL*:           000062H   BYTE   INSEG    CODE           ?PR?MPU6050_GET_GYRO?ZF_DEVICE_MPU6050
   *DEL*:           000012H   BYTE   INSEG    CODE           ?PR?MPU6050_GYRO_TRANSITION?ZF_DEVICE_MPU6050
   *DEL*:           000006H   BYTE   UNIT     XDATA          ?XD?MPU6050_GET_ACC?ZF_DEVICE_MPU6050
   *DEL*:           000006H   BYTE   UNIT     XDATA          ?XD?MPU6050_GET_GYRO?ZF_DEVICE_MPU6050
   *DEL*:           000050H   BYTE   INSEG    CODE           ?PR?IMU660RA_GET_GYRO?ZF_DEVICE_IMU660RA
   *DEL*:           000039H   BYTE   INSEG    CODE           ?PR?IMU660RA_READ_REGISTER?ZF_DEVICE_IMU660RA
   *DEL*:           000045H   BYTE   INSEG    CODE           ?PR?IMU660RA_WRITE_REGISTERS?ZF_DEVICE_IMU660RA
   *DEL*:           000025H   BYTE   INSEG    CODE           ?PR?IMU660RA_WRITE_REGISTER?ZF_DEVICE_IMU660RA
L251 LINKER/LOCATER V4.66.93.0                                                        01/16/2025  23:25:20  PAGE 11


   *DEL*:           00003FH   BYTE   INSEG    CODE           ?PR?IMU660RA_SELF_CHECK?ZF_DEVICE_IMU660RA
   *DEL*:           0000FFH   BYTE   INSEG    CODE           ?PR?IMU660RA_INIT?ZF_DEVICE_IMU660RA
   *DEL*:           000050H   BYTE   INSEG    CODE           ?PR?IMU660RA_GET_ACC?ZF_DEVICE_IMU660RA
   *DEL*:           000096H   BYTE   INSEG    CODE           ?PR?IMU660RA_READ_REGISTERS?ZF_DEVICE_IMU660RA
   *DEL*:           000005H   BYTE   UNIT     XDATA          ?XD?IMU660RA_WRITE_REGISTERS?ZF_DEVICE_IMU660RA
   *DEL*:           000002H   BYTE   UNIT     XDATA          ?XD?IMU660RA_READ_REGISTER?ZF_DEVICE_IMU660RA
   *DEL*:           00000FH   BYTE   UNIT     XDATA          ?XD?IMU660RA_READ_REGISTERS?ZF_DEVICE_IMU660RA
   *DEL*:           000006H   BYTE   UNIT     XDATA          ?XD?IMU660RA_GET_ACC?ZF_DEVICE_IMU660RA
   *DEL*:           000006H   BYTE   UNIT     XDATA          ?XD?IMU660RA_GET_GYRO?ZF_DEVICE_IMU660RA
   *DEL*:           000050H   BYTE   INSEG    CODE           ?PR?IMU963RA_GET_GYRO?ZF_DEVICE_IMU963RA
   *DEL*:           000052H   BYTE   INSEG    CODE           ?PR?IMU963RA_READ_MAG_REGISTER?ZF_DEVICE_IMU963RA
   *DEL*:           00002CH   BYTE   INSEG    CODE           ?PR?IMU963RA_CONNECT_MAG?ZF_DEVICE_IMU963RA
   *DEL*:           000047H   BYTE   INSEG    CODE           ?PR?IMU963RA_READ_ACC_GYRO_REGISTERS?ZF_DEVICE_IMU963RA
   *DEL*:           000064H   BYTE   INSEG    CODE           ?PR?IMU963RA_WRITE_MAG_REGISTER?ZF_DEVICE_IMU963RA
   *DEL*:           000027H   BYTE   INSEG    CODE           ?PR?IMU963RA_READ_ACC_GYRO_REGISTER?ZF_DEVICE_IMU963RA
   *DEL*:           000030H   BYTE   INSEG    CODE           ?PR?IMU963RA_MAG_SELF_CHECK?ZF_DEVICE_IMU963RA
   *DEL*:           000025H   BYTE   INSEG    CODE           ?PR?IMU963RA_WRITE_ACC_GYRO_REGISTER?ZF_DEVICE_IMU963RA
   *DEL*:           00018AH   BYTE   INSEG    CODE           ?PR?IMU963RA_INIT?ZF_DEVICE_IMU963RA
   *DEL*:           00002DH   BYTE   INSEG    CODE           ?PR?IMU963RA_ACC_GYRO_SELF_CHECK?ZF_DEVICE_IMU963RA
   *DEL*:           000050H   BYTE   INSEG    CODE           ?PR?IMU963RA_GET_ACC?ZF_DEVICE_IMU963RA
   *DEL*:           000066H   BYTE   INSEG    CODE           ?PR?IMU963RA_GET_MAG?ZF_DEVICE_IMU963RA
   *DEL*:           000005H   BYTE   UNIT     XDATA          ?XD?IMU963RA_READ_ACC_GYRO_REGISTERS?ZF_DEVICE_IMU963RA
   *DEL*:           000002H   BYTE   UNIT     XDATA          ?XD?IMU963RA_WRITE_MAG_REGISTER?ZF_DEVICE_IMU963RA
   *DEL*:           000006H   BYTE   UNIT     XDATA          ?XD?IMU963RA_GET_ACC?ZF_DEVICE_IMU963RA
   *DEL*:           000006H   BYTE   UNIT     XDATA          ?XD?IMU963RA_GET_GYRO?ZF_DEVICE_IMU963RA
   *DEL*:           000006H   BYTE   UNIT     XDATA          ?XD?IMU963RA_GET_MAG?ZF_DEVICE_IMU963RA
   *DEL*:           00004FH   BYTE   INSEG    CODE           ?PR?GET_DOUBLE_NUMBER?ZF_DEVICE_GPS_TAU1201
   *DEL*:           000052H   BYTE   INSEG    CODE           ?PR?GET_FLOAT_NUMBER?ZF_DEVICE_GPS_TAU1201
   *DEL*:           0000B0H   BYTE   INSEG    CODE           ?PR?UTC_TO_BTC?ZF_DEVICE_GPS_TAU1201
   *DEL*:           0002B4H   BYTE   INSEG    CODE           ?PR?GET_TWO_POINTS_DISTANCE?ZF_DEVICE_GPS_TAU1201
   *DEL*:           0000C5H   BYTE   INSEG    CODE           ?PR?GPS_GNGGA_PARSE?ZF_DEVICE_GPS_TAU1201
   *DEL*:           0003B8H   BYTE   INSEG    CODE           ?PR?GPS_GNRMC_PARSE?ZF_DEVICE_GPS_TAU1201
   *DEL*:           000185H   BYTE   INSEG    CODE           ?PR?GPS_DATA_PARSE?ZF_DEVICE_GPS_TAU1201
   *DEL*:           00004FH   BYTE   INSEG    CODE           ?PR?GET_INT_NUMBER?ZF_DEVICE_GPS_TAU1201
   *DEL*:           00028DH   BYTE   INSEG    CODE           ?PR?GPS_INIT?ZF_DEVICE_GPS_TAU1201
   *DEL*:           000071H   BYTE   INSEG    CODE           ?PR?GET_PARAMETER_INDEX?ZF_DEVICE_GPS_TAU1201
   *DEL*:           0004D4H   BYTE   INSEG    CODE           ?PR?GET_TWO_POINTS_AZIMUTH?ZF_DEVICE_GPS_TAU1201
   *DEL*:           000181H   BYTE   INSEG    CODE           ?PR?GPS_UART_CALLBACK?ZF_DEVICE_GPS_TAU1201
   *DEL*:           000003H   BYTE   UNIT     XDATA          ?XD?GET_PARAMETER_INDEX?ZF_DEVICE_GPS_TAU1201
   *DEL*:           00000BH   BYTE   UNIT     XDATA          ?XD?GET_INT_NUMBER?ZF_DEVICE_GPS_TAU1201
   *DEL*:           000010H   BYTE   UNIT     XDATA          ?XD?GET_FLOAT_NUMBER?ZF_DEVICE_GPS_TAU1201
   *DEL*:           000010H   BYTE   UNIT     XDATA          ?XD?GET_DOUBLE_NUMBER?ZF_DEVICE_GPS_TAU1201
   *DEL*:           000025H   BYTE   UNIT     XDATA          ?XD?GPS_GNRMC_PARSE?ZF_DEVICE_GPS_TAU1201
   *DEL*:           000009H   BYTE   UNIT     XDATA          ?XD?GPS_GNGGA_PARSE?ZF_DEVICE_GPS_TAU1201
   *DEL*:           000058H   BYTE   UNIT     XDATA          ?XD?GET_TWO_POINTS_DISTANCE?ZF_DEVICE_GPS_TAU1201
   *DEL*:           000038H   BYTE   UNIT     XDATA          ?XD?GET_TWO_POINTS_AZIMUTH?ZF_DEVICE_GPS_TAU1201
   *DEL*:           000008H   BYTE   UNIT     XDATA          ?XD?GPS_DATA_PARSE?ZF_DEVICE_GPS_TAU1201
   *DEL*:           00000BH   BYTE   UNIT     XDATA          ?XD?GPS_UART_CALLBACK?ZF_DEVICE_GPS_TAU1201
   *DEL*:           000095H   BYTE   UNIT     XDATA          ?XD?GPS_INIT?ZF_DEVICE_GPS_TAU1201
   *DEL*:           00006EH   BYTE   INSEG    CODE           ?PR?TSL1401_SEND_DATA?ZF_DEVICE_TSL1401
   *DEL*:           00003CH   BYTE   INSEG    CODE           ?PR?TSL1401_INIT?ZF_DEVICE_TSL1401
   *DEL*:           000097H   BYTE   INSEG    CODE           ?PR?TSL1401_COLLECT_PIT_HANDLER?ZF_DEVICE_TSL1401
   *DEL*:           000332H   BYTE   INSEG    CODE           ?PR?SEEKFREE_ASSISTANT_CAMERA_BOUNDARY_CONFIG?SEEKFREE_ASS
                                                             -ISTANT
   *DEL*:           0000CAH   BYTE   INSEG    CODE           ?PR?SEEKFREE_ASSISTANT_CAMERA_DOT_SEND?SEEKFREE_ASSISTANT
   *DEL*:           0000CAH   BYTE   INSEG    CODE           ?PR?SEEKFREE_ASSISTANT_OSCILLOSCOPE_SEND?SEEKFREE_ASSISTAN
                                                             -T
   *DEL*:           00002DH   BYTE   INSEG    CODE           ?PR?SEEKFREE_ASSISTANT_INIT?SEEKFREE_ASSISTANT
   *DEL*:           000017H   BYTE   INSEG    CODE           ?PR?SEEKFREE_ASSISTANT_SUM?SEEKFREE_ASSISTANT
   *DEL*:           000035H   BYTE   INSEG    CODE           ?PR?SEEKFREE_ASSISTANT_CAMERA_INFORMATION_CONFIG?SEEKFREE_
                                                             -ASSISTANT
   *DEL*:           00019CH   BYTE   INSEG    CODE           ?PR?SEEKFREE_ASSISTANT_DATA_ANALYSIS?SEEKFREE_ASSISTANT
   *DEL*:           0000F8H   BYTE   INSEG    CODE           ?PR?SEEKFREE_ASSISTANT_CAMERA_DATA_SEND?SEEKFREE_ASSISTANT
   *DEL*:           00003FH   BYTE   INSEG    CODE           ?PR?SEEKFREE_ASSISTANT_CAMERA_SEND?SEEKFREE_ASSISTANT
   *DEL*:           00000AH   BYTE   UNIT     XDATA          ?XD?SEEKFREE_ASSISTANT_CAMERA_DATA_SEND?SEEKFREE_ASSISTANT
L251 LINKER/LOCATER V4.66.93.0                                                        01/16/2025  23:25:20  PAGE 12


   *DEL*:           000002H   BYTE   UNIT     XDATA          ?XD?SEEKFREE_ASSISTANT_CAMERA_INFORMATION_CONFIG?SEEKFREE_
                                                             -ASSISTANT
   *DEL*:           000024H   BYTE   UNIT     XDATA          ?XD?SEEKFREE_ASSISTANT_OSCILLOSCOPE_SEND?SEEKFREE_ASSISTAN
                                                             -T
   *DEL*:           000003H   BYTE   UNIT     XDATA          ?XD?SEEKFREE_ASSISTANT_CAMERA_DOT_SEND?SEEKFREE_ASSISTANT
   *DEL*:           000014H   BYTE   UNIT     XDATA          ?XD?SEEKFREE_ASSISTANT_CAMERA_BOUNDARY_CONFIG?SEEKFREE_ASS
                                                             -ISTANT
   *DEL*:           000085H   BYTE   UNIT     XDATA          ?XD?SEEKFREE_ASSISTANT_DATA_ANALYSIS?SEEKFREE_ASSISTANT
   *DEL*:           000000H.1 BIT    UNIT     BIT            ?BI?SEEKFREE_ASSISTANT_DATA_ANALYSIS?SEEKFREE_ASSISTANT
   *DEL*:           000041H   BYTE   INSEG    CODE           ?PR?SEEKFREE_ASSISTANT_INTERFACE_INIT?SEEKFREE_ASSISTANT_I
                                                             -NTERFACE
   *DEL*:           0003FBH   BYTE   INSEG    CODE           ?PR?ROCKER_READ?ROCKER
   *DEL*:           00019BH   BYTE   INSEG    CODE           ?PR?POW?_?POW
   *DEL*:           000037H   BYTE   INSEG    CODE           ?PR?STRNCMP?_?STRNCMP
   *DEL*:           000030H   BYTE   INSEG    CODE           ?PR?STRNCPY?_?STRNCPY
   *DEL*:           00000EH   BYTE   INSEG    CODE           ?PR?STRLEN?_?STRLEN
   *DEL*:           00001FH   BYTE   INSEG    CODE           ?PR?STRCHR?_?STRCHR
   *DEL*:           00001AH   BYTE   INSEG    CODE           ?PR?MEMSET?_?MEMSET



OVERLAY MAP OF MODULE:   .\out_file\SEEKFREE (ai8051u_isr)


FUNCTION/MODULE                               XDATA_GROUP
--> CALLED FUNCTION/MODULE                    START  STOP
=========================================================
TM11_IRQHandler/isr                           ----- -----

*** NEW ROOT ********************************

DMA_UART1_IRQHandler/isr                      ----- -----
  +--> uart_rx_start_buff/zf_driver_uart

uart_rx_start_buff/zf_driver_uart             ----- -----

*** NEW ROOT ********************************

DMA_UART2_IRQHandler/isr                      ----- -----
  +--> uart_rx_start_buff/zf_driver_uart

*** NEW ROOT ********************************

DMA_UART3_IRQHandler/isr                      ----- -----
  +--> uart_rx_start_buff/zf_driver_uart

*** NEW ROOT ********************************

DMA_UART4_IRQHandler/isr                      ----- -----
  +--> uart_rx_start_buff/zf_driver_uart

*** NEW ROOT ********************************

TM0_IRQHandler/isr                            ----- -----

*** NEW ROOT ********************************

TM1_IRQHandler/isr                            ----- -----

*** NEW ROOT ********************************

TM2_IRQHandler/isr                            ----- -----

*** NEW ROOT ********************************

L251 LINKER/LOCATER V4.66.93.0                                                        01/16/2025  23:25:20  PAGE 13


TM3_IRQHandler/isr                            ----- -----

*** NEW ROOT ********************************

TM4_IRQHandler/isr                            ----- -----

*** NEW ROOT ********************************

?C_C51STARTUP                                 ----- -----

*** NEW ROOT ********************************

?C_C51STARTUP?3                               ----- -----
  +--> main/main

main/main                                     ----- -----
  +--> clock_init/zf_common_clock
  +--> debug_init/zf_common_debug
  +--> pwm_init/zf_driver_pwm
  +--> rocker_init/rocker
  +--> icm20602_init/zf_device_icm20602
  +--> icm20602_get_acc/zf_device_icm20602
  +--> icm20602_get_gyro/zf_device_icm20602
  +--> PRINTF/PRINTF
  +--> system_delay_ms/zf_driver_delay

clock_init/zf_common_clock                    ----- -----
  +--> system_delay_init/zf_driver_delay
  +--> interrupt_global_enable/zf_common_interrupt

system_delay_init/zf_driver_delay             ----- -----
  +--> ?C?SLDIV/?C?SLDIV

?C?SLDIV/?C?SLDIV                             ----- -----
  +--> ?C?ULIDIV/?C?ULDIV

?C?ULIDIV/?C?ULDIV                            ----- -----

interrupt_global_enable/zf_common_interr+     ----- -----
... upt

debug_init/zf_common_debug                    ----- -----
  +--> uart_init/zf_driver_uart
  +--> fifo_init/zf_common_fifo
  +--> uart_rx_interrupt/zf_driver_uart
  +--> debug_interrupr_handler/zf_common_debug

uart_init/zf_driver_uart                      0616H 061BH
  +--> gpio_init/zf_driver_gpio
  +--> ?C?ULIDIV/?C?ULDIV
  +--> uart_dma_init/zf_driver_uart

gpio_init/zf_driver_gpio                      0626H 0626H
  +--> gpio_set_impedance/zf_driver_gpio
  +--> gpio_set_dir/zf_driver_gpio
  +--> gpio_set_mode/zf_driver_gpio
  +--> gpio_set_level/zf_driver_gpio

gpio_set_impedance/zf_driver_gpio             ----- -----

gpio_set_dir/zf_driver_gpio                   ----- -----

gpio_set_mode/zf_driver_gpio                  ----- -----

gpio_set_level/zf_driver_gpio                 ----- -----
L251 LINKER/LOCATER V4.66.93.0                                                        01/16/2025  23:25:20  PAGE 14



uart_dma_init/zf_driver_uart                  ----- -----

fifo_init/zf_common_fifo                      0616H 061DH

uart_rx_interrupt/zf_driver_uart              ----- -----

debug_interrupr_handler/zf_common_debug       0616H 0616H
  +--> uart_query_byte/zf_driver_uart
  +--> fifo_write_buffer/zf_common_fifo

uart_query_byte/zf_driver_uart                ----- -----
  +--> uart_rx_start_buff/zf_driver_uart

fifo_write_buffer/zf_common_fifo              0617H 0624H
  +--> memcpy?_/memcpy
  +--> fifo_head_offset/zf_common_fifo

memcpy?_/memcpy                               ----- -----

fifo_head_offset/zf_common_fifo               ----- -----

pwm_init/zf_driver_pwm                        0616H 0623H
  +--> gpio_init/zf_driver_gpio
  +--> ?C?ULIDIV/?C?ULDIV

rocker_init/rocker                            ----- -----
  +--> adc_init/zf_driver_adc

adc_init/zf_driver_adc                        ----- -----

icm20602_init/zf_device_icm20602              ----- -----
  +--> system_delay_ms/zf_driver_delay
  +--> spi_init/zf_driver_spi
  +--> gpio_init/zf_driver_gpio
  +--> icm20602_self_check/zf_device_icm20602
  +--> PRINTF/PRINTF
  +--> icm20602_write_register/zf_device_icm20602
  +--> icm20602_read_register/zf_device_icm20602

system_delay_ms/zf_driver_delay               ----- -----

spi_init/zf_driver_spi                        0616H 0625H
  +--> gpio_init/zf_driver_gpio
  +--> gpio_set_level_speed/zf_driver_gpio
  +--> ?C?ULIDIV/?C?ULDIV

gpio_set_level_speed/zf_driver_gpio           ----- -----

icm20602_self_check/zf_device_icm20602        ----- -----
  +--> icm20602_read_register/zf_device_icm20602
  +--> system_delay_ms/zf_driver_delay

icm20602_read_register/zf_device_icm2060+     ----- -----
... 2
  +--> gpio_set_level/zf_driver_gpio
  +--> spi_read_8bit_register/zf_driver_spi

spi_read_8bit_register/zf_driver_spi          ----- -----
  +--> spi_write_dat/zf_driver_spi
  +--> spi_read_dat/zf_driver_spi

spi_write_dat/zf_driver_spi                   ----- -----

spi_read_dat/zf_driver_spi                    ----- -----
L251 LINKER/LOCATER V4.66.93.0                                                        01/16/2025  23:25:20  PAGE 15



PRINTF/PRINTF                                 0616H 063DH
  +--> OUT/PRINTF

OUT/PRINTF                                    ----- -----
  +--> PUTCH/PRINTF

PUTCH/PRINTF                                  ----- -----
  +--> putchar/zf_common_debug
  +--> OUT/PRINTF

putchar/zf_common_debug                       ----- -----
  +--> uart_write_byte/zf_driver_uart

uart_write_byte/zf_driver_uart                063EH 063EH
  +--> uart_write_buffer/zf_driver_uart

uart_write_buffer/zf_driver_uart              ----- -----

icm20602_write_register/zf_device_icm206+     ----- -----
... 02
  +--> gpio_set_level/zf_driver_gpio
  +--> spi_write_8bit_register/zf_driver_spi

spi_write_8bit_register/zf_driver_spi         ----- -----
  +--> spi_write_dat/zf_driver_spi

icm20602_get_acc/zf_device_icm20602           0616H 061BH
  +--> icm20602_read_registers/zf_device_icm20602

icm20602_read_registers/zf_device_icm206+     061CH 0620H
... 02
  +--> gpio_set_level/zf_driver_gpio
  +--> spi_read_8bit_registers/zf_driver_spi

spi_read_8bit_registers/zf_driver_spi         0621H 0626H
  +--> spi_write_dat/zf_driver_spi
  +--> spi_read_dat/zf_driver_spi

icm20602_get_gyro/zf_device_icm20602          0616H 061BH
  +--> icm20602_read_registers/zf_device_icm20602

*** NEW ROOT ********************************

?C_C51STARTUP?2                               ----- -----



PUBLIC SYMBOLS OF MODULE:  .\out_file\SEEKFREE (ai8051u_isr)


      VALUE       CLASS    TYPE      PUBLIC SYMBOL NAME
      =================================================
      00FF38F9H   CODE     ---       ?C?BMOVEPP
      00FF38F7H   CODE     ---       ?C?BMOVEPP8
      00FF259FH   CODE     NEAR LAB  ?C?CASTD
      00FF37E7H   CODE     NEAR LAB  ?C?CASTF
      000000FFH   NUMBER   ---       ?C?CODESEG
      00FF255CH   CODE     NEAR LAB  ?C?DCASTC
      00FF25FFH   CODE     NEAR LAB  ?C?DCASTF
      00FF2557H   CODE     NEAR LAB  ?C?DCASTI
      00FF2552H   CODE     NEAR LAB  ?C?DCASTL
      00FF2FB3H   CODE     ---       ?C?DP2SERIES
      00FF2225H   CODE     ---       ?C?DPADD
      00FF24E5H   CODE     ---       ?C?DPCMP
L251 LINKER/LOCATER V4.66.93.0                                                        01/16/2025  23:25:20  PAGE 16


      00FF24E3H   CODE     ---       ?C?DPCMP3
      00FF329EH   CODE     ---       ?C?DPCONVERT
      00FF2444H   CODE     ---       ?C?DPDIV
      00FF2AD5H   CODE     ---       ?C?DPGETOPN2
      00FF2334H   CODE     ---       ?C?DPMUL
      00FF2B20H   CODE     ---       ?C?DPNANRESULT
      00FF2544H   CODE     ---       ?C?DPNEG
      00FF2B2CH   CODE     ---       ?C?DPOVERFLOW
      00FF2AF8H   CODE     ---       ?C?DPRESULT
      00FF2B11H   CODE     ---       ?C?DPRESULT2
      00FF33C5H   CODE     ---       ?C?DPROUND
      00FF2FBEH   CODE     ---       ?C?DPSERIES
      00FF2221H   CODE     ---       ?C?DPSUB
      00FF2B27H   CODE     ---       ?C?DPUNDERFLOW
      00FF34A0H   CODE     ---       ?C?DTNPWR
      00FF37B4H   CODE     NEAR LAB  ?C?FCASTC
      00FF2641H   CODE     NEAR LAB  ?C?FCASTD
      00FF37AFH   CODE     NEAR LAB  ?C?FCASTI
      00FF37AAH   CODE     NEAR LAB  ?C?FCASTL
      00FF357DH   CODE     ---       ?C?FPADD
      00FF3758H   CODE     ---       ?C?FPCMP
      00FF3756H   CODE     ---       ?C?FPCMP3
      00FF36D5H   CODE     ---       ?C?FPDIV
      00FF3526H   CODE     ---       ?C?FPGETOPN2
      00FF3635H   CODE     ---       ?C?FPMUL
      00FF3563H   CODE     ---       ?C?FPNANRESULT
      00FF379CH   CODE     ---       ?C?FPNEG
      00FF356BH   CODE     ---       ?C?FPOVERFLOW
      00FF353FH   CODE     ---       ?C?FPRESULT
      00FF3555H   CODE     ---       ?C?FPRESULT2
      00FF357AH   CODE     ---       ?C?FPSUB
      00FF3568H   CODE     ---       ?C?FPUNDERFLOW
      00FF608BH   CODE     ---       ?C?INITHDATA
      00FF6859H   HCONST   WORD      ?C?INITHDATA_END
      00FF3867H   CODE     ---       ?C?LIMUL
      00FF3856H   CODE     ---       ?C?LMUL
      00FF2B85H   CODE     ---       ?C?PRNFMT
      00FF3824H   CODE     ---       ?C?SIDIV
      00FF38C3H   CODE     NEAR LAB  ?C?SLDIV
      00FF0000H   CODE     ---       ?C?STARTUP
      00FF3872H   CODE     NEAR LAB  ?C?ULDIV
      00FF3870H   CODE     NEAR LAB  ?C?ULIDIV
      00000001H   NUMBER   ---       ?C?XDATASEG
      00FF0000H   CODE     ---       ?C_STARTUP
      00010610H   XDATA    BYTE      ?fifo_init?BYTE
*DEL*:1FFFFFFCH   XDATA    BYTE      ?fifo_read_buffer?BYTE
      00010613H   XDATA    BYTE      ?fifo_write_buffer?BYTE
*DEL*:1FFFFFFCH   XDATA    BYTE      ?func_double_to_str?BYTE
*DEL*:00000000H   XDATA    BYTE      ?get_two_points_azimuth?BYTE
*DEL*:00000000H   XDATA    BYTE      ?get_two_points_distance?BYTE
*DEL*:1FFFFFFCH   XDATA    BYTE      ?iap_read_buff?BYTE
*DEL*:1FFFFFFCH   XDATA    BYTE      ?iap_write_buff?BYTE
*DEL*:1FFFFFF8H   XDATA    BYTE      ?ips114_show_chinese?BYTE
*DEL*:1FFFFFFEH   XDATA    BYTE      ?ips114_show_float?BYTE
*DEL*:1FFFFFFCH   XDATA    BYTE      ?ips114_show_wave?BYTE
*DEL*:1FFFFFF8H   XDATA    BYTE      ?ips200_show_chinese?BYTE
*DEL*:1FFFFFFEH   XDATA    BYTE      ?ips200_show_float?BYTE
*DEL*:1FFFFFFCH   XDATA    BYTE      ?ips200_show_wave?BYTE
      0001063EH   XDATA    ---       ?printf?BYTE
      00010614H   XDATA    BYTE      ?pwm_init?BYTE
*DEL*:1FFFFFFAH   XDATA    BYTE      ?pwm_set_freq?BYTE
*DEL*:1FFFFFF8H   XDATA    BYTE      ?seekfree_assistant_camera_boundary_config?BYTE
*DEL*:1FFFFFFBH   XDATA    BYTE      ?seekfree_assistant_camera_data_send?BYTE
*DEL*:1FFFFFF8H   XDATA    BYTE      ?seekfree_assistant_camera_information_config?BYTE
*DEL*:1FFFFFF7H   XDATA    BYTE      ?soft_iic_init?BYTE
L251 LINKER/LOCATER V4.66.93.0                                                        01/16/2025  23:25:20  PAGE 17


*DEL*:1FFFFFFCH   XDATA    BYTE      ?soft_iic_read_16bit_array?BYTE
*DEL*:1FFFFFFCH   XDATA    BYTE      ?soft_iic_read_16bit_registers?BYTE
*DEL*:1FFFFFFCH   XDATA    BYTE      ?soft_iic_read_8bit_array?BYTE
*DEL*:1FFFFFFCH   XDATA    BYTE      ?soft_iic_read_8bit_registers?BYTE
*DEL*:1FFFFFFCH   XDATA    BYTE      ?soft_iic_transfer_16bit_array?BYTE
*DEL*:1FFFFFFCH   XDATA    BYTE      ?soft_iic_transfer_8bit_array?BYTE
*DEL*:1FFFFFFCH   XDATA    BYTE      ?soft_iic_write_16bit_array?BYTE
*DEL*:1FFFFFFCH   XDATA    BYTE      ?soft_iic_write_16bit_registers?BYTE
*DEL*:1FFFFFFCH   XDATA    BYTE      ?soft_iic_write_8bit_array?BYTE
*DEL*:1FFFFFFCH   XDATA    BYTE      ?soft_iic_write_8bit_registers?BYTE
      00010612H   XDATA    BYTE      ?spi_init?BYTE
*DEL*:1FFFFFFCH   XDATA    BYTE      ?spi_read_16bit_array?BYTE
*DEL*:1FFFFFFCH   XDATA    BYTE      ?spi_read_16bit_registers?BYTE
*DEL*:1FFFFFFCH   XDATA    BYTE      ?spi_read_8bit_array?BYTE
      0001061CH   XDATA    BYTE      ?spi_read_8bit_registers?BYTE
*DEL*:1FFFFFFCH   XDATA    BYTE      ?spi_transfer_16bit?BYTE
*DEL*:1FFFFFFCH   XDATA    BYTE      ?spi_transfer_8bit?BYTE
*DEL*:1FFFFFFCH   XDATA    BYTE      ?spi_write_16bit_array?BYTE
*DEL*:1FFFFFFCH   XDATA    BYTE      ?spi_write_16bit_registers?BYTE
*DEL*:1FFFFFFCH   XDATA    BYTE      ?spi_write_8bit_array?BYTE
*DEL*:1FFFFFFBH   XDATA    BYTE      ?spi_write_8bit_registers?BYTE
*DEL*:1FFFFFFEH   XDATA    BYTE      ?tft180_show_float?BYTE
*DEL*:1FFFFFFCH   XDATA    BYTE      ?tft180_show_wave?BYTE
      00010612H   XDATA    BYTE      ?uart_init?BYTE
*DEL*:00000028H   XDATA    BYTE      ?zf_sprintf?BYTE
      00FF2B3AH   CODE     ---       _chkdouble_?_
*SFR* 000000BCH   DATA     BYTE      ADC_CONTR
*DEL*:00000000H   CODE     ---       adc_convert
      00FF5C42H   CODE     ---       adc_init
*DEL*:00000000H   CODE     ---       adc_mean_filter_convert
*SFR* 000000BDH   DATA     BYTE      ADC_RES
*SFR* 000000BEH   DATA     BYTE      ADC_RESL
*SFR* 000000DEH   DATA     BYTE      ADCCFG
      00FF3F10H   CODE     ---       ascii_font_6x8
      00FF2AABH   CODE     ---       asin?_
      00FF2990H   CODE     ---       atan?_
*SFR* 000000EFH   DATA     BYTE      AUXINTIF
*SFR* 0000008EH   DATA     BYTE      AUXR
*SFR* 00000097H   DATA     BYTE      AUXR2
*DEL*:00000000H   CODE     ---       ble6a20_callback
*DEL*:00000000H   CODE     ---       ble6a20_init
*DEL*:00000000H   CODE     ---       ble6a20_read_buffer
*DEL*:00000000H   CODE     ---       ble6a20_send_buffer
*DEL*:00000000H   CODE     ---       ble6a20_send_byte
*DEL*:00000000H   CODE     ---       ble6a20_send_string
*SFR* 000000EAH   DATA     BYTE      CKCON
      00FF5534H   CODE     ---       clock_init
*SFR* 000000E6H   DATA     BYTE      CMPCR1
*SFR* 000000E7H   DATA     BYTE      CMPCR2
      00FF27F8H   CODE     ---       cos?_
      00FF5D03H   CODE     ---       debug_init
      00FF6334H   CODE     ---       debug_interrupr_handler
*DEL*:00000000H   CODE     ---       debug_read_buffer
*DEL*:00000000H   CODE     ---       debug_send_buffer
      0001050FH   XDATA    ---       debug_uart_buffer
      00010550H   XDATA    ---       debug_uart_fifo
      000106C1H   XDATA    WORD      dl1a_distance_mm
      000106C3H   XDATA    BYTE      dl1a_finsh_flag
*DEL*:00000000H   CODE     ---       dl1a_get_distance
*DEL*:00000000H   CODE     ---       dl1a_init
*DEL*:00000000H   CODE     ---       dl1a_int_handler
      00FF5962H   CODE     ---       DMA_UART1_IRQHandler
      00FF59F9H   CODE     ---       DMA_UART2_IRQHandler
      00FF5A72H   CODE     ---       DMA_UART3_IRQHandler
      00FF5AEBH   CODE     ---       DMA_UART4_IRQHandler
L251 LINKER/LOCATER V4.66.93.0                                                        01/16/2025  23:25:20  PAGE 18


      00010728H   XDATA    WORD      duty
*SFR* 000000A8H.7 DATA     BIT       EA
*DEL*:00000000H   CODE     ---       eeprom_trig
*DEL*:00000000H   CODE     ---       encoder_clear_count
*DEL*:00000000H   CODE     ---       encoder_dir_init
*DEL*:00000000H   CODE     ---       encoder_get_count
*SFR* 000000A8H.1 DATA     BIT       ET0
*SFR* 000000A8H.3 DATA     BIT       ET1
      00FF309AH   CODE     ---       exp?_
*DEL*:00000000H   CODE     ---       extern_iap_write_buff
*DEL*:00000000H   CODE     ---       fifo_clear
      00FF01CEH   CODE     ---       fifo_init
*DEL*:00000000H   CODE     ---       fifo_read_buffer
*DEL*:00000000H   CODE     ---       fifo_used
      00FF4888H   CODE     ---       fifo_write_buffer
*DEL*:00000000H   CODE     ---       func_double_to_str
*DEL*:00000000H   CODE     ---       func_float_to_str
*DEL*:00000000H   CODE     ---       func_get_greatest_common_divisor
*DEL*:00000000H   CODE     ---       func_hex_to_str
*DEL*:00000000H   CODE     ---       func_int_to_str
*DEL*:00000000H   CODE     ---       func_soft_delay
*DEL*:00000000H   CODE     ---       func_str_to_double
*DEL*:00000000H   CODE     ---       func_str_to_float
*DEL*:00000000H   CODE     ---       func_str_to_hex
*DEL*:00000000H   CODE     ---       func_str_to_int
*DEL*:00000000H   CODE     ---       func_str_to_uint
*DEL*:00000000H   CODE     ---       func_uint_to_str
*DEL*:00000000H   CODE     ---       get_two_points_azimuth
*DEL*:00000000H   CODE     ---       get_two_points_distance
      00FF00C6H   CODE     ---       gpio_get_level
      00FF5BD6H   CODE     ---       gpio_init
      00FF55FBH   CODE     ---       gpio_set_impedance
      00FF52D6H   CODE     ---       gpio_set_level
      00FF4E07H   CODE     ---       gpio_set_level_speed
*DEL*:00000000H   CODE     ---       gpio_toggle_level
*DEL*:00000000H   CODE     ---       gps_data_parse
      000103CEH   XDATA    INT       gps_gga_state
*DEL*:00000000H   CODE     ---       gps_init
      000103D0H   XDATA    INT       gps_rmc_state
      0001029AH   XDATA    ---       gps_tau1201
      00010219H   XDATA    BYTE      gps_tau1201_flag
      000106FFH   XDATA    INT       gps_type
*DEL*:00000000H   CODE     ---       gps_uart_callback
*SFR* 000000F6H   DATA     BYTE      IAP_ADDRE
*SFR* 000000C3H   DATA     BYTE      IAP_ADDRH
*SFR* 000000C4H   DATA     BYTE      IAP_ADDRL
*SFR* 000000C5H   DATA     BYTE      IAP_CMD
*SFR* 000000C7H   DATA     BYTE      IAP_CONTR
*SFR* 000000C2H   DATA     BYTE      IAP_DATA
*DEL*:00000000H   CODE     ---       iap_erase_page
*DEL*:00000000H   CODE     ---       iap_get_cmd_state
*DEL*:00000000H   CODE     ---       iap_idle
*DEL*:00000000H   CODE     ---       iap_init
*DEL*:00000000H   CODE     ---       iap_read_buff
*DEL*:00000000H   CODE     ---       iap_read_byte
*DEL*:00000000H   CODE     ---       iap_set_tps
*SFR* 000000F5H   DATA     BYTE      IAP_TPS
*SFR* 000000C6H   DATA     BYTE      IAP_TRIG
*DEL*:00000000H   CODE     ---       iap_write_buff
*DEL*:00000000H   CODE     ---       iap_write_byte
      00010690H   XDATA    INT       icm20602_acc_x
      00010692H   XDATA    INT       icm20602_acc_y
      00010694H   XDATA    INT       icm20602_acc_z
      00FF5E66H   CODE     ---       icm20602_get_acc
      00FF5EB6H   CODE     ---       icm20602_get_gyro
L251 LINKER/LOCATER V4.66.93.0                                                        01/16/2025  23:25:20  PAGE 19


      00010696H   XDATA    INT       icm20602_gyro_x
      00010698H   XDATA    INT       icm20602_gyro_y
      0001069AH   XDATA    INT       icm20602_gyro_z
      00FF5425H   CODE     ---       icm20602_init
      0001069CH   XDATA    ---       icm20602_transition_factor
*SFR* 000000A8H   DATA     BYTE      IE
*SFR* 000000AFH   DATA     BYTE      IE2
      000106A4H   XDATA    INT       imu660ra_acc_x
      000106A6H   XDATA    INT       imu660ra_acc_y
      000106A8H   XDATA    INT       imu660ra_acc_z
      00FF021EH   CODE     ---       imu660ra_config_file
*DEL*:00000000H   CODE     ---       imu660ra_get_acc
*DEL*:00000000H   CODE     ---       imu660ra_get_gyro
      000106AAH   XDATA    INT       imu660ra_gyro_x
      000106ACH   XDATA    INT       imu660ra_gyro_y
      000106AEH   XDATA    INT       imu660ra_gyro_z
*DEL*:00000000H   CODE     ---       imu660ra_init
      000106B0H   XDATA    ---       imu660ra_transition_factor
      0001065DH   XDATA    INT       imu963ra_acc_x
      0001065FH   XDATA    INT       imu963ra_acc_y
      00010661H   XDATA    INT       imu963ra_acc_z
*DEL*:00000000H   CODE     ---       imu963ra_get_acc
*DEL*:00000000H   CODE     ---       imu963ra_get_gyro
*DEL*:00000000H   CODE     ---       imu963ra_get_mag
      00010669H   XDATA    INT       imu963ra_gyro_x
      0001066BH   XDATA    INT       imu963ra_gyro_y
      0001066DH   XDATA    INT       imu963ra_gyro_z
*DEL*:00000000H   CODE     ---       imu963ra_init
      00010663H   XDATA    INT       imu963ra_mag_x
      00010665H   XDATA    INT       imu963ra_mag_y
      00010667H   XDATA    INT       imu963ra_mag_z
      0001066FH   XDATA    ---       imu963ra_transition_factor
      0001064BH   XDATA    ---       int0_irq_handler
      0001064FH   XDATA    ---       int1_irq_handler
      00010653H   XDATA    ---       int2_irq_handler
      00010657H   XDATA    ---       int3_irq_handler
      0001065BH   XDATA    ---       int4_irq_handler
*SFR* 0000008FH   DATA     BYTE      INTCLKO
*DEL*:00000000H   CODE     ---       interrupt_global_disable
      00FF0003H   CODE     ---       interrupt_global_enable
*DEL*:00000000H   CODE     ---       interrupt_set_priority
*SFR* 000000B8H   DATA     BYTE      IP
*SFR* 000000B5H   DATA     BYTE      IP2
*SFR* 000000B6H   DATA     BYTE      IP2H
*SFR* 000000DFH   DATA     BYTE      IP3
*SFR* 000000EEH   DATA     BYTE      IP3H
*SFR* 000000B7H   DATA     BYTE      IPH
      0001070BH   XDATA    WORD      ips114_bgcolor
*DEL*:00000000H   CODE     ---       ips114_clear
      0001070DH   XDATA    INT       ips114_display_dir
*DEL*:00000000H   CODE     ---       ips114_draw_point
*DEL*:00000000H   CODE     ---       ips114_init
      00010709H   XDATA    WORD      ips114_pencolor
*DEL*:00000000H   CODE     ---       ips114_set_color
*DEL*:00000000H   CODE     ---       ips114_set_dir
*DEL*:00000000H   CODE     ---       ips114_show_char
*DEL*:00000000H   CODE     ---       ips114_show_chinese
*DEL*:00000000H   CODE     ---       ips114_show_float
*DEL*:00000000H   CODE     ---       ips114_show_int16
*DEL*:00000000H   CODE     ---       ips114_show_int32
*DEL*:00000000H   CODE     ---       ips114_show_int8
*DEL*:00000000H   CODE     ---       ips114_show_string
*DEL*:00000000H   CODE     ---       ips114_show_uint16
*DEL*:00000000H   CODE     ---       ips114_show_uint8
*DEL*:00000000H   CODE     ---       ips114_show_wave
L251 LINKER/LOCATER V4.66.93.0                                                        01/16/2025  23:25:20  PAGE 20


      0001070FH   XDATA    BYTE      ips114_x_max
      00010710H   XDATA    BYTE      ips114_y_max
      000106DFH   XDATA    WORD      ips200_bgcolor
*DEL*:00000000H   CODE     ---       ips200_clear
      000106E1H   XDATA    INT       ips200_display_dir
*DEL*:00000000H   CODE     ---       ips200_draw_point
*DEL*:00000000H   CODE     ---       ips200_init
      000106DDH   XDATA    WORD      ips200_pencolor
*DEL*:00000000H   CODE     ---       ips200_set_color
*DEL*:00000000H   CODE     ---       ips200_set_dir
*DEL*:00000000H   CODE     ---       ips200_show_char
*DEL*:00000000H   CODE     ---       ips200_show_chinese
*DEL*:00000000H   CODE     ---       ips200_show_float
*DEL*:00000000H   CODE     ---       ips200_show_int16
*DEL*:00000000H   CODE     ---       ips200_show_int32
*DEL*:00000000H   CODE     ---       ips200_show_int8
*DEL*:00000000H   CODE     ---       ips200_show_string
*DEL*:00000000H   CODE     ---       ips200_show_uint16
*DEL*:00000000H   CODE     ---       ips200_show_uint8
*DEL*:00000000H   CODE     ---       ips200_show_wave
      000106E3H   XDATA    WORD      ips200_x_max
      000106E5H   XDATA    WORD      ips200_y_max
*SFR* 0000009DH   DATA     BYTE      IRCBAND
      00FF3183H   CODE     NEAR LAB  log?_
      00FF56BBH   CODE     ---       main
      00FF6429H   CODE     ---       memcpy?_
*DEL*:00000000H   CODE     ---       memset?_
*DEL*:00000000H   CODE     ---       mpu6050_acc_transition
      0001067BH   XDATA    INT       mpu6050_acc_x
      0001067DH   XDATA    INT       mpu6050_acc_y
      0001067FH   XDATA    INT       mpu6050_acc_z
*DEL*:00000000H   CODE     ---       mpu6050_get_acc
*DEL*:00000000H   CODE     ---       mpu6050_get_gyro
*DEL*:00000000H   CODE     ---       mpu6050_gyro_transition
      00010681H   XDATA    INT       mpu6050_gyro_x
      00010683H   XDATA    INT       mpu6050_gyro_y
      00010685H   XDATA    INT       mpu6050_gyro_z
*DEL*:00000000H   CODE     ---       mpu6050_init
*SFR* 00000080H   DATA     BYTE      P0
*SFR* 00000094H   DATA     BYTE      P0M0
*SFR* 00000093H   DATA     BYTE      P0M1
*SFR* 00000090H   DATA     BYTE      P1
*SFR* 00000092H   DATA     BYTE      P1M0
*SFR* 00000091H   DATA     BYTE      P1M1
*SFR* 000000A0H   DATA     BYTE      P2
*SFR* 000000A0H.0 DATA     BIT       P20
*SFR* 000000A0H.1 DATA     BIT       P21
*SFR* 000000A0H.2 DATA     BIT       P22
*SFR* 00000096H   DATA     BYTE      P2M0
*SFR* 00000095H   DATA     BYTE      P2M1
*SFR* 000000B0H   DATA     BYTE      P3
*SFR* 000000B2H   DATA     BYTE      P3M0
*SFR* 000000B1H   DATA     BYTE      P3M1
*SFR* 000000C0H   DATA     BYTE      P4
*SFR* 000000B4H   DATA     BYTE      P4M0
*SFR* 000000B3H   DATA     BYTE      P4M1
*SFR* 000000C8H   DATA     BYTE      P5
*SFR* 000000CAH   DATA     BYTE      P5M0
*SFR* 000000C9H   DATA     BYTE      P5M1
*SFR* 000000E8H   DATA     BYTE      P6
*SFR* 000000CCH   DATA     BYTE      P6M0
*SFR* 000000CBH   DATA     BYTE      P6M1
*SFR* 000000F8H   DATA     BYTE      P7
*SFR* 000000E2H   DATA     BYTE      P7M0
*SFR* 000000E1H   DATA     BYTE      P7M1
L251 LINKER/LOCATER V4.66.93.0                                                        01/16/2025  23:25:20  PAGE 21


*SFR* 000000A2H   DATA     BYTE      P_SW1
*SFR* 000000BAH   DATA     BYTE      P_SW2
*SFR* 000000BBH   DATA     BYTE      P_SW3
*SFR* 000000BFH   DATA     BYTE      P_SW4
*SFR* 00000087H   DATA     BYTE      PCON
*DEL*:00000000H   CODE     ---       pit_init
*DEL*:00000000H   CODE     ---       pow?_
      00FF2678H   CODE     NEAR LAB  printf
*SFR* 000000D0H   DATA     BYTE      PSW
*SFR* 000000D1H   DATA     BYTE      PSW1
      00FF644EH   CODE     ---       putchar
      00FF6F41H   HCONST   ---       PWM_ARR_ADDR
      00FF6F49H   HCONST   ---       PWM_CCER_ADDR
      00FF6F59H   HCONST   ---       PWM_CCMR_ADDR
      00FF6F21H   HCONST   ---       PWM_CCR_ADDR
      00FF4138H   CODE     ---       pwm_init
      00FF6F19H   HCONST   ---       PWM_PSCR_ADDR
*DEL*:00000000H   CODE     ---       pwm_set_duty
*DEL*:00000000H   CODE     ---       pwm_set_freq
      000106E7H   XDATA    FLOAT     R_x_val
      000106EBH   XDATA    FLOAT     R_y_val
      00FF00A6H   CODE     ---       rocker_init
*DEL*:00000000H   CODE     ---       rocker_read
      000106EFH   XDATA    WORD      Rocker_state
*SFR* 000000FFH   DATA     BYTE      RSTCFG
*SFR* 0000009BH   DATA     BYTE      S2BUF
*SFR* 0000009AH   DATA     BYTE      S2CON
*SFR* 0000009AH.1 DATA     BIT       S2TI
*SFR* 000000ACH   DATA     BYTE      S3CON
*SFR* 000000FDH   DATA     BYTE      S4CON
*SFR* 00000099H   DATA     BYTE      SBUF
*SFR* 00000098H   DATA     BYTE      SCON
*DEL*:00000000H   CODE     ---       seekfree_assistant_camera_boundary_config
*DEL*:00000000H   CODE     ---       seekfree_assistant_camera_data_send
*DEL*:00000000H   CODE     ---       seekfree_assistant_camera_dot_send
*DEL*:00000000H   CODE     ---       seekfree_assistant_camera_information_config
*DEL*:00000000H   CODE     ---       seekfree_assistant_camera_send
*DEL*:00000000H   CODE     ---       seekfree_assistant_data_analysis
*DEL*:00000000H   CODE     ---       seekfree_assistant_init
*DEL*:00000000H   CODE     ---       seekfree_assistant_interface_init
      000103DAH   XDATA    ---       seekfree_assistant_oscilloscope_data
*DEL*:00000000H   CODE     ---       seekfree_assistant_oscilloscope_send
      0001041DH   XDATA    ---       seekfree_assistant_parameter
      00010415H   XDATA    ---       seekfree_assistant_parameter_update_flag
      0001071FH   XDATA    ---       seekfree_assistant_receive_callback
      00010721H   XDATA    ---       seekfree_assistant_transfer_callback
*DEL*:00000000H   CODE     ---       set_gps_type
*DEL*:00000000H   CODE     ---       set_tof_type
*DEL*:00000000H   CODE     ---       set_wireless_type
      00FF2819H   CODE     ---       sin?_
      00FF636FH   CODE     ---       soft_iic_delay
*DEL*:00000000H   CODE     ---       soft_iic_init
*DEL*:00000000H   CODE     ---       soft_iic_read_16bit
*DEL*:00000000H   CODE     ---       soft_iic_read_16bit_array
*DEL*:00000000H   CODE     ---       soft_iic_read_16bit_register
*DEL*:00000000H   CODE     ---       soft_iic_read_16bit_registers
*DEL*:00000000H   CODE     ---       soft_iic_read_8bit
*DEL*:00000000H   CODE     ---       soft_iic_read_8bit_array
*DEL*:00000000H   CODE     ---       soft_iic_read_8bit_register
*DEL*:00000000H   CODE     ---       soft_iic_read_8bit_registers
      00FF58C8H   CODE     ---       soft_iic_read_data
*DEL*:00000000H   CODE     ---       soft_iic_sccb_read_register
*DEL*:00000000H   CODE     ---       soft_iic_sccb_write_register
      00FF5DBFH   CODE     ---       soft_iic_send_ack
      00FF5B64H   CODE     ---       soft_iic_send_data
L251 LINKER/LOCATER V4.66.93.0                                                        01/16/2025  23:25:20  PAGE 22


      00FF62BBH   CODE     ---       soft_iic_start
      00FF5FE9H   CODE     ---       soft_iic_stop
*DEL*:00000000H   CODE     ---       soft_iic_transfer_16bit_array
*DEL*:00000000H   CODE     ---       soft_iic_transfer_8bit_array
      00FF5D61H   CODE     ---       soft_iic_wait_ack
*DEL*:00000000H   CODE     ---       soft_iic_write_16bit
*DEL*:00000000H   CODE     ---       soft_iic_write_16bit_array
*DEL*:00000000H   CODE     ---       soft_iic_write_16bit_register
*DEL*:00000000H   CODE     ---       soft_iic_write_16bit_registers
*DEL*:00000000H   CODE     ---       soft_iic_write_8bit
*DEL*:00000000H   CODE     ---       soft_iic_write_8bit_array
*DEL*:00000000H   CODE     ---       soft_iic_write_8bit_register
*DEL*:00000000H   CODE     ---       soft_iic_write_8bit_registers
*SFR* 000000CEH   DATA     BYTE      SPCTL
*SFR* 000000CFH   DATA     BYTE      SPDAT
      00FF44E5H   CODE     ---       spi_init
*DEL*:00000000H   CODE     ---       spi_read_16bit
*DEL*:00000000H   CODE     ---       spi_read_16bit_array
*DEL*:00000000H   CODE     ---       spi_read_16bit_register
*DEL*:00000000H   CODE     ---       spi_read_16bit_registers
*DEL*:00000000H   CODE     ---       spi_read_8bit
*DEL*:00000000H   CODE     ---       spi_read_8bit_array
      00FF645EH   CODE     ---       spi_read_8bit_register
      00FF6105H   CODE     ---       spi_read_8bit_registers
      00FF6145H   CODE     ---       spi_read_dat
*DEL*:00000000H   CODE     ---       spi_transfer_16bit
*DEL*:00000000H   CODE     ---       spi_transfer_8bit
*DEL*:00000000H   CODE     ---       spi_write_16bit
*DEL*:00000000H   CODE     ---       spi_write_16bit_array
*DEL*:00000000H   CODE     ---       spi_write_16bit_register
*DEL*:00000000H   CODE     ---       spi_write_16bit_registers
*DEL*:00000000H   CODE     ---       spi_write_8bit
*DEL*:00000000H   CODE     ---       spi_write_8bit_array
      00FF0026H   CODE     ---       spi_write_8bit_register
*DEL*:00000000H   CODE     ---       spi_write_8bit_registers
      00FF63A7H   CODE     ---       spi_write_dat
*SFR* 000000CDH   DATA     BYTE      SPSTAT
      00FF26AAH   CODE     ---       sqrt?_
*DEL*:00000000H   CODE     ---       strchr?_
*DEL*:00000000H   CODE     ---       strlen?_
*DEL*:00000000H   CODE     ---       strncmp?_
*DEL*:00000000H   CODE     ---       strncpy?_
      00010717H   XDATA    LONG      system_clock
      00FF5F06H   CODE     ---       system_delay_init
      00FF5E15H   CODE     ---       system_delay_ms
*DEL*:00000000H   CODE     ---       system_delay_us
*SFR* 000000D6H   DATA     BYTE      T2H
*SFR* 000000D7H   DATA     BYTE      T2L
*SFR* 000000D4H   DATA     BYTE      T3H
*SFR* 000000D5H   DATA     BYTE      T3L
*SFR* 000000D2H   DATA     BYTE      T4H
*SFR* 000000D3H   DATA     BYTE      T4L
*SFR* 000000DDH   DATA     BYTE      T4T3M
      00FF284EH   CODE     ---       TAN?_
*SFR* 00000088H   DATA     BYTE      TCON
      00010703H   XDATA    WORD      tft180_bgcolor
*DEL*:00000000H   CODE     ---       tft180_clear
      00010705H   XDATA    INT       tft180_display_dir
*DEL*:00000000H   CODE     ---       tft180_draw_point
*DEL*:00000000H   CODE     ---       tft180_init
      00010701H   XDATA    WORD      tft180_pencolor
*DEL*:00000000H   CODE     ---       tft180_set_color
*DEL*:00000000H   CODE     ---       tft180_set_dir
*DEL*:00000000H   CODE     ---       tft180_show_char
*DEL*:00000000H   CODE     ---       tft180_show_float
L251 LINKER/LOCATER V4.66.93.0                                                        01/16/2025  23:25:20  PAGE 23


*DEL*:00000000H   CODE     ---       tft180_show_int16
*DEL*:00000000H   CODE     ---       tft180_show_int32
*DEL*:00000000H   CODE     ---       tft180_show_int8
*DEL*:00000000H   CODE     ---       tft180_show_string
*DEL*:00000000H   CODE     ---       tft180_show_uint16
*DEL*:00000000H   CODE     ---       tft180_show_uint8
*DEL*:00000000H   CODE     ---       tft180_show_wave
      00010707H   XDATA    BYTE      tft180_x_max
      00010708H   XDATA    BYTE      tft180_y_max
      00FF3920H   CODE     ---       tft_ascii
*SFR* 0000008CH   DATA     BYTE      TH0
*SFR* 0000008DH   DATA     BYTE      TH1
*SFR* 00000098H.1 DATA     BIT       TI
      00010649H   XDATA    ---       tim0_irq_handler
      0001063FH   XDATA    ---       tim11_irq_handler
      0001064DH   XDATA    ---       tim1_irq_handler
      00010651H   XDATA    ---       tim2_irq_handler
      00010655H   XDATA    ---       tim3_irq_handler
      00010659H   XDATA    ---       tim4_irq_handler
*DEL*:00000000H   CODE     ---       timer_funciton_check
*SFR* 0000008AH   DATA     BYTE      TL0
*SFR* 0000008BH   DATA     BYTE      TL1
      00FF6185H   CODE     ---       TM0_IRQHandler
      00FF5F55H   CODE     ---       TM11_IRQHandler
      00FF61C3H   CODE     ---       TM1_IRQHandler
      00FF6201H   CODE     ---       TM2_IRQHandler
      00FF623FH   CODE     ---       TM3_IRQHandler
      00FF627DH   CODE     ---       TM4_IRQHandler
*SFR* 00000089H   DATA     BYTE      TMOD
      000106F9H   XDATA    ---       tof_module_exti_handler
      000106FDH   XDATA    INT       tof_type
*SFR* 00000088H.4 DATA     BIT       TR0
*SFR* 00000088H.6 DATA     BIT       TR1
*DEL*:00000000H   CODE     ---       tsl1401_collect_pit_handler
      00010001H   XDATA    ---       tsl1401_data
      00010000H   XDATA    BYTE      tsl1401_finish_flag
*DEL*:00000000H   CODE     ---       tsl1401_init
*DEL*:00000000H   CODE     ---       tsl1401_send_data
      00010641H   XDATA    ---       uart1_irq_handler
      00010643H   XDATA    ---       uart2_irq_handler
      00010645H   XDATA    ---       uart3_irq_handler
      00010647H   XDATA    ---       uart4_irq_handler
      00FF5774H   CODE     ---       uart_dma_init
*DEL*:00000000H   CODE     ---       uart_funciton_check
      00FF4FC4H   CODE     ---       uart_init
      00FF5FA0H   CODE     ---       uart_query_byte
*DEL*:00000000H   CODE     ---       uart_read_byte
      000106D9H   XDATA    ---       uart_rx_buff
      00FF62F8H   CODE     ---       uart_rx_interrupt
      00FF5CA3H   CODE     ---       uart_rx_start_buff
      00FF582BH   CODE     ---       uart_write_buffer
      00FF0046H   CODE     ---       uart_write_byte
*DEL*:00000000H   CODE     ---       uart_write_string
*SFR* 000000F4H   DATA     BYTE      USBCON
*SFR* 000000C1H   DATA     BYTE      WDT_CONTR
      000106FBH   XDATA    INT       wireless_type
*DEL*:00000000H   CODE     ---       wireless_uart_callback
*DEL*:00000000H   CODE     ---       wireless_uart_init
*DEL*:00000000H   CODE     ---       wireless_uart_read_buffer
*DEL*:00000000H   CODE     ---       wireless_uart_send_buffer
*DEL*:00000000H   CODE     ---       wireless_uart_send_byte
*DEL*:00000000H   CODE     ---       wireless_uart_send_string
*SFR* 000000ABH   DATA     BYTE      WKTCH
*SFR* 000000E9H   DATA     BYTE      WTST
*DEL*:00000000H   CODE     ---       zf_sprintf
L251 LINKER/LOCATER V4.66.93.0                                                        01/16/2025  23:25:20  PAGE 24





SYMBOL TABLE OF MODULE:  .\out_file\SEEKFREE (ai8051u_isr)

      VALUE       REP       CLASS    TYPE      SYMBOL NAME
      ====================================================
      ---         MODULE    ---      ---       ai8051u_isr

      00FF019BH   BLOCK     CODE     NEAR LAB  LVL=0
      00FF019BH   LINE      CODE     ---       #3
      ---         BLOCKEND  ---      ---       LVL=0

      00FF01ABH   BLOCK     CODE     NEAR LAB  LVL=0
      00FF01ABH   LINE      CODE     ---       #6
      ---         BLOCKEND  ---      ---       LVL=0

      00FF01BBH   BLOCK     CODE     NEAR LAB  LVL=0
      00FF01BBH   LINE      CODE     ---       #9
      ---         BLOCKEND  ---      ---       LVL=0

      00FF01CBH   BLOCK     CODE     NEAR LAB  LVL=0
      00FF01CBH   LINE      CODE     ---       #12
      ---         BLOCKEND  ---      ---       LVL=0

      00FF021BH   BLOCK     CODE     NEAR LAB  LVL=0
      00FF021BH   LINE      CODE     ---       #15
      ---         BLOCKEND  ---      ---       LVL=0

      ---         MODULE    ---      ---       zf_common_clock
      00FF5534H   PUBLIC    CODE     ---       clock_init
      00010717H   PUBLIC    XDATA    LONG      system_clock
      00000094H   SFRSYM    DATA     BYTE      P0M0
      000000D0H   SFRSYM    DATA     BYTE      PSW
      0000009DH   SFRSYM    DATA     BYTE      IRCBAND
      00000097H   SFRSYM    DATA     BYTE      AUXR2
      000000EAH   SFRSYM    DATA     BYTE      CKCON
      000000EFH   SFRSYM    DATA     BYTE      AUXINTIF
      000000FDH   SFRSYM    DATA     BYTE      S4CON
      000000ACH   SFRSYM    DATA     BYTE      S3CON
      0000009AH   SFRSYM    DATA     BYTE      S2CON
      000000B7H   SFRSYM    DATA     BYTE      IPH
      000000CDH   SFRSYM    DATA     BYTE      SPSTAT
      000000DDH   SFRSYM    DATA     BYTE      T4T3M
      000000C1H   SFRSYM    DATA     BYTE      WDT_CONTR
      000000E9H   SFRSYM    DATA     BYTE      WTST
      000000DFH   SFRSYM    DATA     BYTE      IP3
      000000F4H   SFRSYM    DATA     BYTE      USBCON
      000000B5H   SFRSYM    DATA     BYTE      IP2
      000000FFH   SFRSYM    DATA     BYTE      RSTCFG
      000000C7H   SFRSYM    DATA     BYTE      IAP_CONTR
      0000008EH   SFRSYM    DATA     BYTE      AUXR
      000000AFH   SFRSYM    DATA     BYTE      IE2
      00000088H   SFRSYM    DATA     BYTE      TCON
      00000089H   SFRSYM    DATA     BYTE      TMOD
      00000098H   SFRSYM    DATA     BYTE      SCON
      00000087H   SFRSYM    DATA     BYTE      PCON
      000000BCH   SFRSYM    DATA     BYTE      ADC_CONTR
      000000D1H   SFRSYM    DATA     BYTE      PSW1
      000000E7H   SFRSYM    DATA     BYTE      CMPCR2
      000000E6H   SFRSYM    DATA     BYTE      CMPCR1
      000000DEH   SFRSYM    DATA     BYTE      ADCCFG
      000000B8H   SFRSYM    DATA     BYTE      IP
      0000008FH   SFRSYM    DATA     BYTE      INTCLKO
      000000EEH   SFRSYM    DATA     BYTE      IP3H
L251 LINKER/LOCATER V4.66.93.0                                                        01/16/2025  23:25:20  PAGE 25


      000000B6H   SFRSYM    DATA     BYTE      IP2H
      000000BFH   SFRSYM    DATA     BYTE      P_SW4
      000000A8H   SFRSYM    DATA     BYTE      IE
      000000BBH   SFRSYM    DATA     BYTE      P_SW3
      000000BAH   SFRSYM    DATA     BYTE      P_SW2
      000000A2H   SFRSYM    DATA     BYTE      P_SW1
      000000CEH   SFRSYM    DATA     BYTE      SPCTL
      000000F8H   SFRSYM    DATA     BYTE      P7
      000000E1H   SFRSYM    DATA     BYTE      P7M1
      000000E8H   SFRSYM    DATA     BYTE      P6
      000000C8H   SFRSYM    DATA     BYTE      P5
      000000CBH   SFRSYM    DATA     BYTE      P6M1
      000000E2H   SFRSYM    DATA     BYTE      P7M0
      000000C0H   SFRSYM    DATA     BYTE      P4
      000000C9H   SFRSYM    DATA     BYTE      P5M1
      000000CCH   SFRSYM    DATA     BYTE      P6M0
      000000ABH   SFRSYM    DATA     BYTE      WKTCH
      000000B0H   SFRSYM    DATA     BYTE      P3
      000000B3H   SFRSYM    DATA     BYTE      P4M1
      000000CAH   SFRSYM    DATA     BYTE      P5M0
      000000A0H   SFRSYM    DATA     BYTE      P2
      000000B1H   SFRSYM    DATA     BYTE      P3M1
      000000B4H   SFRSYM    DATA     BYTE      P4M0
      00000090H   SFRSYM    DATA     BYTE      P1
      00000095H   SFRSYM    DATA     BYTE      P2M1
      000000B2H   SFRSYM    DATA     BYTE      P3M0
      00000080H   SFRSYM    DATA     BYTE      P0
      00000091H   SFRSYM    DATA     BYTE      P1M1
      00000096H   SFRSYM    DATA     BYTE      P2M0
      00000092H   SFRSYM    DATA     BYTE      P1M0
      00000093H   SFRSYM    DATA     BYTE      P0M1

      00FF5534H   BLOCK     CODE     ---       LVL=0
      DR12        REGSYM    ---      DWORD     clock
      00FF5534H   LINE      CODE     ---       #47
      00FF5538H   LINE      CODE     ---       #49
      00FF553BH   LINE      CODE     ---       #50
      00FF553EH   LINE      CODE     ---       #51
      00FF5541H   LINE      CODE     ---       #54
      00FF554EH   LINE      CODE     ---       #55
      00FF555CH   LINE      CODE     ---       #56
      00FF5568H   LINE      CODE     ---       #57
      00FF5575H   LINE      CODE     ---       #58
      00FF5579H   LINE      CODE     ---       #60
      00FF557CH   LINE      CODE     ---       #63
      00FF5586H   LINE      CODE     ---       #65
      00FF5589H   LINE      CODE     ---       #66
      00FF558CH   LINE      CODE     ---       #67
      00FF558FH   LINE      CODE     ---       #68
      00FF5592H   LINE      CODE     ---       #69
      00FF5595H   LINE      CODE     ---       #70
      00FF5598H   LINE      CODE     ---       #71
      00FF559BH   LINE      CODE     ---       #72
      00FF559EH   LINE      CODE     ---       #73
      00FF55A1H   LINE      CODE     ---       #74
      00FF55A4H   LINE      CODE     ---       #75
      00FF55A7H   LINE      CODE     ---       #76
      00FF55AAH   LINE      CODE     ---       #77
      00FF55ADH   LINE      CODE     ---       #78
      00FF55B0H   LINE      CODE     ---       #79
      00FF55B3H   LINE      CODE     ---       #80
      00FF55B6H   LINE      CODE     ---       #83
      00FF55B9H   LINE      CODE     ---       #84
      00FF55BCH   LINE      CODE     ---       #85
      00FF55BFH   LINE      CODE     ---       #86
L251 LINKER/LOCATER V4.66.93.0                                                        01/16/2025  23:25:20  PAGE 26


      00FF55C2H   LINE      CODE     ---       #87
      00FF55C5H   LINE      CODE     ---       #88
      00FF55C8H   LINE      CODE     ---       #89
      00FF55CBH   LINE      CODE     ---       #90
      00FF55CEH   LINE      CODE     ---       #91
      00FF55D1H   LINE      CODE     ---       #92
      00FF55D4H   LINE      CODE     ---       #93
      00FF55E0H   LINE      CODE     ---       #94
      00FF55E7H   LINE      CODE     ---       #96
      00FF55EEH   LINE      CODE     ---       #97
      00FF55F5H   LINE      CODE     ---       #100
      00FF55F8H   LINE      CODE     ---       #101
      ---         BLOCKEND  ---      ---       LVL=0

      ---         MODULE    ---      ---       zf_common_debug
      00FF6334H   PUBLIC    CODE     ---       debug_interrupr_handler
      00FF5D03H   PUBLIC    CODE     ---       debug_init
      00FF644EH   PUBLIC    CODE     ---       putchar
      0001050FH   PUBLIC    XDATA    ---       debug_uart_buffer
      00010550H   PUBLIC    XDATA    ---       debug_uart_fifo
      000000D0H   SFRSYM    DATA     BYTE      PSW
      0000009DH   SFRSYM    DATA     BYTE      IRCBAND
      00000097H   SFRSYM    DATA     BYTE      AUXR2
      000000EFH   SFRSYM    DATA     BYTE      AUXINTIF
      000000FDH   SFRSYM    DATA     BYTE      S4CON
      000000ACH   SFRSYM    DATA     BYTE      S3CON
      0000009AH   SFRSYM    DATA     BYTE      S2CON
      000000B7H   SFRSYM    DATA     BYTE      IPH
      000000CDH   SFRSYM    DATA     BYTE      SPSTAT
      000000DDH   SFRSYM    DATA     BYTE      T4T3M
      000000C1H   SFRSYM    DATA     BYTE      WDT_CONTR
      000000DFH   SFRSYM    DATA     BYTE      IP3
      000000F4H   SFRSYM    DATA     BYTE      USBCON
      000000B5H   SFRSYM    DATA     BYTE      IP2
      000000FFH   SFRSYM    DATA     BYTE      RSTCFG
      000000C7H   SFRSYM    DATA     BYTE      IAP_CONTR
      0000008EH   SFRSYM    DATA     BYTE      AUXR
      000000AFH   SFRSYM    DATA     BYTE      IE2
      00000088H   SFRSYM    DATA     BYTE      TCON
      00000089H   SFRSYM    DATA     BYTE      TMOD
      00000098H   SFRSYM    DATA     BYTE      SCON
      00000087H   SFRSYM    DATA     BYTE      PCON
      000000BCH   SFRSYM    DATA     BYTE      ADC_CONTR
      000000D1H   SFRSYM    DATA     BYTE      PSW1
      000000E7H   SFRSYM    DATA     BYTE      CMPCR2
      000000E6H   SFRSYM    DATA     BYTE      CMPCR1
      000000DEH   SFRSYM    DATA     BYTE      ADCCFG
      000000B8H   SFRSYM    DATA     BYTE      IP
      0000008FH   SFRSYM    DATA     BYTE      INTCLKO
      000000EEH   SFRSYM    DATA     BYTE      IP3H
      000000B6H   SFRSYM    DATA     BYTE      IP2H
      000000BFH   SFRSYM    DATA     BYTE      P_SW4
      000000A8H   SFRSYM    DATA     BYTE      IE
      000000BBH   SFRSYM    DATA     BYTE      P_SW3
      000000BAH   SFRSYM    DATA     BYTE      P_SW2
      000000A2H   SFRSYM    DATA     BYTE      P_SW1
      000000CEH   SFRSYM    DATA     BYTE      SPCTL
      000000F8H   SFRSYM    DATA     BYTE      P7
      000000E8H   SFRSYM    DATA     BYTE      P6
      000000C8H   SFRSYM    DATA     BYTE      P5
      000000C0H   SFRSYM    DATA     BYTE      P4
      000000ABH   SFRSYM    DATA     BYTE      WKTCH
      000000B0H   SFRSYM    DATA     BYTE      P3
      000000A0H   SFRSYM    DATA     BYTE      P2
      00000090H   SFRSYM    DATA     BYTE      P1
L251 LINKER/LOCATER V4.66.93.0                                                        01/16/2025  23:25:20  PAGE 27


      00000080H   SFRSYM    DATA     BYTE      P0
      0001054FH   SYMBOL    XDATA    BYTE      zf_debug_assert_enable
      00010567H   SYMBOL    XDATA    BYTE      zf_debug_init_flag
      REG=2       REGSYM    ---      ---       buff
      DR12        REGSYM    ---      DWORD     len
      REG=2       REGSYM    ---      ---       buff

      00FF6334H   BLOCK     CODE     ---       LVL=0
      00010616H   SYMBOL    XDATA    BYTE      dat
      00FF6334H   LINE      CODE     ---       #281
      00FF6338H   LINE      CODE     ---       #283
      00FF633EH   LINE      CODE     ---       #285
      00FF634DH   LINE      CODE     ---       #286
      00FF636EH   LINE      CODE     ---       #287
      ---         BLOCKEND  ---      ---       LVL=0

      00FF644EH   BLOCK     CODE     ---       LVL=0
      R15         REGSYM    ---      CHAR      c
      00FF644EH   LINE      CODE     ---       #303
      00FF6452H   LINE      CODE     ---       #305
      00FF6459H   LINE      CODE     ---       #307
      00FF645BH   LINE      CODE     ---       #308
      ---         BLOCKEND  ---      ---       LVL=0

      00FF5D03H   BLOCK     CODE     ---       LVL=0
      00FF5D03H   LINE      CODE     ---       #489
      00FF5D03H   LINE      CODE     ---       #490
      00FF5D03H   LINE      CODE     ---       #491
      00FF5D03H   LINE      CODE     ---       #497
      00FF5D20H   LINE      CODE     ---       #504
      00FF5D4DH   LINE      CODE     ---       #505
      00FF5D56H   LINE      CODE     ---       #508
      00FF5D56H   LINE      CODE     ---       #510
      00FF5D56H   LINE      CODE     ---       #512
      00FF5D56H   LINE      CODE     ---       #514
      00FF5D56H   LINE      CODE     ---       #516
      00FF5D56H   LINE      CODE     ---       #518
      00FF5D56H   LINE      CODE     ---       #520
      00FF5D56H   LINE      CODE     ---       #522
      00FF5D60H   LINE      CODE     ---       #523
      ---         BLOCKEND  ---      ---       LVL=0

      ---         MODULE    ---      ---       zf_common_fifo
      00FF4888H   PUBLIC    CODE     ---       fifo_write_buffer
      00FF01CEH   PUBLIC    CODE     ---       fifo_init
      00010613H   PUBLIC    XDATA    BYTE      ?fifo_write_buffer?BYTE
      00010610H   PUBLIC    XDATA    BYTE      ?fifo_init?BYTE
      000000D0H   SFRSYM    DATA     BYTE      PSW
      0000009DH   SFRSYM    DATA     BYTE      IRCBAND
      00000097H   SFRSYM    DATA     BYTE      AUXR2
      000000EFH   SFRSYM    DATA     BYTE      AUXINTIF
      000000FDH   SFRSYM    DATA     BYTE      S4CON
      000000ACH   SFRSYM    DATA     BYTE      S3CON
      0000009AH   SFRSYM    DATA     BYTE      S2CON
      000000B7H   SFRSYM    DATA     BYTE      IPH
      000000CDH   SFRSYM    DATA     BYTE      SPSTAT
      000000DDH   SFRSYM    DATA     BYTE      T4T3M
      000000C1H   SFRSYM    DATA     BYTE      WDT_CONTR
      000000DFH   SFRSYM    DATA     BYTE      IP3
      000000F4H   SFRSYM    DATA     BYTE      USBCON
      000000B5H   SFRSYM    DATA     BYTE      IP2
      000000FFH   SFRSYM    DATA     BYTE      RSTCFG
      000000C7H   SFRSYM    DATA     BYTE      IAP_CONTR
      0000008EH   SFRSYM    DATA     BYTE      AUXR
      000000AFH   SFRSYM    DATA     BYTE      IE2
L251 LINKER/LOCATER V4.66.93.0                                                        01/16/2025  23:25:20  PAGE 28


      00000088H   SFRSYM    DATA     BYTE      TCON
      00000089H   SFRSYM    DATA     BYTE      TMOD
      00000098H   SFRSYM    DATA     BYTE      SCON
      00000087H   SFRSYM    DATA     BYTE      PCON
      000000BCH   SFRSYM    DATA     BYTE      ADC_CONTR
      000000D1H   SFRSYM    DATA     BYTE      PSW1
      000000E7H   SFRSYM    DATA     BYTE      CMPCR2
      000000E6H   SFRSYM    DATA     BYTE      CMPCR1
      000000DEH   SFRSYM    DATA     BYTE      ADCCFG
      000000B8H   SFRSYM    DATA     BYTE      IP
      0000008FH   SFRSYM    DATA     BYTE      INTCLKO
      000000EEH   SFRSYM    DATA     BYTE      IP3H
      000000B6H   SFRSYM    DATA     BYTE      IP2H
      000000BFH   SFRSYM    DATA     BYTE      P_SW4
      000000A8H   SFRSYM    DATA     BYTE      IE
      000000BBH   SFRSYM    DATA     BYTE      P_SW3
      000000BAH   SFRSYM    DATA     BYTE      P_SW2
      000000A2H   SFRSYM    DATA     BYTE      P_SW1
      000000CEH   SFRSYM    DATA     BYTE      SPCTL
      000000F8H   SFRSYM    DATA     BYTE      P7
      000000E8H   SFRSYM    DATA     BYTE      P6
      000000C8H   SFRSYM    DATA     BYTE      P5
      000000C0H   SFRSYM    DATA     BYTE      P4
      000000ABH   SFRSYM    DATA     BYTE      WKTCH
      000000B0H   SFRSYM    DATA     BYTE      P3
      000000A0H   SFRSYM    DATA     BYTE      P2
      00000090H   SFRSYM    DATA     BYTE      P1
      00000080H   SFRSYM    DATA     BYTE      P0
      00FF60BFH   SYMBOL    CODE     ---       fifo_head_offset

      00FF60BFH   BLOCK     CODE     ---       LVL=0
      REG=7       REGSYM    ---      ---       fifo
      DR24        REGSYM    ---      DWORD     offset
      00FF60BFH   LINE      CODE     ---       #49
      00FF60C3H   LINE      CODE     ---       #51
      00FF60D0H   LINE      CODE     ---       #53
      00FF60D2H   LINE      CODE     ---       #55
      00FF60F0H   LINE      CODE     ---       #56
      00FF6104H   LINE      CODE     ---       #57
      ---         BLOCKEND  ---      ---       LVL=0
      REG=7       REGSYM    ---      ---       fifo
      DR24        REGSYM    ---      DWORD     offset
      REG=3       REGSYM    ---      ---       fifo
      REG=7       REGSYM    ---      ---       fifo

      00FF4888H   BLOCK     CODE     ---       LVL=0
      REG=3       REGSYM    ---      ---       fifo
      00010617H   SYMBOL    XDATA    ---       dat
      0001061BH   SYMBOL    XDATA    DWORD     length
      00FF4896H   BLOCK     CODE     NEAR LAB  LVL=1
      0001061FH   SYMBOL    XDATA    INT       return_state
      00010621H   SYMBOL    XDATA    DWORD     temp_length
      ---         BLOCKEND  ---      ---       LVL=1
      00FF4888H   LINE      CODE     ---       #175
      00FF4896H   LINE      CODE     ---       #176
      00FF4896H   LINE      CODE     ---       #178
      00FF489EH   LINE      CODE     ---       #179
      00FF48AAH   LINE      CODE     ---       #181
      00FF48AAH   LINE      CODE     ---       #183
      00FF48BAH   LINE      CODE     ---       #185
      00FF48BEH   LINE      CODE     ---       #186
      00FF48C0H   LINE      CODE     ---       #187
      00FF48C0H   LINE      CODE     ---       #188
      00FF48CBH   LINE      CODE     ---       #190
      00FF48D5H   LINE      CODE     ---       #191
L251 LINKER/LOCATER V4.66.93.0                                                        01/16/2025  23:25:20  PAGE 29


      00FF48D8H   LINE      CODE     ---       #192
      00FF48D8H   LINE      CODE     ---       #193
      00FF48DDH   LINE      CODE     ---       #195
      00FF48F6H   LINE      CODE     ---       #197
      00FF4912H   LINE      CODE     ---       #199
      00FF4919H   LINE      CODE     ---       #201
      00FF492FH   LINE      CODE     ---       #203
      00FF492FH   LINE      CODE     ---       #205
      00FF4949H   LINE      CODE     ---       #208
      00FF4958H   LINE      CODE     ---       #209
      00FF4981H   LINE      CODE     ---       #213
      00FF4981H   LINE      CODE     ---       #214
      00FF4984H   LINE      CODE     ---       #215
      00FF4984H   LINE      CODE     ---       #217
      00FF49AEH   LINE      CODE     ---       #220
      00FF49BDH   LINE      CODE     ---       #221
      00FF49F1H   LINE      CODE     ---       #225
      00FF49F1H   LINE      CODE     ---       #226
      00FF49F3H   LINE      CODE     ---       #227
      00FF49F3H   LINE      CODE     ---       #229
      00FF4A21H   LINE      CODE     ---       #232
      00FF4A30H   LINE      CODE     ---       #233
      00FF4A7BH   LINE      CODE     ---       #237
      00FF4A93H   LINE      CODE     ---       #238
      00FF4A93H   LINE      CODE     ---       #239
      00FF4A93H   LINE      CODE     ---       #240
      00FF4A96H   LINE      CODE     ---       #243
      00FF4AA9H   LINE      CODE     ---       #245
      00FF4AA9H   LINE      CODE     ---       #247
      00FF4ACFH   LINE      CODE     ---       #250
      00FF4ADBH   LINE      CODE     ---       #251
      00FF4ADDH   LINE      CODE     ---       #252
      00FF4ADDH   LINE      CODE     ---       #254
      00FF4B07H   LINE      CODE     ---       #257
      00FF4B13H   LINE      CODE     ---       #258
      00FF4B15H   LINE      CODE     ---       #259
      00FF4B15H   LINE      CODE     ---       #261
      00FF4B43H   LINE      CODE     ---       #264
      00FF4B52H   LINE      CODE     ---       #265
      00FF4B52H   LINE      CODE     ---       #266
      00FF4B52H   LINE      CODE     ---       #267
      00FF4B52H   LINE      CODE     ---       #269
      00FF4B72H   LINE      CODE     ---       #270
      00FF4B74H   LINE      CODE     ---       #273
      00FF4B7EH   LINE      CODE     ---       #274
      00FF4B7EH   LINE      CODE     ---       #275
      00FF4B86H   LINE      CODE     ---       #276
      00FF4B86H   LINE      CODE     ---       #278
      00FF4B8CH   LINE      CODE     ---       #279
      ---         BLOCKEND  ---      ---       LVL=0
      REG=3       REGSYM    ---      ---       fifo

      00FF01CEH   BLOCK     CODE     ---       LVL=0
      REG=7       REGSYM    ---      ---       fifo
      WR8         REGSYM    ---      INT       type
      00010616H   SYMBOL    XDATA    ---       buffer_addr
      0001061AH   SYMBOL    XDATA    DWORD     siz
      00FF01CEH   LINE      CODE     ---       #545
      00FF01D2H   LINE      CODE     ---       #548
      00FF01D2H   LINE      CODE     ---       #550
      00FF01E4H   LINE      CODE     ---       #551
      00FF01E8H   LINE      CODE     ---       #552
      00FF01ECH   LINE      CODE     ---       #553
      00FF01F6H   LINE      CODE     ---       #554
      00FF01FEH   LINE      CODE     ---       #555
L251 LINKER/LOCATER V4.66.93.0                                                        01/16/2025  23:25:20  PAGE 30


      00FF0210H   LINE      CODE     ---       #556
      00FF0218H   LINE      CODE     ---       #557
      00FF0218H   LINE      CODE     ---       #558
      00FF021AH   LINE      CODE     ---       #559
      ---         BLOCKEND  ---      ---       LVL=0

      ---         MODULE    ---      ---       zf_common_font
      00FF3920H   PUBLIC    CODE     ---       tft_ascii
      00FF3F10H   PUBLIC    CODE     ---       ascii_font_6x8
      000000D0H   SFRSYM    DATA     BYTE      PSW
      0000009DH   SFRSYM    DATA     BYTE      IRCBAND
      00000097H   SFRSYM    DATA     BYTE      AUXR2
      000000EFH   SFRSYM    DATA     BYTE      AUXINTIF
      000000FDH   SFRSYM    DATA     BYTE      S4CON
      000000ACH   SFRSYM    DATA     BYTE      S3CON
      0000009AH   SFRSYM    DATA     BYTE      S2CON
      000000B7H   SFRSYM    DATA     BYTE      IPH
      000000CDH   SFRSYM    DATA     BYTE      SPSTAT
      000000DDH   SFRSYM    DATA     BYTE      T4T3M
      000000C1H   SFRSYM    DATA     BYTE      WDT_CONTR
      000000DFH   SFRSYM    DATA     BYTE      IP3
      000000F4H   SFRSYM    DATA     BYTE      USBCON
      000000B5H   SFRSYM    DATA     BYTE      IP2
      000000FFH   SFRSYM    DATA     BYTE      RSTCFG
      000000C7H   SFRSYM    DATA     BYTE      IAP_CONTR
      0000008EH   SFRSYM    DATA     BYTE      AUXR
      000000AFH   SFRSYM    DATA     BYTE      IE2
      00000088H   SFRSYM    DATA     BYTE      TCON
      00000089H   SFRSYM    DATA     BYTE      TMOD
      00000098H   SFRSYM    DATA     BYTE      SCON
      00000087H   SFRSYM    DATA     BYTE      PCON
      000000BCH   SFRSYM    DATA     BYTE      ADC_CONTR
      000000D1H   SFRSYM    DATA     BYTE      PSW1
      000000E7H   SFRSYM    DATA     BYTE      CMPCR2
      000000E6H   SFRSYM    DATA     BYTE      CMPCR1
      000000DEH   SFRSYM    DATA     BYTE      ADCCFG
      000000B8H   SFRSYM    DATA     BYTE      IP
      0000008FH   SFRSYM    DATA     BYTE      INTCLKO
      000000EEH   SFRSYM    DATA     BYTE      IP3H
      000000B6H   SFRSYM    DATA     BYTE      IP2H
      000000BFH   SFRSYM    DATA     BYTE      P_SW4
      000000A8H   SFRSYM    DATA     BYTE      IE
      000000BBH   SFRSYM    DATA     BYTE      P_SW3
      000000BAH   SFRSYM    DATA     BYTE      P_SW2
      000000A2H   SFRSYM    DATA     BYTE      P_SW1
      000000CEH   SFRSYM    DATA     BYTE      SPCTL
      000000F8H   SFRSYM    DATA     BYTE      P7
      000000E8H   SFRSYM    DATA     BYTE      P6
      000000C8H   SFRSYM    DATA     BYTE      P5
      000000C0H   SFRSYM    DATA     BYTE      P4
      000000ABH   SFRSYM    DATA     BYTE      WKTCH
      000000B0H   SFRSYM    DATA     BYTE      P3
      000000A0H   SFRSYM    DATA     BYTE      P2
      00000090H   SFRSYM    DATA     BYTE      P1
      00000080H   SFRSYM    DATA     BYTE      P0

      ---         MODULE    ---      ---       zf_common_function
      000000D0H   SFRSYM    DATA     BYTE      PSW
      0000009DH   SFRSYM    DATA     BYTE      IRCBAND
      00000097H   SFRSYM    DATA     BYTE      AUXR2
      000000EFH   SFRSYM    DATA     BYTE      AUXINTIF
      000000FDH   SFRSYM    DATA     BYTE      S4CON
      000000ACH   SFRSYM    DATA     BYTE      S3CON
      0000009AH   SFRSYM    DATA     BYTE      S2CON
      000000B7H   SFRSYM    DATA     BYTE      IPH
L251 LINKER/LOCATER V4.66.93.0                                                        01/16/2025  23:25:20  PAGE 31


      000000CDH   SFRSYM    DATA     BYTE      SPSTAT
      000000DDH   SFRSYM    DATA     BYTE      T4T3M
      000000C1H   SFRSYM    DATA     BYTE      WDT_CONTR
      000000DFH   SFRSYM    DATA     BYTE      IP3
      000000F4H   SFRSYM    DATA     BYTE      USBCON
      000000B5H   SFRSYM    DATA     BYTE      IP2
      000000FFH   SFRSYM    DATA     BYTE      RSTCFG
      000000C7H   SFRSYM    DATA     BYTE      IAP_CONTR
      0000008EH   SFRSYM    DATA     BYTE      AUXR
      000000AFH   SFRSYM    DATA     BYTE      IE2
      00000088H   SFRSYM    DATA     BYTE      TCON
      00000089H   SFRSYM    DATA     BYTE      TMOD
      00000098H   SFRSYM    DATA     BYTE      SCON
      00000087H   SFRSYM    DATA     BYTE      PCON
      000000BCH   SFRSYM    DATA     BYTE      ADC_CONTR
      000000D1H   SFRSYM    DATA     BYTE      PSW1
      000000E7H   SFRSYM    DATA     BYTE      CMPCR2
      000000E6H   SFRSYM    DATA     BYTE      CMPCR1
      000000DEH   SFRSYM    DATA     BYTE      ADCCFG
      000000B8H   SFRSYM    DATA     BYTE      IP
      0000008FH   SFRSYM    DATA     BYTE      INTCLKO
      000000EEH   SFRSYM    DATA     BYTE      IP3H
      000000B6H   SFRSYM    DATA     BYTE      IP2H
      000000BFH   SFRSYM    DATA     BYTE      P_SW4
      000000A8H   SFRSYM    DATA     BYTE      IE
      000000BBH   SFRSYM    DATA     BYTE      P_SW3
      000000BAH   SFRSYM    DATA     BYTE      P_SW2
      000000A2H   SFRSYM    DATA     BYTE      P_SW1
      000000CEH   SFRSYM    DATA     BYTE      SPCTL
      000000F8H   SFRSYM    DATA     BYTE      P7
      000000E8H   SFRSYM    DATA     BYTE      P6
      000000C8H   SFRSYM    DATA     BYTE      P5
      000000C0H   SFRSYM    DATA     BYTE      P4
      000000ABH   SFRSYM    DATA     BYTE      WKTCH
      000000B0H   SFRSYM    DATA     BYTE      P3
      000000A0H   SFRSYM    DATA     BYTE      P2
      00000090H   SFRSYM    DATA     BYTE      P1
      00000080H   SFRSYM    DATA     BYTE      P0
      00FF7009H   SYMBOL    HCONST   ---       ?tpl?0001
      DR8         REGSYM    ---      DWORD     num1
      DR28        REGSYM    ---      DWORD     num2
      REG=7       REGSYM    ---      ---       str
      R10         REGSYM    ---      BYTE      sign
      DR24        REGSYM    ---      LONG      temp
      REG=7       REGSYM    ---      ---       str
      DR24        REGSYM    ---      LONG      number
      R15         REGSYM    ---      BYTE      temp_bit
      DR20        REGSYM    ---      LONG      number_temp
      REG=2       REGSYM    ---      ---       str
      DR28        REGSYM    ---      DWORD     temp
      REG=7       REGSYM    ---      ---       str
      DR24        REGSYM    ---      DWORD     number
      R15         REGSYM    ---      BYTE      temp_bit
      REG=7       REGSYM    ---      ---       str
      DR24        REGSYM    ---      FLOAT     temp
      DR12        REGSYM    ---      FLOAT     temp_point
      REG=7       REGSYM    ---      ---       str
      DR24        REGSYM    ---      FLOAT     number
      R15         REGSYM    ---      BYTE      point_bit
      WR20        REGSYM    ---      INT       data_int
      WR22        REGSYM    ---      INT       data_float
      R14         REGSYM    ---      BYTE      temp_bit
      REG=3       REGSYM    ---      ---       str
      REG=3       REGSYM    ---      ---       str
      REG=3       REGSYM    ---      ---       str
L251 LINKER/LOCATER V4.66.93.0                                                        01/16/2025  23:25:20  PAGE 32


      DR24        REGSYM    ---      DWORD     str_len
      DR28        REGSYM    ---      DWORD     result_data
      R9          REGSYM    ---      BYTE      temp
      R8          REGSYM    ---      BYTE      flag
      REG=7       REGSYM    ---      ---       str
      DR24        REGSYM    ---      DWORD     number
      R10         REGSYM    ---      BYTE      temp_bit
      DR24        REGSYM    ---      DWORD     dat
      REG=7       REGSYM    ---      ---       p
      R10         REGSYM    ---      BYTE      neg_type
      DR20        REGSYM    ---      LONG      neg_dat
      DR24        REGSYM    ---      DWORD     pos_dat
      R14         REGSYM    ---      BYTE      temp_data
      R15         REGSYM    ---      BYTE      valid_num
      REG=7       REGSYM    ---      ---       d_buff
      DR24        REGSYM    ---      DWORD     len
      DR4         REGSYM    ---      DWORD     i
      R3          REGSYM    ---      CHAR      temp_data
      REG=3       REGSYM    ---      ---       buff

      ---         MODULE    ---      ---       zf_common_typedef
      0001063FH   PUBLIC    XDATA    ---       tim11_irq_handler
      00010641H   PUBLIC    XDATA    ---       uart1_irq_handler
      00010643H   PUBLIC    XDATA    ---       uart2_irq_handler
      00010645H   PUBLIC    XDATA    ---       uart3_irq_handler
      00010647H   PUBLIC    XDATA    ---       uart4_irq_handler
      00010649H   PUBLIC    XDATA    ---       tim0_irq_handler
      0001064BH   PUBLIC    XDATA    ---       int0_irq_handler
      0001064DH   PUBLIC    XDATA    ---       tim1_irq_handler
      0001064FH   PUBLIC    XDATA    ---       int1_irq_handler
      00010651H   PUBLIC    XDATA    ---       tim2_irq_handler
      00010653H   PUBLIC    XDATA    ---       int2_irq_handler
      00010655H   PUBLIC    XDATA    ---       tim3_irq_handler
      00010657H   PUBLIC    XDATA    ---       int3_irq_handler
      00010659H   PUBLIC    XDATA    ---       tim4_irq_handler
      0001065BH   PUBLIC    XDATA    ---       int4_irq_handler
      000000D0H   SFRSYM    DATA     BYTE      PSW
      0000009DH   SFRSYM    DATA     BYTE      IRCBAND
      00000097H   SFRSYM    DATA     BYTE      AUXR2
      000000EFH   SFRSYM    DATA     BYTE      AUXINTIF
      000000FDH   SFRSYM    DATA     BYTE      S4CON
      000000ACH   SFRSYM    DATA     BYTE      S3CON
      0000009AH   SFRSYM    DATA     BYTE      S2CON
      000000B7H   SFRSYM    DATA     BYTE      IPH
      000000CDH   SFRSYM    DATA     BYTE      SPSTAT
      000000DDH   SFRSYM    DATA     BYTE      T4T3M
      000000C1H   SFRSYM    DATA     BYTE      WDT_CONTR
      000000DFH   SFRSYM    DATA     BYTE      IP3
      000000F4H   SFRSYM    DATA     BYTE      USBCON
      000000B5H   SFRSYM    DATA     BYTE      IP2
      000000FFH   SFRSYM    DATA     BYTE      RSTCFG
      000000C7H   SFRSYM    DATA     BYTE      IAP_CONTR
      0000008EH   SFRSYM    DATA     BYTE      AUXR
      000000AFH   SFRSYM    DATA     BYTE      IE2
      00000088H   SFRSYM    DATA     BYTE      TCON
      00000089H   SFRSYM    DATA     BYTE      TMOD
      00000098H   SFRSYM    DATA     BYTE      SCON
      00000087H   SFRSYM    DATA     BYTE      PCON
      000000BCH   SFRSYM    DATA     BYTE      ADC_CONTR
      000000D1H   SFRSYM    DATA     BYTE      PSW1
      000000E7H   SFRSYM    DATA     BYTE      CMPCR2
      000000E6H   SFRSYM    DATA     BYTE      CMPCR1
      000000DEH   SFRSYM    DATA     BYTE      ADCCFG
      000000B8H   SFRSYM    DATA     BYTE      IP
      0000008FH   SFRSYM    DATA     BYTE      INTCLKO
L251 LINKER/LOCATER V4.66.93.0                                                        01/16/2025  23:25:20  PAGE 33


      000000EEH   SFRSYM    DATA     BYTE      IP3H
      000000B6H   SFRSYM    DATA     BYTE      IP2H
      000000BFH   SFRSYM    DATA     BYTE      P_SW4
      000000A8H   SFRSYM    DATA     BYTE      IE
      000000BBH   SFRSYM    DATA     BYTE      P_SW3
      000000BAH   SFRSYM    DATA     BYTE      P_SW2
      000000A2H   SFRSYM    DATA     BYTE      P_SW1
      000000CEH   SFRSYM    DATA     BYTE      SPCTL
      000000F8H   SFRSYM    DATA     BYTE      P7
      000000E8H   SFRSYM    DATA     BYTE      P6
      000000C8H   SFRSYM    DATA     BYTE      P5
      000000C0H   SFRSYM    DATA     BYTE      P4
      000000ABH   SFRSYM    DATA     BYTE      WKTCH
      000000B0H   SFRSYM    DATA     BYTE      P3
      000000A0H   SFRSYM    DATA     BYTE      P2
      00000090H   SFRSYM    DATA     BYTE      P1
      00000080H   SFRSYM    DATA     BYTE      P0

      ---         MODULE    ---      ---       zf_common_interrupt
      00FF0003H   PUBLIC    CODE     ---       interrupt_global_enable
      000000D0H   SFRSYM    DATA     BYTE      PSW
      0000009DH   SFRSYM    DATA     BYTE      IRCBAND
      00000097H   SFRSYM    DATA     BYTE      AUXR2
      000000EFH   SFRSYM    DATA     BYTE      AUXINTIF
      000000FDH   SFRSYM    DATA     BYTE      S4CON
      000000ACH   SFRSYM    DATA     BYTE      S3CON
      0000009AH   SFRSYM    DATA     BYTE      S2CON
      000000B7H   SFRSYM    DATA     BYTE      IPH
      000000CDH   SFRSYM    DATA     BYTE      SPSTAT
      000000DDH   SFRSYM    DATA     BYTE      T4T3M
      000000C1H   SFRSYM    DATA     BYTE      WDT_CONTR
      000000DFH   SFRSYM    DATA     BYTE      IP3
      000000F4H   SFRSYM    DATA     BYTE      USBCON
      000000B5H   SFRSYM    DATA     BYTE      IP2
      000000FFH   SFRSYM    DATA     BYTE      RSTCFG
      000000C7H   SFRSYM    DATA     BYTE      IAP_CONTR
      0000008EH   SFRSYM    DATA     BYTE      AUXR
      000000AFH   SFRSYM    DATA     BYTE      IE2
      00000088H   SFRSYM    DATA     BYTE      TCON
      00000089H   SFRSYM    DATA     BYTE      TMOD
      00000098H   SFRSYM    DATA     BYTE      SCON
      00000087H   SFRSYM    DATA     BYTE      PCON
      000000BCH   SFRSYM    DATA     BYTE      ADC_CONTR
      000000D1H   SFRSYM    DATA     BYTE      PSW1
      000000E7H   SFRSYM    DATA     BYTE      CMPCR2
      000000E6H   SFRSYM    DATA     BYTE      CMPCR1
      000000DEH   SFRSYM    DATA     BYTE      ADCCFG
      000000B8H   SFRSYM    DATA     BYTE      IP
      0000008FH   SFRSYM    DATA     BYTE      INTCLKO
      000000EEH   SFRSYM    DATA     BYTE      IP3H
      000000B6H   SFRSYM    DATA     BYTE      IP2H
      000000BFH   SFRSYM    DATA     BYTE      P_SW4
      000000A8H   SFRSYM    DATA     BYTE      IE
      000000BBH   SFRSYM    DATA     BYTE      P_SW3
      000000BAH   SFRSYM    DATA     BYTE      P_SW2
      000000A2H   SFRSYM    DATA     BYTE      P_SW1
      000000CEH   SFRSYM    DATA     BYTE      SPCTL
      000000F8H   SFRSYM    DATA     BYTE      P7
      000000A8H.7 SFRSYM    DATA     BIT       EA
      000000E8H   SFRSYM    DATA     BYTE      P6
      000000C8H   SFRSYM    DATA     BYTE      P5
      000000C0H   SFRSYM    DATA     BYTE      P4
      000000ABH   SFRSYM    DATA     BYTE      WKTCH
      000000B0H   SFRSYM    DATA     BYTE      P3
      000000A0H   SFRSYM    DATA     BYTE      P2
L251 LINKER/LOCATER V4.66.93.0                                                        01/16/2025  23:25:20  PAGE 34


      00000090H   SFRSYM    DATA     BYTE      P1
      00000080H   SFRSYM    DATA     BYTE      P0
      WR4         REGSYM    ---      INT       irqn
      R3          REGSYM    ---      BYTE      priority

      00FF0003H   BLOCK     CODE     ---       LVL=0
      00FF0003H   LINE      CODE     ---       #88
      00FF0003H   LINE      CODE     ---       #90
      00FF0005H   LINE      CODE     ---       #91
      ---         BLOCKEND  ---      ---       LVL=0

      ---         MODULE    ---      ---       zf_driver_adc
      00FF5C42H   PUBLIC    CODE     ---       adc_init
      00000094H   SFRSYM    DATA     BYTE      P0M0
      000000D0H   SFRSYM    DATA     BYTE      PSW
      0000009DH   SFRSYM    DATA     BYTE      IRCBAND
      00000097H   SFRSYM    DATA     BYTE      AUXR2
      000000EFH   SFRSYM    DATA     BYTE      AUXINTIF
      000000FDH   SFRSYM    DATA     BYTE      S4CON
      000000ACH   SFRSYM    DATA     BYTE      S3CON
      0000009AH   SFRSYM    DATA     BYTE      S2CON
      000000B7H   SFRSYM    DATA     BYTE      IPH
      000000CDH   SFRSYM    DATA     BYTE      SPSTAT
      000000BEH   SFRSYM    DATA     BYTE      ADC_RESL
      000000DDH   SFRSYM    DATA     BYTE      T4T3M
      000000C1H   SFRSYM    DATA     BYTE      WDT_CONTR
      000000DFH   SFRSYM    DATA     BYTE      IP3
      000000F4H   SFRSYM    DATA     BYTE      USBCON
      000000B5H   SFRSYM    DATA     BYTE      IP2
      000000FFH   SFRSYM    DATA     BYTE      RSTCFG
      000000C7H   SFRSYM    DATA     BYTE      IAP_CONTR
      0000008EH   SFRSYM    DATA     BYTE      AUXR
      000000AFH   SFRSYM    DATA     BYTE      IE2
      00000088H   SFRSYM    DATA     BYTE      TCON
      00000089H   SFRSYM    DATA     BYTE      TMOD
      00000098H   SFRSYM    DATA     BYTE      SCON
      00000087H   SFRSYM    DATA     BYTE      PCON
      000000BCH   SFRSYM    DATA     BYTE      ADC_CONTR
      000000D1H   SFRSYM    DATA     BYTE      PSW1
      000000E7H   SFRSYM    DATA     BYTE      CMPCR2
      000000E6H   SFRSYM    DATA     BYTE      CMPCR1
      000000DEH   SFRSYM    DATA     BYTE      ADCCFG
      000000B8H   SFRSYM    DATA     BYTE      IP
      0000008FH   SFRSYM    DATA     BYTE      INTCLKO
      000000EEH   SFRSYM    DATA     BYTE      IP3H
      000000B6H   SFRSYM    DATA     BYTE      IP2H
      000000BDH   SFRSYM    DATA     BYTE      ADC_RES
      000000BFH   SFRSYM    DATA     BYTE      P_SW4
      000000A8H   SFRSYM    DATA     BYTE      IE
      000000BBH   SFRSYM    DATA     BYTE      P_SW3
      000000BAH   SFRSYM    DATA     BYTE      P_SW2
      000000A2H   SFRSYM    DATA     BYTE      P_SW1
      000000CEH   SFRSYM    DATA     BYTE      SPCTL
      000000F8H   SFRSYM    DATA     BYTE      P7
      000000E8H   SFRSYM    DATA     BYTE      P6
      000000C8H   SFRSYM    DATA     BYTE      P5
      000000C0H   SFRSYM    DATA     BYTE      P4
      000000ABH   SFRSYM    DATA     BYTE      WKTCH
      000000B0H   SFRSYM    DATA     BYTE      P3
      000000A0H   SFRSYM    DATA     BYTE      P2
      00000090H   SFRSYM    DATA     BYTE      P1
      00000080H   SFRSYM    DATA     BYTE      P0
      00000091H   SFRSYM    DATA     BYTE      P1M1
      00000092H   SFRSYM    DATA     BYTE      P1M0
      00000093H   SFRSYM    DATA     BYTE      P0M1
L251 LINKER/LOCATER V4.66.93.0                                                        01/16/2025  23:25:20  PAGE 35


      0001072AH   SYMBOL    XDATA    BYTE      adc_resolution
      WR14        REGSYM    ---      INT       ch
      R13         REGSYM    ---      BYTE      count
      R12         REGSYM    ---      BYTE      i
      WR6         REGSYM    ---      INT       ch
      WR6         REGSYM    ---      WORD      adc_value

      00FF5C42H   BLOCK     CODE     ---       LVL=0
      WR4         REGSYM    ---      INT       ch
      WR2         REGSYM    ---      INT       resolution
      00FF5C42H   LINE      CODE     ---       #108
      00FF5C46H   LINE      CODE     ---       #110
      00FF5C49H   LINE      CODE     ---       #112
      00FF5C4CH   LINE      CODE     ---       #113
      00FF5C52H   LINE      CODE     ---       #115
      00FF5C5EH   LINE      CODE     ---       #118
      00FF5C73H   LINE      CODE     ---       #119
      00FF5C77H   LINE      CODE     ---       #120
      00FF5C79H   LINE      CODE     ---       #121
      00FF5C7DH   LINE      CODE     ---       #124
      00FF5C92H   LINE      CODE     ---       #125
      00FF5C96H   LINE      CODE     ---       #126
      00FF5C96H   LINE      CODE     ---       #128
      00FF5C99H   LINE      CODE     ---       #130
      00FF5C9CH   LINE      CODE     ---       #132
      00FF5CA2H   LINE      CODE     ---       #133
      ---         BLOCKEND  ---      ---       LVL=0

      ---         MODULE    ---      ---       zf_driver_delay
      00FF5F06H   PUBLIC    CODE     ---       system_delay_init
      00FF5E15H   PUBLIC    CODE     ---       system_delay_ms
      000000D0H   SFRSYM    DATA     BYTE      PSW
      0000009DH   SFRSYM    DATA     BYTE      IRCBAND
      00000097H   SFRSYM    DATA     BYTE      AUXR2
      000000EFH   SFRSYM    DATA     BYTE      AUXINTIF
      000000FDH   SFRSYM    DATA     BYTE      S4CON
      000000ACH   SFRSYM    DATA     BYTE      S3CON
      0000009AH   SFRSYM    DATA     BYTE      S2CON
      000000B7H   SFRSYM    DATA     BYTE      IPH
      000000CDH   SFRSYM    DATA     BYTE      SPSTAT
      000000DDH   SFRSYM    DATA     BYTE      T4T3M
      000000C1H   SFRSYM    DATA     BYTE      WDT_CONTR
      000000DFH   SFRSYM    DATA     BYTE      IP3
      000000F4H   SFRSYM    DATA     BYTE      USBCON
      000000B5H   SFRSYM    DATA     BYTE      IP2
      000000FFH   SFRSYM    DATA     BYTE      RSTCFG
      000000C7H   SFRSYM    DATA     BYTE      IAP_CONTR
      0000008EH   SFRSYM    DATA     BYTE      AUXR
      000000AFH   SFRSYM    DATA     BYTE      IE2
      00000088H   SFRSYM    DATA     BYTE      TCON
      00000089H   SFRSYM    DATA     BYTE      TMOD
      00000098H   SFRSYM    DATA     BYTE      SCON
      00000087H   SFRSYM    DATA     BYTE      PCON
      000000BCH   SFRSYM    DATA     BYTE      ADC_CONTR
      000000D1H   SFRSYM    DATA     BYTE      PSW1
      000000E7H   SFRSYM    DATA     BYTE      CMPCR2
      000000E6H   SFRSYM    DATA     BYTE      CMPCR1
      000000DEH   SFRSYM    DATA     BYTE      ADCCFG
      000000B8H   SFRSYM    DATA     BYTE      IP
      0000008FH   SFRSYM    DATA     BYTE      INTCLKO
      000000EEH   SFRSYM    DATA     BYTE      IP3H
      000000B6H   SFRSYM    DATA     BYTE      IP2H
      000000BFH   SFRSYM    DATA     BYTE      P_SW4
      000000A8H   SFRSYM    DATA     BYTE      IE
      000000BBH   SFRSYM    DATA     BYTE      P_SW3
L251 LINKER/LOCATER V4.66.93.0                                                        01/16/2025  23:25:20  PAGE 36


      000000BAH   SFRSYM    DATA     BYTE      P_SW2
      000000A2H   SFRSYM    DATA     BYTE      P_SW1
      000000CEH   SFRSYM    DATA     BYTE      SPCTL
      000000F8H   SFRSYM    DATA     BYTE      P7
      000000E8H   SFRSYM    DATA     BYTE      P6
      000000C8H   SFRSYM    DATA     BYTE      P5
      000000C0H   SFRSYM    DATA     BYTE      P4
      000000ABH   SFRSYM    DATA     BYTE      WKTCH
      000000B0H   SFRSYM    DATA     BYTE      P3
      000000A0H   SFRSYM    DATA     BYTE      P2
      00000090H   SFRSYM    DATA     BYTE      P1
      00000080H   SFRSYM    DATA     BYTE      P0
      0001071BH   SYMBOL    XDATA    WORD      pca_delay_1ms
      0001071DH   SYMBOL    XDATA    WORD      pca_delay_1us

      00FF5F06H   BLOCK     CODE     ---       LVL=0
      00FF5F06H   LINE      CODE     ---       #48
      00FF5F06H   LINE      CODE     ---       #50
      00FF5F1FH   LINE      CODE     ---       #51
      00FF5F32H   LINE      CODE     ---       #53
      00FF5F3FH   LINE      CODE     ---       #54
      00FF5F48H   LINE      CODE     ---       #55
      00FF5F54H   LINE      CODE     ---       #57
      ---         BLOCKEND  ---      ---       LVL=0

      00FF5E15H   BLOCK     CODE     ---       LVL=0
      WR8         REGSYM    ---      WORD      ms
      00FF5E17H   BLOCK     CODE     NEAR LAB  LVL=1
      WR6         REGSYM    ---      WORD      temp
      ---         BLOCKEND  ---      ---       LVL=1
      00FF5E15H   LINE      CODE     ---       #65
      00FF5E17H   LINE      CODE     ---       #66
      00FF5E17H   LINE      CODE     ---       #69
      00FF5E19H   LINE      CODE     ---       #71
      00FF5E39H   LINE      CODE     ---       #73
      00FF5E40H   LINE      CODE     ---       #74
      00FF5E47H   LINE      CODE     ---       #76
      00FF5E55H   LINE      CODE     ---       #77
      00FF5E5DH   LINE      CODE     ---       #78
      00FF5E65H   LINE      CODE     ---       #79
      ---         BLOCKEND  ---      ---       LVL=0
      WR8         REGSYM    ---      WORD      ms
      WR6         REGSYM    ---      WORD      temp

      ---         MODULE    ---      ---       zf_driver_eeprom
      000000D0H   SFRSYM    DATA     BYTE      PSW
      0000009DH   SFRSYM    DATA     BYTE      IRCBAND
      00000097H   SFRSYM    DATA     BYTE      AUXR2
      000000C6H   SFRSYM    DATA     BYTE      IAP_TRIG
      000000EFH   SFRSYM    DATA     BYTE      AUXINTIF
      000000FDH   SFRSYM    DATA     BYTE      S4CON
      000000ACH   SFRSYM    DATA     BYTE      S3CON
      0000009AH   SFRSYM    DATA     BYTE      S2CON
      000000B7H   SFRSYM    DATA     BYTE      IPH
      000000CDH   SFRSYM    DATA     BYTE      SPSTAT
      000000DDH   SFRSYM    DATA     BYTE      T4T3M
      000000C1H   SFRSYM    DATA     BYTE      WDT_CONTR
      000000C2H   SFRSYM    DATA     BYTE      IAP_DATA
      000000DFH   SFRSYM    DATA     BYTE      IP3
      000000F4H   SFRSYM    DATA     BYTE      USBCON
      000000B5H   SFRSYM    DATA     BYTE      IP2
      000000FFH   SFRSYM    DATA     BYTE      RSTCFG
      000000C7H   SFRSYM    DATA     BYTE      IAP_CONTR
      0000008EH   SFRSYM    DATA     BYTE      AUXR
      000000AFH   SFRSYM    DATA     BYTE      IE2
L251 LINKER/LOCATER V4.66.93.0                                                        01/16/2025  23:25:20  PAGE 37


      00000088H   SFRSYM    DATA     BYTE      TCON
      00000089H   SFRSYM    DATA     BYTE      TMOD
      00000098H   SFRSYM    DATA     BYTE      SCON
      000000F5H   SFRSYM    DATA     BYTE      IAP_TPS
      00000087H   SFRSYM    DATA     BYTE      PCON
      000000BCH   SFRSYM    DATA     BYTE      ADC_CONTR
      000000D1H   SFRSYM    DATA     BYTE      PSW1
      000000E7H   SFRSYM    DATA     BYTE      CMPCR2
      000000E6H   SFRSYM    DATA     BYTE      CMPCR1
      000000C4H   SFRSYM    DATA     BYTE      IAP_ADDRL
      000000C3H   SFRSYM    DATA     BYTE      IAP_ADDRH
      000000F6H   SFRSYM    DATA     BYTE      IAP_ADDRE
      000000DEH   SFRSYM    DATA     BYTE      ADCCFG
      000000B8H   SFRSYM    DATA     BYTE      IP
      0000008FH   SFRSYM    DATA     BYTE      INTCLKO
      000000EEH   SFRSYM    DATA     BYTE      IP3H
      000000B6H   SFRSYM    DATA     BYTE      IP2H
      000000C5H   SFRSYM    DATA     BYTE      IAP_CMD
      000000BFH   SFRSYM    DATA     BYTE      P_SW4
      000000A8H   SFRSYM    DATA     BYTE      IE
      000000BBH   SFRSYM    DATA     BYTE      P_SW3
      000000BAH   SFRSYM    DATA     BYTE      P_SW2
      000000A2H   SFRSYM    DATA     BYTE      P_SW1
      000000CEH   SFRSYM    DATA     BYTE      SPCTL
      000000F8H   SFRSYM    DATA     BYTE      P7
      000000A8H.7 SFRSYM    DATA     BIT       EA
      000000E8H   SFRSYM    DATA     BYTE      P6
      000000C8H   SFRSYM    DATA     BYTE      P5
      000000C0H   SFRSYM    DATA     BYTE      P4
      000000ABH   SFRSYM    DATA     BYTE      WKTCH
      000000B0H   SFRSYM    DATA     BYTE      P3
      000000A0H   SFRSYM    DATA     BYTE      P2
      00000090H   SFRSYM    DATA     BYTE      P1
      00000080H   SFRSYM    DATA     BYTE      P0
      00FF685BH   SYMBOL    HCONST   ---       ?tpl?0001
      R7          REGSYM    ---      BYTE      write_time
      DR4         REGSYM    ---      DWORD     addr
      R11         REGSYM    ---      BYTE      temp
      DR4         REGSYM    ---      DWORD     addr
      R15         REGSYM    ---      BYTE      byte
      REG=3       REGSYM    ---      ---       buf
      REG=3       REGSYM    ---      ---       buf
      DR0         REGSYM    ---      DWORD     addr
      REG=3       REGSYM    ---      ---       buf

      ---         MODULE    ---      ---       zf_driver_encoder
      000000D0H   SFRSYM    DATA     BYTE      PSW
      0000009DH   SFRSYM    DATA     BYTE      IRCBAND
      00000097H   SFRSYM    DATA     BYTE      AUXR2
      000000EFH   SFRSYM    DATA     BYTE      AUXINTIF
      000000FDH   SFRSYM    DATA     BYTE      S4CON
      000000ACH   SFRSYM    DATA     BYTE      S3CON
      0000009AH   SFRSYM    DATA     BYTE      S2CON
      000000B7H   SFRSYM    DATA     BYTE      IPH
      000000CDH   SFRSYM    DATA     BYTE      SPSTAT
      000000DDH   SFRSYM    DATA     BYTE      T4T3M
      000000C1H   SFRSYM    DATA     BYTE      WDT_CONTR
      00000088H.6 SFRSYM    DATA     BIT       TR1
      00000088H.4 SFRSYM    DATA     BIT       TR0
      000000D3H   SFRSYM    DATA     BYTE      T4L
      000000D5H   SFRSYM    DATA     BYTE      T3L
      000000D7H   SFRSYM    DATA     BYTE      T2L
      0000008BH   SFRSYM    DATA     BYTE      TL1
      0000008AH   SFRSYM    DATA     BYTE      TL0
      000000D2H   SFRSYM    DATA     BYTE      T4H
L251 LINKER/LOCATER V4.66.93.0                                                        01/16/2025  23:25:20  PAGE 38


      000000D4H   SFRSYM    DATA     BYTE      T3H
      000000D6H   SFRSYM    DATA     BYTE      T2H
      0000008DH   SFRSYM    DATA     BYTE      TH1
      0000008CH   SFRSYM    DATA     BYTE      TH0
      000000DFH   SFRSYM    DATA     BYTE      IP3
      000000F4H   SFRSYM    DATA     BYTE      USBCON
      000000B5H   SFRSYM    DATA     BYTE      IP2
      000000FFH   SFRSYM    DATA     BYTE      RSTCFG
      000000C7H   SFRSYM    DATA     BYTE      IAP_CONTR
      0000008EH   SFRSYM    DATA     BYTE      AUXR
      000000AFH   SFRSYM    DATA     BYTE      IE2
      00000088H   SFRSYM    DATA     BYTE      TCON
      00000089H   SFRSYM    DATA     BYTE      TMOD
      00000098H   SFRSYM    DATA     BYTE      SCON
      00000087H   SFRSYM    DATA     BYTE      PCON
      000000BCH   SFRSYM    DATA     BYTE      ADC_CONTR
      000000D1H   SFRSYM    DATA     BYTE      PSW1
      000000E7H   SFRSYM    DATA     BYTE      CMPCR2
      000000E6H   SFRSYM    DATA     BYTE      CMPCR1
      000000DEH   SFRSYM    DATA     BYTE      ADCCFG
      000000B8H   SFRSYM    DATA     BYTE      IP
      0000008FH   SFRSYM    DATA     BYTE      INTCLKO
      000000EEH   SFRSYM    DATA     BYTE      IP3H
      000000B6H   SFRSYM    DATA     BYTE      IP2H
      000000BFH   SFRSYM    DATA     BYTE      P_SW4
      000000A8H   SFRSYM    DATA     BYTE      IE
      000000BBH   SFRSYM    DATA     BYTE      P_SW3
      000000BAH   SFRSYM    DATA     BYTE      P_SW2
      000000A2H   SFRSYM    DATA     BYTE      P_SW1
      000000CEH   SFRSYM    DATA     BYTE      SPCTL
      000000F8H   SFRSYM    DATA     BYTE      P7
      000000E8H   SFRSYM    DATA     BYTE      P6
      000000C8H   SFRSYM    DATA     BYTE      P5
      000000C0H   SFRSYM    DATA     BYTE      P4
      000000ABH   SFRSYM    DATA     BYTE      WKTCH
      000000B0H   SFRSYM    DATA     BYTE      P3
      000000A0H   SFRSYM    DATA     BYTE      P2
      00000090H   SFRSYM    DATA     BYTE      P1
      00000080H   SFRSYM    DATA     BYTE      P0
      00010711H   SYMBOL    XDATA    ---       encoder_dir_pin
      WR2         REGSYM    ---      INT       encoder_n
      WR14        REGSYM    ---      INT       dat
      WR6         REGSYM    ---      INT       encoder_n
      WR12        REGSYM    ---      INT       encoder_n
      WR14        REGSYM    ---      INT       dir_pin

      ---         MODULE    ---      ---       zf_driver_exti
      000000D0H   SFRSYM    DATA     BYTE      PSW
      0000009DH   SFRSYM    DATA     BYTE      IRCBAND
      00000097H   SFRSYM    DATA     BYTE      AUXR2
      000000EFH   SFRSYM    DATA     BYTE      AUXINTIF
      000000FDH   SFRSYM    DATA     BYTE      S4CON
      000000ACH   SFRSYM    DATA     BYTE      S3CON
      0000009AH   SFRSYM    DATA     BYTE      S2CON
      000000B7H   SFRSYM    DATA     BYTE      IPH
      000000CDH   SFRSYM    DATA     BYTE      SPSTAT
      000000DDH   SFRSYM    DATA     BYTE      T4T3M
      000000C1H   SFRSYM    DATA     BYTE      WDT_CONTR
      000000DFH   SFRSYM    DATA     BYTE      IP3
      000000F4H   SFRSYM    DATA     BYTE      USBCON
      000000B5H   SFRSYM    DATA     BYTE      IP2
      000000FFH   SFRSYM    DATA     BYTE      RSTCFG
      000000C7H   SFRSYM    DATA     BYTE      IAP_CONTR
      0000008EH   SFRSYM    DATA     BYTE      AUXR
      000000AFH   SFRSYM    DATA     BYTE      IE2
L251 LINKER/LOCATER V4.66.93.0                                                        01/16/2025  23:25:20  PAGE 39


      00000088H   SFRSYM    DATA     BYTE      TCON
      00000089H   SFRSYM    DATA     BYTE      TMOD
      00000098H   SFRSYM    DATA     BYTE      SCON
      00000087H   SFRSYM    DATA     BYTE      PCON
      000000BCH   SFRSYM    DATA     BYTE      ADC_CONTR
      000000D1H   SFRSYM    DATA     BYTE      PSW1
      000000E7H   SFRSYM    DATA     BYTE      CMPCR2
      000000E6H   SFRSYM    DATA     BYTE      CMPCR1
      000000DEH   SFRSYM    DATA     BYTE      ADCCFG
      000000B8H   SFRSYM    DATA     BYTE      IP
      0000008FH   SFRSYM    DATA     BYTE      INTCLKO
      000000EEH   SFRSYM    DATA     BYTE      IP3H
      000000B6H   SFRSYM    DATA     BYTE      IP2H
      000000BFH   SFRSYM    DATA     BYTE      P_SW4
      000000A8H   SFRSYM    DATA     BYTE      IE
      000000BBH   SFRSYM    DATA     BYTE      P_SW3
      000000BAH   SFRSYM    DATA     BYTE      P_SW2
      000000A2H   SFRSYM    DATA     BYTE      P_SW1
      000000CEH   SFRSYM    DATA     BYTE      SPCTL
      000000F8H   SFRSYM    DATA     BYTE      P7
      000000E8H   SFRSYM    DATA     BYTE      P6
      000000C8H   SFRSYM    DATA     BYTE      P5
      000000C0H   SFRSYM    DATA     BYTE      P4
      000000ABH   SFRSYM    DATA     BYTE      WKTCH
      000000B0H   SFRSYM    DATA     BYTE      P3
      000000A0H   SFRSYM    DATA     BYTE      P2
      00000090H   SFRSYM    DATA     BYTE      P1
      00000080H   SFRSYM    DATA     BYTE      P0

      ---         MODULE    ---      ---       zf_driver_gpio
      00FF5BD6H   PUBLIC    CODE     ---       gpio_init
      00FF00C6H   PUBLIC    CODE     ---       gpio_get_level
      00FF4E07H   PUBLIC    CODE     ---       gpio_set_level_speed
      00FF52D6H   PUBLIC    CODE     ---       gpio_set_level
      00FF55FBH   PUBLIC    CODE     ---       gpio_set_impedance
      00000094H   SFRSYM    DATA     BYTE      P0M0
      000000D0H   SFRSYM    DATA     BYTE      PSW
      0000009DH   SFRSYM    DATA     BYTE      IRCBAND
      00000097H   SFRSYM    DATA     BYTE      AUXR2
      000000EFH   SFRSYM    DATA     BYTE      AUXINTIF
      000000FDH   SFRSYM    DATA     BYTE      S4CON
      000000ACH   SFRSYM    DATA     BYTE      S3CON
      0000009AH   SFRSYM    DATA     BYTE      S2CON
      000000B7H   SFRSYM    DATA     BYTE      IPH
      000000CDH   SFRSYM    DATA     BYTE      SPSTAT
      000000DDH   SFRSYM    DATA     BYTE      T4T3M
      000000C1H   SFRSYM    DATA     BYTE      WDT_CONTR
      000000DFH   SFRSYM    DATA     BYTE      IP3
      000000F4H   SFRSYM    DATA     BYTE      USBCON
      000000B5H   SFRSYM    DATA     BYTE      IP2
      000000FFH   SFRSYM    DATA     BYTE      RSTCFG
      000000C7H   SFRSYM    DATA     BYTE      IAP_CONTR
      0000008EH   SFRSYM    DATA     BYTE      AUXR
      000000AFH   SFRSYM    DATA     BYTE      IE2
      00000088H   SFRSYM    DATA     BYTE      TCON
      00000089H   SFRSYM    DATA     BYTE      TMOD
      00000098H   SFRSYM    DATA     BYTE      SCON
      00000087H   SFRSYM    DATA     BYTE      PCON
      000000BCH   SFRSYM    DATA     BYTE      ADC_CONTR
      000000D1H   SFRSYM    DATA     BYTE      PSW1
      000000E7H   SFRSYM    DATA     BYTE      CMPCR2
      000000E6H   SFRSYM    DATA     BYTE      CMPCR1
      000000DEH   SFRSYM    DATA     BYTE      ADCCFG
      000000B8H   SFRSYM    DATA     BYTE      IP
      0000008FH   SFRSYM    DATA     BYTE      INTCLKO
L251 LINKER/LOCATER V4.66.93.0                                                        01/16/2025  23:25:20  PAGE 40


      000000EEH   SFRSYM    DATA     BYTE      IP3H
      000000B6H   SFRSYM    DATA     BYTE      IP2H
      000000BFH   SFRSYM    DATA     BYTE      P_SW4
      000000A8H   SFRSYM    DATA     BYTE      IE
      000000BBH   SFRSYM    DATA     BYTE      P_SW3
      000000BAH   SFRSYM    DATA     BYTE      P_SW2
      000000A2H   SFRSYM    DATA     BYTE      P_SW1
      000000CEH   SFRSYM    DATA     BYTE      SPCTL
      000000F8H   SFRSYM    DATA     BYTE      P7
      000000E8H   SFRSYM    DATA     BYTE      P6
      000000C8H   SFRSYM    DATA     BYTE      P5
      000000C0H   SFRSYM    DATA     BYTE      P4
      000000C9H   SFRSYM    DATA     BYTE      P5M1
      000000ABH   SFRSYM    DATA     BYTE      WKTCH
      000000B0H   SFRSYM    DATA     BYTE      P3
      000000B3H   SFRSYM    DATA     BYTE      P4M1
      000000CAH   SFRSYM    DATA     BYTE      P5M0
      000000A0H   SFRSYM    DATA     BYTE      P2
      000000B1H   SFRSYM    DATA     BYTE      P3M1
      000000B4H   SFRSYM    DATA     BYTE      P4M0
      00000090H   SFRSYM    DATA     BYTE      P1
      00000095H   SFRSYM    DATA     BYTE      P2M1
      000000B2H   SFRSYM    DATA     BYTE      P3M0
      00000080H   SFRSYM    DATA     BYTE      P0
      00000091H   SFRSYM    DATA     BYTE      P1M1
      00000096H   SFRSYM    DATA     BYTE      P2M0
      00000092H   SFRSYM    DATA     BYTE      P1M0
      00000093H   SFRSYM    DATA     BYTE      P0M1
      00FF4B8FH   SYMBOL    CODE     ---       gpio_set_dir
      00FF5160H   SYMBOL    CODE     ---       gpio_set_mode

      00FF5160H   BLOCK     CODE     ---       LVL=0
      WR4         REGSYM    ---      INT       pin
      WR2         REGSYM    ---      INT       mode
      00FF5160H   LINE      CODE     ---       #45
      00FF5164H   LINE      CODE     ---       #51
      00FF5170H   LINE      CODE     ---       #53
      00FF51A1H   LINE      CODE     ---       #54
      00FF51AEH   LINE      CODE     ---       #55
      00FF51B0H   LINE      CODE     ---       #56
      00FF51B6H   LINE      CODE     ---       #58
      00FF51E0H   LINE      CODE     ---       #59
      00FF51E2H   LINE      CODE     ---       #60
      00FF51EEH   LINE      CODE     ---       #62
      00FF521BH   LINE      CODE     ---       #63
      00FF521CH   LINE      CODE     ---       #64
      00FF5225H   LINE      CODE     ---       #66
      00FF5252H   LINE      CODE     ---       #68
      00FF5252H   LINE      CODE     ---       #70
      00FF5265H   LINE      CODE     ---       #71
      00FF5267H   LINE      CODE     ---       #73
      00FF5268H   LINE      CODE     ---       #75
      00FF5268H   LINE      CODE     ---       #77
      00FF527BH   LINE      CODE     ---       #78
      00FF527DH   LINE      CODE     ---       #80
      00FF527EH   LINE      CODE     ---       #82
      00FF527EH   LINE      CODE     ---       #84
      00FF5291H   LINE      CODE     ---       #85
      00FF5293H   LINE      CODE     ---       #87
      00FF5294H   LINE      CODE     ---       #89
      00FF5294H   LINE      CODE     ---       #91
      00FF52A7H   LINE      CODE     ---       #92
      00FF52A9H   LINE      CODE     ---       #94
      00FF52AAH   LINE      CODE     ---       #96
      00FF52AAH   LINE      CODE     ---       #98
L251 LINKER/LOCATER V4.66.93.0                                                        01/16/2025  23:25:20  PAGE 41


      00FF52BDH   LINE      CODE     ---       #99
      00FF52BFH   LINE      CODE     ---       #101
      00FF52C0H   LINE      CODE     ---       #103
      00FF52C0H   LINE      CODE     ---       #105
      00FF52D3H   LINE      CODE     ---       #106
      00FF52D5H   LINE      CODE     ---       #108
      00FF52D5H   LINE      CODE     ---       #109
      00FF52D5H   LINE      CODE     ---       #112
      00FF52D5H   LINE      CODE     ---       #113
      00FF52D5H   LINE      CODE     ---       #114
      00FF52D5H   LINE      CODE     ---       #119
      00FF52D5H   LINE      CODE     ---       #120
      ---         BLOCKEND  ---      ---       LVL=0

      00FF4E07H   BLOCK     CODE     ---       LVL=0
      WR4         REGSYM    ---      INT       pin
      WR2         REGSYM    ---      INT       speed
      00FF4E07H   LINE      CODE     ---       #123
      00FF4E0BH   LINE      CODE     ---       #125
      00FF4E42H   LINE      CODE     ---       #127
      00FF4E42H   LINE      CODE     ---       #129
      00FF4E46H   LINE      CODE     ---       #131
      00FF4E5DH   LINE      CODE     ---       #132
      00FF4E60H   LINE      CODE     ---       #133
      00FF4E69H   LINE      CODE     ---       #135
      00FF4E7EH   LINE      CODE     ---       #136
      00FF4E81H   LINE      CODE     ---       #141
      00FF4E81H   LINE      CODE     ---       #143
      00FF4E81H   LINE      CODE     ---       #145
      00FF4E81H   LINE      CODE     ---       #147
      00FF4E85H   LINE      CODE     ---       #149
      00FF4E9CH   LINE      CODE     ---       #150
      00FF4E9FH   LINE      CODE     ---       #151
      00FF4EA8H   LINE      CODE     ---       #153
      00FF4EBDH   LINE      CODE     ---       #154
      00FF4EC0H   LINE      CODE     ---       #159
      00FF4EC0H   LINE      CODE     ---       #161
      00FF4EC0H   LINE      CODE     ---       #163
      00FF4EC0H   LINE      CODE     ---       #165
      00FF4EC4H   LINE      CODE     ---       #167
      00FF4EDBH   LINE      CODE     ---       #168
      00FF4EDEH   LINE      CODE     ---       #169
      00FF4EE7H   LINE      CODE     ---       #171
      00FF4EFCH   LINE      CODE     ---       #172
      00FF4EFFH   LINE      CODE     ---       #177
      00FF4EFFH   LINE      CODE     ---       #179
      00FF4EFFH   LINE      CODE     ---       #181
      00FF4EFFH   LINE      CODE     ---       #183
      00FF4F03H   LINE      CODE     ---       #185
      00FF4F1AH   LINE      CODE     ---       #186
      00FF4F1CH   LINE      CODE     ---       #187
      00FF4F25H   LINE      CODE     ---       #189
      00FF4F3AH   LINE      CODE     ---       #190
      00FF4F3CH   LINE      CODE     ---       #195
      00FF4F3CH   LINE      CODE     ---       #197
      00FF4F3CH   LINE      CODE     ---       #199
      00FF4F3CH   LINE      CODE     ---       #201
      00FF4F40H   LINE      CODE     ---       #203
      00FF4F57H   LINE      CODE     ---       #204
      00FF4F59H   LINE      CODE     ---       #205
      00FF4F5FH   LINE      CODE     ---       #207
      00FF4F74H   LINE      CODE     ---       #208
      00FF4F76H   LINE      CODE     ---       #213
      00FF4F76H   LINE      CODE     ---       #215
      00FF4F76H   LINE      CODE     ---       #217
L251 LINKER/LOCATER V4.66.93.0                                                        01/16/2025  23:25:20  PAGE 42


      00FF4F76H   LINE      CODE     ---       #219
      00FF4F7AH   LINE      CODE     ---       #221
      00FF4F9AH   LINE      CODE     ---       #222
      00FF4F9CH   LINE      CODE     ---       #223
      00FF4FA2H   LINE      CODE     ---       #225
      00FF4FC3H   LINE      CODE     ---       #226
      00FF4FC3H   LINE      CODE     ---       #231
      00FF4FC3H   LINE      CODE     ---       #233
      00FF4FC3H   LINE      CODE     ---       #235
      00FF4FC3H   LINE      CODE     ---       #239
      00FF4FC3H   LINE      CODE     ---       #240
      00FF4FC3H   LINE      CODE     ---       #241
      ---         BLOCKEND  ---      ---       LVL=0

      00FF4B8FH   BLOCK     CODE     ---       LVL=0
      WR4         REGSYM    ---      INT       pin
      WR2         REGSYM    ---      INT       dir
      00FF4B8FH   LINE      CODE     ---       #245
      00FF4B93H   LINE      CODE     ---       #247
      00FF4BCDH   LINE      CODE     ---       #249
      00FF4BCDH   LINE      CODE     ---       #251
      00FF4BD3H   LINE      CODE     ---       #253
      00FF4BEBH   LINE      CODE     ---       #254
      00FF4BEDH   LINE      CODE     ---       #255
      00FF4BEEH   LINE      CODE     ---       #261
      00FF4BF4H   LINE      CODE     ---       #263
      00FF4C09H   LINE      CODE     ---       #264
      00FF4C0DH   LINE      CODE     ---       #265
      00FF4C0EH   LINE      CODE     ---       #266
      00FF4C15H   LINE      CODE     ---       #268
      00FF4C28H   LINE      CODE     ---       #269
      00FF4C2CH   LINE      CODE     ---       #270
      00FF4C2CH   LINE      CODE     ---       #272
      00FF4C2DH   LINE      CODE     ---       #274
      00FF4C2DH   LINE      CODE     ---       #276
      00FF4C33H   LINE      CODE     ---       #278
      00FF4C4BH   LINE      CODE     ---       #279
      00FF4C4DH   LINE      CODE     ---       #280
      00FF4C4EH   LINE      CODE     ---       #286
      00FF4C54H   LINE      CODE     ---       #288
      00FF4C69H   LINE      CODE     ---       #289
      00FF4C6DH   LINE      CODE     ---       #290
      00FF4C6EH   LINE      CODE     ---       #291
      00FF4C75H   LINE      CODE     ---       #293
      00FF4C88H   LINE      CODE     ---       #294
      00FF4C8CH   LINE      CODE     ---       #295
      00FF4C8CH   LINE      CODE     ---       #297
      00FF4C8DH   LINE      CODE     ---       #299
      00FF4C8DH   LINE      CODE     ---       #301
      00FF4C93H   LINE      CODE     ---       #303
      00FF4CABH   LINE      CODE     ---       #304
      00FF4CADH   LINE      CODE     ---       #305
      00FF4CAEH   LINE      CODE     ---       #311
      00FF4CB4H   LINE      CODE     ---       #313
      00FF4CC9H   LINE      CODE     ---       #314
      00FF4CCDH   LINE      CODE     ---       #315
      00FF4CCEH   LINE      CODE     ---       #316
      00FF4CD5H   LINE      CODE     ---       #318
      00FF4CE8H   LINE      CODE     ---       #319
      00FF4CECH   LINE      CODE     ---       #320
      00FF4CECH   LINE      CODE     ---       #322
      00FF4CEDH   LINE      CODE     ---       #324
      00FF4CEDH   LINE      CODE     ---       #326
      00FF4CF3H   LINE      CODE     ---       #328
      00FF4D0BH   LINE      CODE     ---       #329
L251 LINKER/LOCATER V4.66.93.0                                                        01/16/2025  23:25:20  PAGE 43


      00FF4D0DH   LINE      CODE     ---       #330
      00FF4D0EH   LINE      CODE     ---       #336
      00FF4D14H   LINE      CODE     ---       #338
      00FF4D29H   LINE      CODE     ---       #339
      00FF4D2DH   LINE      CODE     ---       #340
      00FF4D2EH   LINE      CODE     ---       #341
      00FF4D35H   LINE      CODE     ---       #343
      00FF4D48H   LINE      CODE     ---       #344
      00FF4D4CH   LINE      CODE     ---       #345
      00FF4D4CH   LINE      CODE     ---       #347
      00FF4D4DH   LINE      CODE     ---       #349
      00FF4D4DH   LINE      CODE     ---       #351
      00FF4D53H   LINE      CODE     ---       #353
      00FF4D6BH   LINE      CODE     ---       #354
      00FF4D6DH   LINE      CODE     ---       #355
      00FF4D6EH   LINE      CODE     ---       #361
      00FF4D74H   LINE      CODE     ---       #363
      00FF4D89H   LINE      CODE     ---       #364
      00FF4D8DH   LINE      CODE     ---       #365
      00FF4D8EH   LINE      CODE     ---       #366
      00FF4D92H   LINE      CODE     ---       #368
      00FF4DA5H   LINE      CODE     ---       #369
      00FF4DA9H   LINE      CODE     ---       #370
      00FF4DA9H   LINE      CODE     ---       #372
      00FF4DAAH   LINE      CODE     ---       #374
      00FF4DAAH   LINE      CODE     ---       #376
      00FF4DB0H   LINE      CODE     ---       #378
      00FF4DC8H   LINE      CODE     ---       #379
      00FF4DCAH   LINE      CODE     ---       #380
      00FF4DCBH   LINE      CODE     ---       #386
      00FF4DD1H   LINE      CODE     ---       #388
      00FF4DE6H   LINE      CODE     ---       #389
      00FF4DEAH   LINE      CODE     ---       #390
      00FF4DEBH   LINE      CODE     ---       #391
      00FF4DEFH   LINE      CODE     ---       #393
      00FF4E02H   LINE      CODE     ---       #394
      00FF4E06H   LINE      CODE     ---       #395
      00FF4E06H   LINE      CODE     ---       #397
      00FF4E06H   LINE      CODE     ---       #399
      00FF4E06H   LINE      CODE     ---       #403
      00FF4E06H   LINE      CODE     ---       #404
      00FF4E06H   LINE      CODE     ---       #405
      ---         BLOCKEND  ---      ---       LVL=0

      00FF00C6H   BLOCK     CODE     ---       LVL=0
      WR4         REGSYM    ---      INT       pin
      00FF00C8H   BLOCK     CODE     NEAR LAB  LVL=1
      R10         REGSYM    ---      BYTE      status
      ---         BLOCKEND  ---      ---       LVL=1
      00FF00C6H   LINE      CODE     ---       #413
      00FF00C8H   LINE      CODE     ---       #414
      00FF00C8H   LINE      CODE     ---       #415
      00FF00CAH   LINE      CODE     ---       #417
      00FF00F8H   LINE      CODE     ---       #419
      00FF00F8H   LINE      CODE     ---       #421
      00FF010EH   LINE      CODE     ---       #423
      00FF0110H   LINE      CODE     ---       #425
      00FF0110H   LINE      CODE     ---       #427
      00FF0126H   LINE      CODE     ---       #429
      00FF0128H   LINE      CODE     ---       #431
      00FF0128H   LINE      CODE     ---       #433
      00FF013EH   LINE      CODE     ---       #435
      00FF0140H   LINE      CODE     ---       #437
      00FF0140H   LINE      CODE     ---       #439
      00FF0156H   LINE      CODE     ---       #441
L251 LINKER/LOCATER V4.66.93.0                                                        01/16/2025  23:25:20  PAGE 44


      00FF0158H   LINE      CODE     ---       #443
      00FF0158H   LINE      CODE     ---       #445
      00FF016EH   LINE      CODE     ---       #447
      00FF0170H   LINE      CODE     ---       #449
      00FF0170H   LINE      CODE     ---       #451
      00FF0186H   LINE      CODE     ---       #453
      00FF0186H   LINE      CODE     ---       #455
      00FF0186H   LINE      CODE     ---       #459
      00FF0186H   LINE      CODE     ---       #460
      00FF0186H   LINE      CODE     ---       #462
      00FF018EH   LINE      CODE     ---       #463
      ---         BLOCKEND  ---      ---       LVL=0

      00FF52D6H   BLOCK     CODE     ---       LVL=0
      WR4         REGSYM    ---      INT       pin
      R3          REGSYM    ---      BYTE      dat
      00FF52D6H   LINE      CODE     ---       #472
      00FF52DAH   LINE      CODE     ---       #474
      00FF5311H   LINE      CODE     ---       #476
      00FF5311H   LINE      CODE     ---       #478
      00FF5315H   LINE      CODE     ---       #480
      00FF5328H   LINE      CODE     ---       #481
      00FF5329H   LINE      CODE     ---       #484
      00FF533EH   LINE      CODE     ---       #485
      00FF533EH   LINE      CODE     ---       #487
      00FF533FH   LINE      CODE     ---       #489
      00FF533FH   LINE      CODE     ---       #491
      00FF5343H   LINE      CODE     ---       #493
      00FF5356H   LINE      CODE     ---       #494
      00FF5357H   LINE      CODE     ---       #497
      00FF536CH   LINE      CODE     ---       #498
      00FF536CH   LINE      CODE     ---       #500
      00FF536DH   LINE      CODE     ---       #502
      00FF536DH   LINE      CODE     ---       #504
      00FF5371H   LINE      CODE     ---       #506
      00FF5384H   LINE      CODE     ---       #507
      00FF5385H   LINE      CODE     ---       #510
      00FF539AH   LINE      CODE     ---       #511
      00FF539AH   LINE      CODE     ---       #513
      00FF539BH   LINE      CODE     ---       #515
      00FF539BH   LINE      CODE     ---       #517
      00FF539FH   LINE      CODE     ---       #519
      00FF53B2H   LINE      CODE     ---       #520
      00FF53B3H   LINE      CODE     ---       #523
      00FF53C8H   LINE      CODE     ---       #524
      00FF53C8H   LINE      CODE     ---       #526
      00FF53C9H   LINE      CODE     ---       #528
      00FF53C9H   LINE      CODE     ---       #530
      00FF53CDH   LINE      CODE     ---       #532
      00FF53E0H   LINE      CODE     ---       #533
      00FF53E1H   LINE      CODE     ---       #536
      00FF53F6H   LINE      CODE     ---       #537
      00FF53F6H   LINE      CODE     ---       #539
      00FF53F7H   LINE      CODE     ---       #541
      00FF53F7H   LINE      CODE     ---       #543
      00FF53FBH   LINE      CODE     ---       #545
      00FF540EH   LINE      CODE     ---       #546
      00FF540FH   LINE      CODE     ---       #549
      00FF5424H   LINE      CODE     ---       #550
      00FF5424H   LINE      CODE     ---       #552
      00FF5424H   LINE      CODE     ---       #554
      00FF5424H   LINE      CODE     ---       #558
      00FF5424H   LINE      CODE     ---       #559
      00FF5424H   LINE      CODE     ---       #560
      ---         BLOCKEND  ---      ---       LVL=0
L251 LINKER/LOCATER V4.66.93.0                                                        01/16/2025  23:25:20  PAGE 45


      WR14        REGSYM    ---      INT       pin

      00FF55FBH   BLOCK     CODE     ---       LVL=0
      WR4         REGSYM    ---      INT       pin
      00FF55FBH   LINE      CODE     ---       #587
      00FF55FDH   LINE      CODE     ---       #589
      00FF562BH   LINE      CODE     ---       #591
      00FF562BH   LINE      CODE     ---       #593
      00FF563EH   LINE      CODE     ---       #594
      00FF5642H   LINE      CODE     ---       #596
      00FF5643H   LINE      CODE     ---       #598
      00FF5643H   LINE      CODE     ---       #600
      00FF5656H   LINE      CODE     ---       #601
      00FF565AH   LINE      CODE     ---       #603
      00FF565BH   LINE      CODE     ---       #605
      00FF565BH   LINE      CODE     ---       #607
      00FF566EH   LINE      CODE     ---       #608
      00FF5672H   LINE      CODE     ---       #610
      00FF5673H   LINE      CODE     ---       #612
      00FF5673H   LINE      CODE     ---       #614
      00FF5686H   LINE      CODE     ---       #615
      00FF568AH   LINE      CODE     ---       #617
      00FF568BH   LINE      CODE     ---       #619
      00FF568BH   LINE      CODE     ---       #621
      00FF569EH   LINE      CODE     ---       #622
      00FF56A2H   LINE      CODE     ---       #624
      00FF56A3H   LINE      CODE     ---       #626
      00FF56A3H   LINE      CODE     ---       #628
      00FF56B6H   LINE      CODE     ---       #629
      00FF56BAH   LINE      CODE     ---       #631
      00FF56BAH   LINE      CODE     ---       #633
      00FF56BAH   LINE      CODE     ---       #637
      00FF56BAH   LINE      CODE     ---       #638
      00FF56BAH   LINE      CODE     ---       #639
      ---         BLOCKEND  ---      ---       LVL=0

      00FF5BD6H   BLOCK     CODE     ---       LVL=0
      WR14        REGSYM    ---      INT       pin
      WR4         REGSYM    ---      INT       dir
      00010626H   SYMBOL    XDATA    BYTE      dat
      WR12        REGSYM    ---      INT       mode
      00FF5BD6H   LINE      CODE     ---       #650
      00FF5BE0H   LINE      CODE     ---       #654
      00FF5BE6H   LINE      CODE     ---       #656
      00FF5BECH   LINE      CODE     ---       #657
      00FF5BECH   LINE      CODE     ---       #658
      00FF5BEEH   LINE      CODE     ---       #659
      00FF5BF2H   LINE      CODE     ---       #661
      00FF5BF6H   LINE      CODE     ---       #663
      00FF5BFBH   LINE      CODE     ---       #664
      00FF5BFDH   LINE      CODE     ---       #667
      00FF5C04H   LINE      CODE     ---       #668
      00FF5C08H   LINE      CODE     ---       #669
      00FF5C08H   LINE      CODE     ---       #670
      00FF5C0AH   LINE      CODE     ---       #671
      00FF5C10H   LINE      CODE     ---       #673
      00FF5C16H   LINE      CODE     ---       #675
      00FF5C1FH   LINE      CODE     ---       #676
      00FF5C25H   LINE      CODE     ---       #677
      00FF5C27H   LINE      CODE     ---       #678
      00FF5C2DH   LINE      CODE     ---       #680
      00FF5C36H   LINE      CODE     ---       #681
      00FF5C36H   LINE      CODE     ---       #683
      00FF5C3FH   LINE      CODE     ---       #684
      ---         BLOCKEND  ---      ---       LVL=0
L251 LINKER/LOCATER V4.66.93.0                                                        01/16/2025  23:25:20  PAGE 46



      ---         MODULE    ---      ---       zf_driver_pit
      000000D0H   SFRSYM    DATA     BYTE      PSW
      0000009DH   SFRSYM    DATA     BYTE      IRCBAND
      00000097H   SFRSYM    DATA     BYTE      AUXR2
      000000EFH   SFRSYM    DATA     BYTE      AUXINTIF
      000000FDH   SFRSYM    DATA     BYTE      S4CON
      000000ACH   SFRSYM    DATA     BYTE      S3CON
      0000009AH   SFRSYM    DATA     BYTE      S2CON
      000000B7H   SFRSYM    DATA     BYTE      IPH
      000000CDH   SFRSYM    DATA     BYTE      SPSTAT
      000000DDH   SFRSYM    DATA     BYTE      T4T3M
      000000C1H   SFRSYM    DATA     BYTE      WDT_CONTR
      00000088H.6 SFRSYM    DATA     BIT       TR1
      00000088H.4 SFRSYM    DATA     BIT       TR0
      000000D3H   SFRSYM    DATA     BYTE      T4L
      000000D5H   SFRSYM    DATA     BYTE      T3L
      000000D7H   SFRSYM    DATA     BYTE      T2L
      0000008BH   SFRSYM    DATA     BYTE      TL1
      0000008AH   SFRSYM    DATA     BYTE      TL0
      000000D2H   SFRSYM    DATA     BYTE      T4H
      000000D4H   SFRSYM    DATA     BYTE      T3H
      000000D6H   SFRSYM    DATA     BYTE      T2H
      0000008DH   SFRSYM    DATA     BYTE      TH1
      0000008CH   SFRSYM    DATA     BYTE      TH0
      000000DFH   SFRSYM    DATA     BYTE      IP3
      000000F4H   SFRSYM    DATA     BYTE      USBCON
      000000B5H   SFRSYM    DATA     BYTE      IP2
      000000FFH   SFRSYM    DATA     BYTE      RSTCFG
      000000A8H.3 SFRSYM    DATA     BIT       ET1
      000000A8H.1 SFRSYM    DATA     BIT       ET0
      000000C7H   SFRSYM    DATA     BYTE      IAP_CONTR
      0000008EH   SFRSYM    DATA     BYTE      AUXR
      000000AFH   SFRSYM    DATA     BYTE      IE2
      00000088H   SFRSYM    DATA     BYTE      TCON
      00000089H   SFRSYM    DATA     BYTE      TMOD
      00000098H   SFRSYM    DATA     BYTE      SCON
      00000087H   SFRSYM    DATA     BYTE      PCON
      000000BCH   SFRSYM    DATA     BYTE      ADC_CONTR
      000000D1H   SFRSYM    DATA     BYTE      PSW1
      000000E7H   SFRSYM    DATA     BYTE      CMPCR2
      000000E6H   SFRSYM    DATA     BYTE      CMPCR1
      000000DEH   SFRSYM    DATA     BYTE      ADCCFG
      000000B8H   SFRSYM    DATA     BYTE      IP
      0000008FH   SFRSYM    DATA     BYTE      INTCLKO
      000000EEH   SFRSYM    DATA     BYTE      IP3H
      000000B6H   SFRSYM    DATA     BYTE      IP2H
      000000BFH   SFRSYM    DATA     BYTE      P_SW4
      000000A8H   SFRSYM    DATA     BYTE      IE
      000000BBH   SFRSYM    DATA     BYTE      P_SW3
      000000BAH   SFRSYM    DATA     BYTE      P_SW2
      000000A2H   SFRSYM    DATA     BYTE      P_SW1
      000000CEH   SFRSYM    DATA     BYTE      SPCTL
      000000F8H   SFRSYM    DATA     BYTE      P7
      000000E8H   SFRSYM    DATA     BYTE      P6
      000000C8H   SFRSYM    DATA     BYTE      P5
      000000C0H   SFRSYM    DATA     BYTE      P4
      000000ABH   SFRSYM    DATA     BYTE      WKTCH
      000000B0H   SFRSYM    DATA     BYTE      P3
      000000A0H   SFRSYM    DATA     BYTE      P2
      00000090H   SFRSYM    DATA     BYTE      P1
      00000080H   SFRSYM    DATA     BYTE      P0
      WR30        REGSYM    ---      INT       pit_n
      DR24        REGSYM    ---      DWORD     period
      R15         REGSYM    ---      BYTE      freq_div
L251 LINKER/LOCATER V4.66.93.0                                                        01/16/2025  23:25:20  PAGE 47


      WR28        REGSYM    ---      WORD      period_temp
      WR28        REGSYM    ---      WORD      temp

      ---         MODULE    ---      ---       zf_driver_pwm
      00FF4138H   PUBLIC    CODE     ---       pwm_init
      00FF6F19H   PUBLIC    HCONST   ---       PWM_PSCR_ADDR
      00FF6F21H   PUBLIC    HCONST   ---       PWM_CCR_ADDR
      00FF6F41H   PUBLIC    HCONST   ---       PWM_ARR_ADDR
      00FF6F49H   PUBLIC    HCONST   ---       PWM_CCER_ADDR
      00FF6F59H   PUBLIC    HCONST   ---       PWM_CCMR_ADDR
      00010614H   PUBLIC    XDATA    BYTE      ?pwm_init?BYTE
      000000D0H   SFRSYM    DATA     BYTE      PSW
      0000009DH   SFRSYM    DATA     BYTE      IRCBAND
      00000097H   SFRSYM    DATA     BYTE      AUXR2
      000000EFH   SFRSYM    DATA     BYTE      AUXINTIF
      000000FDH   SFRSYM    DATA     BYTE      S4CON
      000000ACH   SFRSYM    DATA     BYTE      S3CON
      0000009AH   SFRSYM    DATA     BYTE      S2CON
      000000B7H   SFRSYM    DATA     BYTE      IPH
      000000CDH   SFRSYM    DATA     BYTE      SPSTAT
      000000DDH   SFRSYM    DATA     BYTE      T4T3M
      000000C1H   SFRSYM    DATA     BYTE      WDT_CONTR
      000000DFH   SFRSYM    DATA     BYTE      IP3
      000000F4H   SFRSYM    DATA     BYTE      USBCON
      000000B5H   SFRSYM    DATA     BYTE      IP2
      000000FFH   SFRSYM    DATA     BYTE      RSTCFG
      000000C7H   SFRSYM    DATA     BYTE      IAP_CONTR
      0000008EH   SFRSYM    DATA     BYTE      AUXR
      000000AFH   SFRSYM    DATA     BYTE      IE2
      00000088H   SFRSYM    DATA     BYTE      TCON
      00000089H   SFRSYM    DATA     BYTE      TMOD
      00000098H   SFRSYM    DATA     BYTE      SCON
      00000087H   SFRSYM    DATA     BYTE      PCON
      000000BCH   SFRSYM    DATA     BYTE      ADC_CONTR
      000000D1H   SFRSYM    DATA     BYTE      PSW1
      000000E7H   SFRSYM    DATA     BYTE      CMPCR2
      000000E6H   SFRSYM    DATA     BYTE      CMPCR1
      000000DEH   SFRSYM    DATA     BYTE      ADCCFG
      000000B8H   SFRSYM    DATA     BYTE      IP
      0000008FH   SFRSYM    DATA     BYTE      INTCLKO
      000000EEH   SFRSYM    DATA     BYTE      IP3H
      000000B6H   SFRSYM    DATA     BYTE      IP2H
      000000BFH   SFRSYM    DATA     BYTE      P_SW4
      000000A8H   SFRSYM    DATA     BYTE      IE
      000000BBH   SFRSYM    DATA     BYTE      P_SW3
      000000BAH   SFRSYM    DATA     BYTE      P_SW2
      000000A2H   SFRSYM    DATA     BYTE      P_SW1
      000000CEH   SFRSYM    DATA     BYTE      SPCTL
      000000F8H   SFRSYM    DATA     BYTE      P7
      000000E8H   SFRSYM    DATA     BYTE      P6
      000000C8H   SFRSYM    DATA     BYTE      P5
      000000C0H   SFRSYM    DATA     BYTE      P4
      000000ABH   SFRSYM    DATA     BYTE      WKTCH
      000000B0H   SFRSYM    DATA     BYTE      P3
      000000A0H   SFRSYM    DATA     BYTE      P2
      00000090H   SFRSYM    DATA     BYTE      P1
      00000080H   SFRSYM    DATA     BYTE      P0
      WR30        REGSYM    ---      INT       pin
      DR0         REGSYM    ---      DWORD     freq
      DR20        REGSYM    ---      DWORD     match_temp
      DR16        REGSYM    ---      DWORD     period_temp
      WR28        REGSYM    ---      WORD      freq_div
      WR30        REGSYM    ---      INT       pin
      DR24        REGSYM    ---      DWORD     duty
      DR20        REGSYM    ---      DWORD     match_temp
L251 LINKER/LOCATER V4.66.93.0                                                        01/16/2025  23:25:20  PAGE 48


      DR16        REGSYM    ---      DWORD     arr

      00FF4138H   BLOCK     CODE     ---       LVL=0
      WR14        REGSYM    ---      INT       pin
      00010616H   SYMBOL    XDATA    DWORD     freq
      0001061AH   SYMBOL    XDATA    DWORD     duty
      00FF4146H   BLOCK     CODE     NEAR LAB  LVL=1
      0001061EH   SYMBOL    XDATA    WORD      match_temp
      00010620H   SYMBOL    XDATA    DWORD     period_temp
      WR12        REGSYM    ---      WORD      freq_div
      ---         BLOCKEND  ---      ---       LVL=1
      00FF4138H   LINE      CODE     ---       #164
      00FF4146H   LINE      CODE     ---       #165
      00FF4146H   LINE      CODE     ---       #167
      00FF414EH   LINE      CODE     ---       #168
      00FF415AH   LINE      CODE     ---       #169
      00FF415AH   LINE      CODE     ---       #174
      00FF416BH   LINE      CODE     ---       #178
      00FF4188H   LINE      CODE     ---       #179
      00FF4192H   LINE      CODE     ---       #180
      00FF41A3H   LINE      CODE     ---       #182
      00FF41B3H   LINE      CODE     ---       #184
      00FF41D8H   LINE      CODE     ---       #185
      00FF41DAH   LINE      CODE     ---       #188
      00FF41E9H   LINE      CODE     ---       #189
      00FF41E9H   LINE      CODE     ---       #191
      00FF420DH   LINE      CODE     ---       #192
      00FF4219H   LINE      CODE     ---       #194
      00FF4244H   LINE      CODE     ---       #195
      00FF4250H   LINE      CODE     ---       #197
      00FF4294H   LINE      CODE     ---       #198
      00FF42A0H   LINE      CODE     ---       #200
      00FF42ADH   LINE      CODE     ---       #202
      00FF42ECH   LINE      CODE     ---       #203
      00FF431DH   LINE      CODE     ---       #204
      00FF4383H   LINE      CODE     ---       #206
      00FF4390H   LINE      CODE     ---       #207
      00FF4396H   LINE      CODE     ---       #208
      00FF4399H   LINE      CODE     ---       #209
      00FF43AAH   LINE      CODE     ---       #211
      00FF43E7H   LINE      CODE     ---       #212
      00FF4418H   LINE      CODE     ---       #213
      00FF4476H   LINE      CODE     ---       #215
      00FF4483H   LINE      CODE     ---       #216
      00FF4490H   LINE      CODE     ---       #217
      00FF4490H   LINE      CODE     ---       #219
      00FF44D3H   LINE      CODE     ---       #220
      00FF44E2H   LINE      CODE     ---       #221
      ---         BLOCKEND  ---      ---       LVL=0

      ---         MODULE    ---      ---       zf_driver_soft_iic
      00FF5D61H   PUBLIC    CODE     ---       soft_iic_wait_ack
      00FF5FE9H   PUBLIC    CODE     ---       soft_iic_stop
      00FF636FH   PUBLIC    CODE     ---       soft_iic_delay
      00FF58C8H   PUBLIC    CODE     ---       soft_iic_read_data
      00FF5B64H   PUBLIC    CODE     ---       soft_iic_send_data
      00FF62BBH   PUBLIC    CODE     ---       soft_iic_start
      00FF5DBFH   PUBLIC    CODE     ---       soft_iic_send_ack
      000000D0H   SFRSYM    DATA     BYTE      PSW
      0000009DH   SFRSYM    DATA     BYTE      IRCBAND
      00000097H   SFRSYM    DATA     BYTE      AUXR2
      000000EFH   SFRSYM    DATA     BYTE      AUXINTIF
      000000FDH   SFRSYM    DATA     BYTE      S4CON
      000000ACH   SFRSYM    DATA     BYTE      S3CON
      0000009AH   SFRSYM    DATA     BYTE      S2CON
L251 LINKER/LOCATER V4.66.93.0                                                        01/16/2025  23:25:20  PAGE 49


      000000B7H   SFRSYM    DATA     BYTE      IPH
      000000CDH   SFRSYM    DATA     BYTE      SPSTAT
      000000DDH   SFRSYM    DATA     BYTE      T4T3M
      000000C1H   SFRSYM    DATA     BYTE      WDT_CONTR
      000000DFH   SFRSYM    DATA     BYTE      IP3
      000000F4H   SFRSYM    DATA     BYTE      USBCON
      000000B5H   SFRSYM    DATA     BYTE      IP2
      000000FFH   SFRSYM    DATA     BYTE      RSTCFG
      000000C7H   SFRSYM    DATA     BYTE      IAP_CONTR
      0000008EH   SFRSYM    DATA     BYTE      AUXR
      000000AFH   SFRSYM    DATA     BYTE      IE2
      00000088H   SFRSYM    DATA     BYTE      TCON
      00000089H   SFRSYM    DATA     BYTE      TMOD
      00000098H   SFRSYM    DATA     BYTE      SCON
      00000087H   SFRSYM    DATA     BYTE      PCON
      000000BCH   SFRSYM    DATA     BYTE      ADC_CONTR
      000000D1H   SFRSYM    DATA     BYTE      PSW1
      000000E7H   SFRSYM    DATA     BYTE      CMPCR2
      000000E6H   SFRSYM    DATA     BYTE      CMPCR1
      000000DEH   SFRSYM    DATA     BYTE      ADCCFG
      000000B8H   SFRSYM    DATA     BYTE      IP
      0000008FH   SFRSYM    DATA     BYTE      INTCLKO
      000000EEH   SFRSYM    DATA     BYTE      IP3H
      000000B6H   SFRSYM    DATA     BYTE      IP2H
      000000BFH   SFRSYM    DATA     BYTE      P_SW4
      000000A8H   SFRSYM    DATA     BYTE      IE
      000000BBH   SFRSYM    DATA     BYTE      P_SW3
      000000BAH   SFRSYM    DATA     BYTE      P_SW2
      000000A2H   SFRSYM    DATA     BYTE      P_SW1
      000000CEH   SFRSYM    DATA     BYTE      SPCTL
      000000F8H   SFRSYM    DATA     BYTE      P7
      000000E8H   SFRSYM    DATA     BYTE      P6
      000000C8H   SFRSYM    DATA     BYTE      P5
      000000C0H   SFRSYM    DATA     BYTE      P4
      000000ABH   SFRSYM    DATA     BYTE      WKTCH
      000000B0H   SFRSYM    DATA     BYTE      P3
      000000A0H   SFRSYM    DATA     BYTE      P2
      00000090H   SFRSYM    DATA     BYTE      P1
      00000080H   SFRSYM    DATA     BYTE      P0

      00FF636FH   BLOCK     CODE     ---       LVL=0
      000106F1H   SYMBOL    XDATA    DWORD     delay
      00FF6379H   BLOCK     CODE     NEAR LAB  LVL=1
      000106F5H   SYMBOL    XDATA    DWORD     count
      ---         BLOCKEND  ---      ---       LVL=1
      00FF636FH   LINE      CODE     ---       #53
      00FF6379H   LINE      CODE     ---       #54
      00FF6379H   LINE      CODE     ---       #55
      00FF638DH   LINE      CODE     ---       #56
      00FF63A6H   LINE      CODE     ---       #57
      ---         BLOCKEND  ---      ---       LVL=0

      00FF62BBH   BLOCK     CODE     ---       LVL=0
      REG=3       REGSYM    ---      ---       soft_iic_obj
      00FF62BBH   LINE      CODE     ---       #67
      00FF62BFH   LINE      CODE     ---       #70
      00FF62C7H   LINE      CODE     ---       #71
      00FF62D0H   LINE      CODE     ---       #73
      00FF62DBH   LINE      CODE     ---       #74
      00FF62E3H   LINE      CODE     ---       #75
      00FF62EEH   LINE      CODE     ---       #76
      00FF62F5H   LINE      CODE     ---       #77
      ---         BLOCKEND  ---      ---       LVL=0

      00FF5FE9H   BLOCK     CODE     ---       LVL=0
L251 LINKER/LOCATER V4.66.93.0                                                        01/16/2025  23:25:20  PAGE 50


      REG=3       REGSYM    ---      ---       soft_iic_obj
      00FF5FE9H   LINE      CODE     ---       #86
      00FF5FEDH   LINE      CODE     ---       #89
      00FF5FF5H   LINE      CODE     ---       #90
      00FF5FFCH   LINE      CODE     ---       #92
      00FF6007H   LINE      CODE     ---       #93
      00FF600FH   LINE      CODE     ---       #94
      00FF601AH   LINE      CODE     ---       #95
      00FF6023H   LINE      CODE     ---       #96
      00FF602EH   LINE      CODE     ---       #97
      ---         BLOCKEND  ---      ---       LVL=0

      00FF5DBFH   BLOCK     CODE     ---       LVL=0
      REG=3       REGSYM    ---      ---       soft_iic_obj
      0001072BH   SYMBOL    XDATA    BYTE      ack
      00FF5DBFH   LINE      CODE     ---       #107
      00FF5DC7H   LINE      CODE     ---       #110
      00FF5DCEH   LINE      CODE     ---       #112
      00FF5DD4H   LINE      CODE     ---       #114
      00FF5DDAH   LINE      CODE     ---       #115
      00FF5DDCH   LINE      CODE     ---       #118
      00FF5DE4H   LINE      CODE     ---       #119
      00FF5DE4H   LINE      CODE     ---       #121
      00FF5DEFH   LINE      CODE     ---       #122
      00FF5DF7H   LINE      CODE     ---       #123
      00FF5E02H   LINE      CODE     ---       #124
      00FF5E09H   LINE      CODE     ---       #125
      00FF5E12H   LINE      CODE     ---       #126
      ---         BLOCKEND  ---      ---       LVL=0

      00FF5D61H   BLOCK     CODE     ---       LVL=0
      REG=3       REGSYM    ---      ---       soft_iic_obj
      00FF5D65H   BLOCK     CODE     NEAR LAB  LVL=1
      0001072CH   SYMBOL    XDATA    BYTE      temp
      ---         BLOCKEND  ---      ---       LVL=1
      00FF5D61H   LINE      CODE     ---       #135
      00FF5D65H   LINE      CODE     ---       #136
      00FF5D65H   LINE      CODE     ---       #137
      00FF5D6AH   LINE      CODE     ---       #140
      00FF5D70H   LINE      CODE     ---       #141
      00FF5D79H   LINE      CODE     ---       #145
      00FF5D84H   LINE      CODE     ---       #147
      00FF5D8CH   LINE      CODE     ---       #148
      00FF5D97H   LINE      CODE     ---       #150
      00FF5DA0H   LINE      CODE     ---       #152
      00FF5DA6H   LINE      CODE     ---       #153
      00FF5DA6H   LINE      CODE     ---       #154
      00FF5DADH   LINE      CODE     ---       #158
      00FF5DB8H   LINE      CODE     ---       #160
      00FF5DBCH   LINE      CODE     ---       #161
      ---         BLOCKEND  ---      ---       LVL=0

      00FF5B64H   BLOCK     CODE     ---       LVL=0
      REG=3       REGSYM    ---      ---       soft_iic_obj
      00010726H   SYMBOL    XDATA    BYTE      dat
      00FF5B6CH   BLOCK     CODE     NEAR LAB  LVL=1
      00010727H   SYMBOL    XDATA    BYTE      temp
      ---         BLOCKEND  ---      ---       LVL=1
      00FF5B64H   LINE      CODE     ---       #170
      00FF5B6CH   LINE      CODE     ---       #171
      00FF5B6CH   LINE      CODE     ---       #172
      00FF5B72H   LINE      CODE     ---       #176
      00FF5B72H   LINE      CODE     ---       #179
      00FF5B94H   LINE      CODE     ---       #180
      00FF5B9BH   LINE      CODE     ---       #182
L251 LINKER/LOCATER V4.66.93.0                                                        01/16/2025  23:25:20  PAGE 51


      00FF5BA6H   LINE      CODE     ---       #183
      00FF5BAEH   LINE      CODE     ---       #184
      00FF5BB9H   LINE      CODE     ---       #185
      00FF5BC0H   LINE      CODE     ---       #186
      00FF5BC6H   LINE      CODE     ---       #187
      00FF5BD3H   LINE      CODE     ---       #188
      ---         BLOCKEND  ---      ---       LVL=0

      00FF58C8H   BLOCK     CODE     ---       LVL=0
      REG=3       REGSYM    ---      ---       soft_iic_obj
      00010723H   SYMBOL    XDATA    BYTE      ack
      00FF58D0H   BLOCK     CODE     NEAR LAB  LVL=1
      00010724H   SYMBOL    XDATA    BYTE      dat
      00010725H   SYMBOL    XDATA    BYTE      temp
      ---         BLOCKEND  ---      ---       LVL=1
      00FF58C8H   LINE      CODE     ---       #197
      00FF58D0H   LINE      CODE     ---       #198
      00FF58D0H   LINE      CODE     ---       #199
      00FF58D5H   LINE      CODE     ---       #200
      00FF58DBH   LINE      CODE     ---       #202
      00FF58E2H   LINE      CODE     ---       #203
      00FF58EDH   LINE      CODE     ---       #204
      00FF58F6H   LINE      CODE     ---       #209
      00FF58F8H   LINE      CODE     ---       #211
      00FF58FFH   LINE      CODE     ---       #212
      00FF590AH   LINE      CODE     ---       #213
      00FF5912H   LINE      CODE     ---       #214
      00FF591DH   LINE      CODE     ---       #215
      00FF5932H   LINE      CODE     ---       #216
      00FF5940H   LINE      CODE     ---       #217
      00FF5947H   LINE      CODE     ---       #221
      00FF5952H   LINE      CODE     ---       #222
      00FF595BH   LINE      CODE     ---       #223
      00FF595FH   LINE      CODE     ---       #224
      ---         BLOCKEND  ---      ---       LVL=0
      REG=3       REGSYM    ---      ---       soft_iic_obj
      REG=3       REGSYM    ---      ---       soft_iic_obj
      REG=3       REGSYM    ---      ---       soft_iic_obj
      REG=3       REGSYM    ---      ---       soft_iic_obj
      REG=3       REGSYM    ---      ---       soft_iic_obj
      REG=3       REGSYM    ---      ---       soft_iic_obj
      REG=3       REGSYM    ---      ---       soft_iic_obj
      REG=3       REGSYM    ---      ---       soft_iic_obj
      REG=3       REGSYM    ---      ---       soft_iic_obj
      REG=3       REGSYM    ---      ---       soft_iic_obj
      REG=3       REGSYM    ---      ---       soft_iic_obj
      REG=3       REGSYM    ---      ---       soft_iic_obj
      REG=3       REGSYM    ---      ---       soft_iic_obj
      REG=3       REGSYM    ---      ---       soft_iic_obj
      REG=3       REGSYM    ---      ---       soft_iic_obj
      REG=3       REGSYM    ---      ---       soft_iic_obj
      REG=3       REGSYM    ---      ---       soft_iic_obj
      REG=3       REGSYM    ---      ---       soft_iic_obj
      REG=3       REGSYM    ---      ---       soft_iic_obj
      REG=3       REGSYM    ---      ---       soft_iic_obj
      REG=7       REGSYM    ---      ---       soft_iic_obj
      R11         REGSYM    ---      BYTE      addr
      DR24        REGSYM    ---      DWORD     delay

      ---         MODULE    ---      ---       zf_driver_spi
      00FF0026H   PUBLIC    CODE     ---       spi_write_8bit_register
      00FF44E5H   PUBLIC    CODE     ---       spi_init
      00FF6105H   PUBLIC    CODE     ---       spi_read_8bit_registers
      00FF6145H   PUBLIC    CODE     ---       spi_read_dat
      00FF645EH   PUBLIC    CODE     ---       spi_read_8bit_register
L251 LINKER/LOCATER V4.66.93.0                                                        01/16/2025  23:25:20  PAGE 52


      00FF63A7H   PUBLIC    CODE     ---       spi_write_dat
      0001061CH   PUBLIC    XDATA    BYTE      ?spi_read_8bit_registers?BYTE
      00010612H   PUBLIC    XDATA    BYTE      ?spi_init?BYTE
      000000CFH   SFRSYM    DATA     BYTE      SPDAT
      000000D0H   SFRSYM    DATA     BYTE      PSW
      0000009DH   SFRSYM    DATA     BYTE      IRCBAND
      00000097H   SFRSYM    DATA     BYTE      AUXR2
      000000EFH   SFRSYM    DATA     BYTE      AUXINTIF
      000000FDH   SFRSYM    DATA     BYTE      S4CON
      000000ACH   SFRSYM    DATA     BYTE      S3CON
      0000009AH   SFRSYM    DATA     BYTE      S2CON
      0000009BH   SFRSYM    DATA     BYTE      S2BUF
      000000B7H   SFRSYM    DATA     BYTE      IPH
      000000CDH   SFRSYM    DATA     BYTE      SPSTAT
      000000DDH   SFRSYM    DATA     BYTE      T4T3M
      000000C1H   SFRSYM    DATA     BYTE      WDT_CONTR
      000000DFH   SFRSYM    DATA     BYTE      IP3
      000000F4H   SFRSYM    DATA     BYTE      USBCON
      000000B5H   SFRSYM    DATA     BYTE      IP2
      000000FFH   SFRSYM    DATA     BYTE      RSTCFG
      000000C7H   SFRSYM    DATA     BYTE      IAP_CONTR
      0000008EH   SFRSYM    DATA     BYTE      AUXR
      000000AFH   SFRSYM    DATA     BYTE      IE2
      00000088H   SFRSYM    DATA     BYTE      TCON
      00000089H   SFRSYM    DATA     BYTE      TMOD
      00000098H   SFRSYM    DATA     BYTE      SCON
      00000087H   SFRSYM    DATA     BYTE      PCON
      00000099H   SFRSYM    DATA     BYTE      SBUF
      000000BCH   SFRSYM    DATA     BYTE      ADC_CONTR
      000000D1H   SFRSYM    DATA     BYTE      PSW1
      000000E7H   SFRSYM    DATA     BYTE      CMPCR2
      000000E6H   SFRSYM    DATA     BYTE      CMPCR1
      0000009AH.1 SFRSYM    DATA     BIT       S2TI
      00000098H.1 SFRSYM    DATA     BIT       TI
      000000DEH   SFRSYM    DATA     BYTE      ADCCFG
      000000B8H   SFRSYM    DATA     BYTE      IP
      0000008FH   SFRSYM    DATA     BYTE      INTCLKO
      000000EEH   SFRSYM    DATA     BYTE      IP3H
      000000B6H   SFRSYM    DATA     BYTE      IP2H
      000000BFH   SFRSYM    DATA     BYTE      P_SW4
      000000A8H   SFRSYM    DATA     BYTE      IE
      000000BBH   SFRSYM    DATA     BYTE      P_SW3
      000000BAH   SFRSYM    DATA     BYTE      P_SW2
      000000A2H   SFRSYM    DATA     BYTE      P_SW1
      000000CEH   SFRSYM    DATA     BYTE      SPCTL
      000000F8H   SFRSYM    DATA     BYTE      P7
      000000E8H   SFRSYM    DATA     BYTE      P6
      000000C8H   SFRSYM    DATA     BYTE      P5
      000000C0H   SFRSYM    DATA     BYTE      P4
      000000ABH   SFRSYM    DATA     BYTE      WKTCH
      000000B0H   SFRSYM    DATA     BYTE      P3
      000000A0H   SFRSYM    DATA     BYTE      P2
      00000090H   SFRSYM    DATA     BYTE      P1
      00000080H   SFRSYM    DATA     BYTE      P0

      00FF63A7H   BLOCK     CODE     ---       LVL=0
      WR6         REGSYM    ---      INT       spi_n
      R10         REGSYM    ---      BYTE      dat
      00FF63A7H   LINE      CODE     ---       #81
      00FF63A9H   LINE      CODE     ---       #83
      00FF63B5H   LINE      CODE     ---       #85
      00FF63B5H   LINE      CODE     ---       #86
      00FF63B8H   LINE      CODE     ---       #87
      00FF63BBH   LINE      CODE     ---       #88
      00FF63C0H   LINE      CODE     ---       #89
L251 LINKER/LOCATER V4.66.93.0                                                        01/16/2025  23:25:20  PAGE 53


      00FF63C1H   LINE      CODE     ---       #90
      00FF63C1H   LINE      CODE     ---       #91
      00FF63C3H   LINE      CODE     ---       #92
      00FF63C6H   LINE      CODE     ---       #93
      00FF63C9H   LINE      CODE     ---       #94
      00FF63CAH   LINE      CODE     ---       #95
      00FF63CAH   LINE      CODE     ---       #96
      00FF63CDH   LINE      CODE     ---       #97
      00FF63D0H   LINE      CODE     ---       #98
      00FF63D4H   LINE      CODE     ---       #99
      00FF63D4H   LINE      CODE     ---       #100
      00FF63D4H   LINE      CODE     ---       #102
      00FF63D4H   LINE      CODE     ---       #103
      00FF63D4H   LINE      CODE     ---       #104
      ---         BLOCKEND  ---      ---       LVL=0

      00FF6145H   BLOCK     CODE     ---       LVL=0
      WR8         REGSYM    ---      INT       spi_n
      R10         REGSYM    ---      BYTE      dat
      00FF6149H   BLOCK     CODE     NEAR LAB  LVL=1
      R7          REGSYM    ---      BYTE      ret
      ---         BLOCKEND  ---      ---       LVL=1
      00FF6145H   LINE      CODE     ---       #107
      00FF6149H   LINE      CODE     ---       #108
      00FF6149H   LINE      CODE     ---       #109
      00FF614CH   LINE      CODE     ---       #110
      00FF6158H   LINE      CODE     ---       #112
      00FF6158H   LINE      CODE     ---       #113
      00FF615BH   LINE      CODE     ---       #114
      00FF615EH   LINE      CODE     ---       #115
      00FF6163H   LINE      CODE     ---       #116
      00FF6166H   LINE      CODE     ---       #117
      00FF6168H   LINE      CODE     ---       #118
      00FF6168H   LINE      CODE     ---       #119
      00FF616AH   LINE      CODE     ---       #120
      00FF616DH   LINE      CODE     ---       #121
      00FF6170H   LINE      CODE     ---       #122
      00FF6173H   LINE      CODE     ---       #123
      00FF6175H   LINE      CODE     ---       #124
      00FF6175H   LINE      CODE     ---       #125
      00FF6178H   LINE      CODE     ---       #126
      00FF617BH   LINE      CODE     ---       #127
      00FF617FH   LINE      CODE     ---       #128
      00FF6182H   LINE      CODE     ---       #129
      00FF6182H   LINE      CODE     ---       #130
      00FF6182H   LINE      CODE     ---       #132
      00FF6182H   LINE      CODE     ---       #133
      00FF6182H   LINE      CODE     ---       #135
      00FF6184H   LINE      CODE     ---       #136
      ---         BLOCKEND  ---      ---       LVL=0
      WR6         REGSYM    ---      INT       spi_n
      R11         REGSYM    ---      BYTE      dat
      REG=3       REGSYM    ---      ---       dat
      WR12        REGSYM    ---      INT       spi_n
      WR14        REGSYM    ---      WORD      dat
      REG=3       REGSYM    ---      ---       dat

      00FF0026H   BLOCK     CODE     ---       LVL=0
      WR14        REGSYM    ---      INT       spi_n
      R11         REGSYM    ---      BYTE      register_name
      R13         REGSYM    ---      BYTE      dat
      00FF0026H   LINE      CODE     ---       #206
      00FF002EH   LINE      CODE     ---       #208
      00FF0031H   LINE      CODE     ---       #209
      00FF0038H   LINE      CODE     ---       #210
L251 LINKER/LOCATER V4.66.93.0                                                        01/16/2025  23:25:20  PAGE 54


      ---         BLOCKEND  ---      ---       LVL=0
      R11         REGSYM    ---      BYTE      register_name
      REG=3       REGSYM    ---      ---       dat
      WR14        REGSYM    ---      INT       spi_n
      WR12        REGSYM    ---      WORD      dat
      WR14        REGSYM    ---      INT       spi_n
      WR12        REGSYM    ---      WORD      register_name
      WR6         REGSYM    ---      INT       spi_n
      REG=3       REGSYM    ---      ---       dat
      WR14        REGSYM    ---      INT       spi_n
      WR12        REGSYM    ---      WORD      dat
      REG=3       REGSYM    ---      ---       dat

      00FF645EH   BLOCK     CODE     ---       LVL=0
      WR14        REGSYM    ---      INT       spi_n
      R11         REGSYM    ---      BYTE      register_name
      00FF645EH   LINE      CODE     ---       #335
      00FF6462H   LINE      CODE     ---       #337
      00FF6465H   LINE      CODE     ---       #338
      00FF646BH   LINE      CODE     ---       #339
      ---         BLOCKEND  ---      ---       LVL=0

      00FF6105H   BLOCK     CODE     ---       LVL=0
      00010621H   SYMBOL    XDATA    INT       spi_n
      R11         REGSYM    ---      BYTE      register_name
      REG=3       REGSYM    ---      ---       dat
      00010623H   SYMBOL    XDATA    DWORD     len
      00FF6105H   LINE      CODE     ---       #350
      00FF610FH   LINE      CODE     ---       #352
      00FF6118H   LINE      CODE     ---       #353
      00FF611AH   LINE      CODE     ---       #355
      00FF6129H   LINE      CODE     ---       #356
      00FF6142H   LINE      CODE     ---       #357
      ---         BLOCKEND  ---      ---       LVL=0
      WR14        REGSYM    ---      INT       spi_n
      WR12        REGSYM    ---      WORD      register_name
      WR12        REGSYM    ---      WORD      dat
      REG=3       REGSYM    ---      ---       dat
      REG=3       REGSYM    ---      ---       write_buffer
      REG=3       REGSYM    ---      ---       write_buffer

      00FF44E5H   BLOCK     CODE     ---       LVL=0
      00010616H   SYMBOL    XDATA    INT       spi_n
      00010618H   SYMBOL    XDATA    INT       mode
      DR12        REGSYM    ---      DWORD     baud
      0001061AH   SYMBOL    XDATA    INT       sck_pin
      0001061CH   SYMBOL    XDATA    INT       mosi_pin
      0001061EH   SYMBOL    XDATA    INT       miso_pin
      00010620H   SYMBOL    XDATA    INT       cs_pin
      00FF44F5H   BLOCK     CODE     NEAR LAB  LVL=1
      00010622H   SYMBOL    XDATA    DWORD     spi_psc
      ---         BLOCKEND  ---      ---       LVL=1
      00FF44E5H   LINE      CODE     ---       #465
      00FF44F5H   LINE      CODE     ---       #466
      00FF44F5H   LINE      CODE     ---       #467
      00FF4501H   LINE      CODE     ---       #469
      00FF4501H   LINE      CODE     ---       #473
      00FF4501H   LINE      CODE     ---       #475
      00FF4516H   LINE      CODE     ---       #476
      00FF452BH   LINE      CODE     ---       #478
      00FF4537H   LINE      CODE     ---       #480
      00FF4546H   LINE      CODE     ---       #481
      00FF4546H   LINE      CODE     ---       #483
      00FF4552H   LINE      CODE     ---       #485
      00FF4560H   LINE      CODE     ---       #486
L251 LINKER/LOCATER V4.66.93.0                                                        01/16/2025  23:25:20  PAGE 55


      00FF4560H   LINE      CODE     ---       #489
      00FF4566H   LINE      CODE     ---       #491
      00FF4573H   LINE      CODE     ---       #492
      00FF4580H   LINE      CODE     ---       #493
      00FF458CH   LINE      CODE     ---       #495
      00FF4593H   LINE      CODE     ---       #496
      00FF4593H   LINE      CODE     ---       #497
      00FF459FH   LINE      CODE     ---       #499
      00FF45A6H   LINE      CODE     ---       #500
      00FF45A6H   LINE      CODE     ---       #504
      00FF45B3H   LINE      CODE     ---       #506
      00FF45B6H   LINE      CODE     ---       #508
      00FF45D8H   LINE      CODE     ---       #510
      00FF45D8H   LINE      CODE     ---       #511
      00FF45DCH   LINE      CODE     ---       #512
      00FF45DEH   LINE      CODE     ---       #514
      00FF45DEH   LINE      CODE     ---       #515
      00FF45E1H   LINE      CODE     ---       #516
      00FF45E3H   LINE      CODE     ---       #518
      00FF45E3H   LINE      CODE     ---       #519
      00FF45E6H   LINE      CODE     ---       #520
      00FF45E8H   LINE      CODE     ---       #522
      00FF45E8H   LINE      CODE     ---       #523
      00FF45EBH   LINE      CODE     ---       #524
      00FF45EBH   LINE      CODE     ---       #525
      00FF45EBH   LINE      CODE     ---       #527
      00FF45EEH   LINE      CODE     ---       #528
      00FF45F1H   LINE      CODE     ---       #529
      00FF45F4H   LINE      CODE     ---       #532
      00FF460DH   LINE      CODE     ---       #534
      00FF4610H   LINE      CODE     ---       #536
      00FF4616H   LINE      CODE     ---       #538
      00FF4619H   LINE      CODE     ---       #539
      00FF461BH   LINE      CODE     ---       #540
      00FF462BH   LINE      CODE     ---       #542
      00FF462EH   LINE      CODE     ---       #543
      00FF4630H   LINE      CODE     ---       #544
      00FF4640H   LINE      CODE     ---       #546
      00FF4644H   LINE      CODE     ---       #547
      00FF4646H   LINE      CODE     ---       #550
      00FF4649H   LINE      CODE     ---       #551
      00FF4649H   LINE      CODE     ---       #554
      00FF465BH   LINE      CODE     ---       #556
      00FF465BH   LINE      CODE     ---       #557
      00FF465BH   LINE      CODE     ---       #559
      00FF465BH   LINE      CODE     ---       #560
      00FF465EH   LINE      CODE     ---       #561
      00FF4660H   LINE      CODE     ---       #563
      00FF4660H   LINE      CODE     ---       #564
      00FF4663H   LINE      CODE     ---       #565
      00FF4665H   LINE      CODE     ---       #567
      00FF4665H   LINE      CODE     ---       #568
      00FF4668H   LINE      CODE     ---       #569
      00FF4668H   LINE      CODE     ---       #570
      00FF4668H   LINE      CODE     ---       #572
      00FF466BH   LINE      CODE     ---       #573
      00FF466EH   LINE      CODE     ---       #574
      00FF4677H   LINE      CODE     ---       #586
      00FF467AH   LINE      CODE     ---       #588
      00FF469CH   LINE      CODE     ---       #590
      00FF469CH   LINE      CODE     ---       #591
      00FF46A0H   LINE      CODE     ---       #592
      00FF46A2H   LINE      CODE     ---       #594
      00FF46A2H   LINE      CODE     ---       #595
      00FF46A5H   LINE      CODE     ---       #596
L251 LINKER/LOCATER V4.66.93.0                                                        01/16/2025  23:25:20  PAGE 56


      00FF46A7H   LINE      CODE     ---       #598
      00FF46A7H   LINE      CODE     ---       #599
      00FF46AAH   LINE      CODE     ---       #600
      00FF46ACH   LINE      CODE     ---       #602
      00FF46ACH   LINE      CODE     ---       #603
      00FF46AFH   LINE      CODE     ---       #604
      00FF46AFH   LINE      CODE     ---       #605
      00FF46AFH   LINE      CODE     ---       #607
      00FF46B2H   LINE      CODE     ---       #608
      00FF46BFH   LINE      CODE     ---       #612
      00FF46D8H   LINE      CODE     ---       #616
      00FF46DEH   LINE      CODE     ---       #618
      00FF46EBH   LINE      CODE     ---       #619
      00FF46EDH   LINE      CODE     ---       #620
      00FF46FDH   LINE      CODE     ---       #622
      00FF470AH   LINE      CODE     ---       #623
      00FF470CH   LINE      CODE     ---       #624
      00FF471CH   LINE      CODE     ---       #626
      00FF472AH   LINE      CODE     ---       #627
      00FF472CH   LINE      CODE     ---       #630
      00FF473CH   LINE      CODE     ---       #631
      00FF473CH   LINE      CODE     ---       #635
      00FF4754H   LINE      CODE     ---       #637
      00FF4754H   LINE      CODE     ---       #638
      00FF475AH   LINE      CODE     ---       #639
      00FF475CH   LINE      CODE     ---       #641
      00FF475CH   LINE      CODE     ---       #642
      00FF4761H   LINE      CODE     ---       #643
      00FF4763H   LINE      CODE     ---       #645
      00FF4763H   LINE      CODE     ---       #646
      00FF4768H   LINE      CODE     ---       #647
      00FF476AH   LINE      CODE     ---       #649
      00FF476AH   LINE      CODE     ---       #650
      00FF4772H   LINE      CODE     ---       #651
      00FF4772H   LINE      CODE     ---       #652
      00FF4772H   LINE      CODE     ---       #654
      00FF477AH   LINE      CODE     ---       #655
      00FF477DH   LINE      CODE     ---       #656
      00FF4786H   LINE      CODE     ---       #667
      00FF4789H   LINE      CODE     ---       #669
      00FF47A7H   LINE      CODE     ---       #671
      00FF47A7H   LINE      CODE     ---       #672
      00FF47ABH   LINE      CODE     ---       #673
      00FF47ADH   LINE      CODE     ---       #675
      00FF47ADH   LINE      CODE     ---       #676
      00FF47B0H   LINE      CODE     ---       #677
      00FF47B2H   LINE      CODE     ---       #679
      00FF47B2H   LINE      CODE     ---       #680
      00FF47B5H   LINE      CODE     ---       #681
      00FF47B7H   LINE      CODE     ---       #683
      00FF47B7H   LINE      CODE     ---       #684
      00FF47BAH   LINE      CODE     ---       #685
      00FF47BAH   LINE      CODE     ---       #686
      00FF47BAH   LINE      CODE     ---       #688
      00FF47BDH   LINE      CODE     ---       #689
      00FF47CAH   LINE      CODE     ---       #693
      00FF47E3H   LINE      CODE     ---       #695
      00FF47E9H   LINE      CODE     ---       #697
      00FF47F6H   LINE      CODE     ---       #698
      00FF47F8H   LINE      CODE     ---       #699
      00FF4808H   LINE      CODE     ---       #701
      00FF4815H   LINE      CODE     ---       #702
      00FF4817H   LINE      CODE     ---       #703
      00FF4827H   LINE      CODE     ---       #705
      00FF4835H   LINE      CODE     ---       #706
L251 LINKER/LOCATER V4.66.93.0                                                        01/16/2025  23:25:20  PAGE 57


      00FF4837H   LINE      CODE     ---       #709
      00FF4847H   LINE      CODE     ---       #710
      00FF4847H   LINE      CODE     ---       #714
      00FF485FH   LINE      CODE     ---       #716
      00FF485FH   LINE      CODE     ---       #717
      00FF4865H   LINE      CODE     ---       #718
      00FF4867H   LINE      CODE     ---       #720
      00FF4867H   LINE      CODE     ---       #721
      00FF486CH   LINE      CODE     ---       #722
      00FF486EH   LINE      CODE     ---       #724
      00FF486EH   LINE      CODE     ---       #725
      00FF4873H   LINE      CODE     ---       #726
      00FF4875H   LINE      CODE     ---       #728
      00FF4875H   LINE      CODE     ---       #729
      00FF487DH   LINE      CODE     ---       #730
      00FF487DH   LINE      CODE     ---       #731
      00FF487DH   LINE      CODE     ---       #733
      00FF4885H   LINE      CODE     ---       #734
      ---         BLOCKEND  ---      ---       LVL=0

      ---         MODULE    ---      ---       zf_driver_timer
      000000D0H   SFRSYM    DATA     BYTE      PSW
      0000009DH   SFRSYM    DATA     BYTE      IRCBAND
      00000097H   SFRSYM    DATA     BYTE      AUXR2
      000000EFH   SFRSYM    DATA     BYTE      AUXINTIF
      000000FDH   SFRSYM    DATA     BYTE      S4CON
      000000ACH   SFRSYM    DATA     BYTE      S3CON
      0000009AH   SFRSYM    DATA     BYTE      S2CON
      000000B7H   SFRSYM    DATA     BYTE      IPH
      000000CDH   SFRSYM    DATA     BYTE      SPSTAT
      000000DDH   SFRSYM    DATA     BYTE      T4T3M
      000000C1H   SFRSYM    DATA     BYTE      WDT_CONTR
      000000DFH   SFRSYM    DATA     BYTE      IP3
      000000F4H   SFRSYM    DATA     BYTE      USBCON
      000000B5H   SFRSYM    DATA     BYTE      IP2
      000000FFH   SFRSYM    DATA     BYTE      RSTCFG
      000000C7H   SFRSYM    DATA     BYTE      IAP_CONTR
      0000008EH   SFRSYM    DATA     BYTE      AUXR
      000000AFH   SFRSYM    DATA     BYTE      IE2
      00000088H   SFRSYM    DATA     BYTE      TCON
      00000089H   SFRSYM    DATA     BYTE      TMOD
      00000098H   SFRSYM    DATA     BYTE      SCON
      00000087H   SFRSYM    DATA     BYTE      PCON
      000000BCH   SFRSYM    DATA     BYTE      ADC_CONTR
      000000D1H   SFRSYM    DATA     BYTE      PSW1
      000000E7H   SFRSYM    DATA     BYTE      CMPCR2
      000000E6H   SFRSYM    DATA     BYTE      CMPCR1
      000000DEH   SFRSYM    DATA     BYTE      ADCCFG
      000000B8H   SFRSYM    DATA     BYTE      IP
      0000008FH   SFRSYM    DATA     BYTE      INTCLKO
      000000EEH   SFRSYM    DATA     BYTE      IP3H
      000000B6H   SFRSYM    DATA     BYTE      IP2H
      000000BFH   SFRSYM    DATA     BYTE      P_SW4
      000000A8H   SFRSYM    DATA     BYTE      IE
      000000BBH   SFRSYM    DATA     BYTE      P_SW3
      000000BAH   SFRSYM    DATA     BYTE      P_SW2
      000000A2H   SFRSYM    DATA     BYTE      P_SW1
      000000CEH   SFRSYM    DATA     BYTE      SPCTL
      000000F8H   SFRSYM    DATA     BYTE      P7
      000000E8H   SFRSYM    DATA     BYTE      P6
      000000C8H   SFRSYM    DATA     BYTE      P5
      000000C0H   SFRSYM    DATA     BYTE      P4
      000000ABH   SFRSYM    DATA     BYTE      WKTCH
      000000B0H   SFRSYM    DATA     BYTE      P3
      000000A0H   SFRSYM    DATA     BYTE      P2
L251 LINKER/LOCATER V4.66.93.0                                                        01/16/2025  23:25:20  PAGE 58


      00000090H   SFRSYM    DATA     BYTE      P1
      00000080H   SFRSYM    DATA     BYTE      P0
      000106C5H   SYMBOL    XDATA    ---       timer_function_state
      WR2         REGSYM    ---      INT       index
      WR0         REGSYM    ---      INT       mode
      R10         REGSYM    ---      BYTE      return_state

      ---         MODULE    ---      ---       zf_driver_uart
      00FF5CA3H   PUBLIC    CODE     ---       uart_rx_start_buff
      00FF582BH   PUBLIC    CODE     ---       uart_write_buffer
      00FF4FC4H   PUBLIC    CODE     ---       uart_init
      00FF62F8H   PUBLIC    CODE     ---       uart_rx_interrupt
      00FF0046H   PUBLIC    CODE     ---       uart_write_byte
      00FF5774H   PUBLIC    CODE     ---       uart_dma_init
      00FF5FA0H   PUBLIC    CODE     ---       uart_query_byte
      000106D9H   PUBLIC    XDATA    ---       uart_rx_buff
      00010612H   PUBLIC    XDATA    BYTE      ?uart_init?BYTE
      000000D0H   SFRSYM    DATA     BYTE      PSW
      0000009DH   SFRSYM    DATA     BYTE      IRCBAND
      00000097H   SFRSYM    DATA     BYTE      AUXR2
      000000EFH   SFRSYM    DATA     BYTE      AUXINTIF
      000000FDH   SFRSYM    DATA     BYTE      S4CON
      000000ACH   SFRSYM    DATA     BYTE      S3CON
      0000009AH   SFRSYM    DATA     BYTE      S2CON
      000000B7H   SFRSYM    DATA     BYTE      IPH
      000000CDH   SFRSYM    DATA     BYTE      SPSTAT
      000000DDH   SFRSYM    DATA     BYTE      T4T3M
      000000C1H   SFRSYM    DATA     BYTE      WDT_CONTR
      00000088H.6 SFRSYM    DATA     BIT       TR1
      000000D7H   SFRSYM    DATA     BYTE      T2L
      000000D6H   SFRSYM    DATA     BYTE      T2H
      000000DFH   SFRSYM    DATA     BYTE      IP3
      000000F4H   SFRSYM    DATA     BYTE      USBCON
      000000B5H   SFRSYM    DATA     BYTE      IP2
      000000FFH   SFRSYM    DATA     BYTE      RSTCFG
      000000C7H   SFRSYM    DATA     BYTE      IAP_CONTR
      0000008EH   SFRSYM    DATA     BYTE      AUXR
      000000AFH   SFRSYM    DATA     BYTE      IE2
      00000088H   SFRSYM    DATA     BYTE      TCON
      00000089H   SFRSYM    DATA     BYTE      TMOD
      00000098H   SFRSYM    DATA     BYTE      SCON
      00000087H   SFRSYM    DATA     BYTE      PCON
      000000BCH   SFRSYM    DATA     BYTE      ADC_CONTR
      000000D1H   SFRSYM    DATA     BYTE      PSW1
      000000E7H   SFRSYM    DATA     BYTE      CMPCR2
      000000E6H   SFRSYM    DATA     BYTE      CMPCR1
      000000DEH   SFRSYM    DATA     BYTE      ADCCFG
      000000B8H   SFRSYM    DATA     BYTE      IP
      0000008FH   SFRSYM    DATA     BYTE      INTCLKO
      000000EEH   SFRSYM    DATA     BYTE      IP3H
      000000B6H   SFRSYM    DATA     BYTE      IP2H
      000000BFH   SFRSYM    DATA     BYTE      P_SW4
      000000A8H   SFRSYM    DATA     BYTE      IE
      000000BBH   SFRSYM    DATA     BYTE      P_SW3
      000000BAH   SFRSYM    DATA     BYTE      P_SW2
      000000A2H   SFRSYM    DATA     BYTE      P_SW1
      000000CEH   SFRSYM    DATA     BYTE      SPCTL
      000000F8H   SFRSYM    DATA     BYTE      P7
      000000E8H   SFRSYM    DATA     BYTE      P6
      000000C8H   SFRSYM    DATA     BYTE      P5
      000000C0H   SFRSYM    DATA     BYTE      P4
      000000ABH   SFRSYM    DATA     BYTE      WKTCH
      000000B0H   SFRSYM    DATA     BYTE      P3
      000000A0H   SFRSYM    DATA     BYTE      P2
      00000090H   SFRSYM    DATA     BYTE      P1
L251 LINKER/LOCATER V4.66.93.0                                                        01/16/2025  23:25:20  PAGE 59


      00000080H   SFRSYM    DATA     BYTE      P0
      000106D1H   SYMBOL    XDATA    ---       uart_function_state
      WR2         REGSYM    ---      INT       index
      WR0         REGSYM    ---      INT       mode
      R10         REGSYM    ---      BYTE      return_state

      00FF582BH   BLOCK     CODE     ---       LVL=0
      WR0         REGSYM    ---      INT       uart_n
      REG=7       REGSYM    ---      ---       buff
      WR8         REGSYM    ---      WORD      len
      00FF582BH   LINE      CODE     ---       #108
      00FF5833H   LINE      CODE     ---       #112
      00FF584DH   LINE      CODE     ---       #113
      00FF584FH   LINE      CODE     ---       #114
      00FF585CH   LINE      CODE     ---       #115
      00FF5873H   LINE      CODE     ---       #116
      00FF5882H   LINE      CODE     ---       #117
      00FF588FH   LINE      CODE     ---       #118
      00FF589CH   LINE      CODE     ---       #120
      00FF58B9H   LINE      CODE     ---       #122
      00FF58C5H   LINE      CODE     ---       #124
      ---         BLOCKEND  ---      ---       LVL=0
      REG=3       REGSYM    ---      ---       str

      00FF0046H   BLOCK     CODE     ---       LVL=0
      WR6         REGSYM    ---      INT       uart_n
      0001063EH   SYMBOL    XDATA    BYTE      dat
      00FF0046H   LINE      CODE     ---       #154
      00FF004AH   LINE      CODE     ---       #156
      ---         BLOCKEND  ---      ---       LVL=0

      00FF5CA3H   BLOCK     CODE     ---       LVL=0
      WR8         REGSYM    ---      INT       uart_n
      00FF5CA3H   LINE      CODE     ---       #165
      00FF5CA5H   LINE      CODE     ---       #167
      00FF5CC3H   LINE      CODE     ---       #168
      00FF5CD3H   LINE      CODE     ---       #169
      00FF5CE6H   LINE      CODE     ---       #170
      00FF5CF5H   LINE      CODE     ---       #171
      00FF5D02H   LINE      CODE     ---       #172
      ---         BLOCKEND  ---      ---       LVL=0

      00FF62F8H   BLOCK     CODE     ---       LVL=0
      WR6         REGSYM    ---      INT       uart_n
      R5          REGSYM    ---      BYTE      status
      00FF62F8H   LINE      CODE     ---       #183
      00FF62FAH   LINE      CODE     ---       #185
      00FF62FEH   LINE      CODE     ---       #187
      00FF6316H   LINE      CODE     ---       #188
      00FF6318H   LINE      CODE     ---       #191
      00FF6333H   LINE      CODE     ---       #192
      00FF6333H   LINE      CODE     ---       #193
      ---         BLOCKEND  ---      ---       LVL=0
      WR8         REGSYM    ---      INT       uart_n
      R15         REGSYM    ---      BYTE      dat

      00FF5FA0H   BLOCK     CODE     ---       LVL=0
      WR2         REGSYM    ---      INT       uart_n
      REG=7       REGSYM    ---      ---       dat
      00FF5FA6H   BLOCK     CODE     NEAR LAB  LVL=1
      R15         REGSYM    ---      BYTE      ret
      ---         BLOCKEND  ---      ---       LVL=1
      00FF5FA0H   LINE      CODE     ---       #227
      00FF5FA6H   LINE      CODE     ---       #228
      00FF5FA6H   LINE      CODE     ---       #229
L251 LINKER/LOCATER V4.66.93.0                                                        01/16/2025  23:25:20  PAGE 60


      00FF5FA6H   LINE      CODE     ---       #232
      00FF5FB6H   LINE      CODE     ---       #234
      00FF5FD0H   LINE      CODE     ---       #236
      00FF5FD3H   LINE      CODE     ---       #238
      00FF5FDBH   LINE      CODE     ---       #239
      00FF5FDDH   LINE      CODE     ---       #242
      00FF5FDFH   LINE      CODE     ---       #243
      00FF5FDFH   LINE      CODE     ---       #246
      00FF5FE4H   LINE      CODE     ---       #248
      00FF5FE6H   LINE      CODE     ---       #249
      ---         BLOCKEND  ---      ---       LVL=0

      00FF5774H   BLOCK     CODE     ---       LVL=0
      WR8         REGSYM    ---      INT       uart_n
      00FF5774H   LINE      CODE     ---       #257
      00FF5778H   LINE      CODE     ---       #259
      00FF5794H   LINE      CODE     ---       #260
      00FF57A2H   LINE      CODE     ---       #261
      00FF57AFH   LINE      CODE     ---       #263
      00FF57BCH   LINE      CODE     ---       #264
      00FF57C9H   LINE      CODE     ---       #265
      00FF57D6H   LINE      CODE     ---       #267
      00FF57E3H   LINE      CODE     ---       #268
      00FF57FCH   LINE      CODE     ---       #269
      00FF580FH   LINE      CODE     ---       #270
      00FF581EH   LINE      CODE     ---       #271
      00FF5823H   LINE      CODE     ---       #272
      00FF5828H   LINE      CODE     ---       #274
      ---         BLOCKEND  ---      ---       LVL=0

      00FF4FC4H   BLOCK     CODE     ---       LVL=0
      WR12        REGSYM    ---      INT       uart_n
      00010616H   SYMBOL    XDATA    DWORD     baud
      WR14        REGSYM    ---      INT       tx_pin
      0001061AH   SYMBOL    XDATA    INT       rx_pin
      00FF4FD4H   BLOCK     CODE     NEAR LAB  LVL=1
      WR6         REGSYM    ---      WORD      brt
      ---         BLOCKEND  ---      ---       LVL=1
      00FF4FC4H   LINE      CODE     ---       #286
      00FF4FD4H   LINE      CODE     ---       #287
      00FF4FD4H   LINE      CODE     ---       #311
      00FF4FE5H   LINE      CODE     ---       #312
      00FF4FF8H   LINE      CODE     ---       #314
      00FF5029H   LINE      CODE     ---       #316
      00FF5049H   LINE      CODE     ---       #318
      00FF5049H   LINE      CODE     ---       #332
      00FF504CH   LINE      CODE     ---       #333
      00FF5050H   LINE      CODE     ---       #334
      00FF5054H   LINE      CODE     ---       #335
      00FF5057H   LINE      CODE     ---       #336
      00FF5059H   LINE      CODE     ---       #339
      00FF505CH   LINE      CODE     ---       #341
      00FF506EH   LINE      CODE     ---       #343
      00FF5072H   LINE      CODE     ---       #344
      00FF5075H   LINE      CODE     ---       #345
      00FF5081H   LINE      CODE     ---       #347
      00FF5084H   LINE      CODE     ---       #348
      00FF5087H   LINE      CODE     ---       #349
      00FF5093H   LINE      CODE     ---       #351
      00FF5096H   LINE      CODE     ---       #352
      00FF5099H   LINE      CODE     ---       #353
      00FF50ABH   LINE      CODE     ---       #355
      00FF50AEH   LINE      CODE     ---       #356
      00FF50AEH   LINE      CODE     ---       #359
      00FF50B1H   LINE      CODE     ---       #362
L251 LINKER/LOCATER V4.66.93.0                                                        01/16/2025  23:25:20  PAGE 61


      00FF50B1H   LINE      CODE     ---       #366
      00FF50B4H   LINE      CODE     ---       #367
      00FF50B8H   LINE      CODE     ---       #368
      00FF50BCH   LINE      CODE     ---       #369
      00FF50BFH   LINE      CODE     ---       #372
      00FF50C2H   LINE      CODE     ---       #374
      00FF50D4H   LINE      CODE     ---       #376
      00FF50D4H   LINE      CODE     ---       #377
      00FF50D6H   LINE      CODE     ---       #378
      00FF50E5H   LINE      CODE     ---       #380
      00FF50E8H   LINE      CODE     ---       #381
      00FF50E8H   LINE      CODE     ---       #385
      00FF50EAH   LINE      CODE     ---       #388
      00FF50EAH   LINE      CODE     ---       #392
      00FF50EDH   LINE      CODE     ---       #393
      00FF50F1H   LINE      CODE     ---       #394
      00FF50F5H   LINE      CODE     ---       #395
      00FF50F8H   LINE      CODE     ---       #405
      00FF50FBH   LINE      CODE     ---       #407
      00FF510DH   LINE      CODE     ---       #409
      00FF510DH   LINE      CODE     ---       #410
      00FF510FH   LINE      CODE     ---       #411
      00FF511BH   LINE      CODE     ---       #413
      00FF511EH   LINE      CODE     ---       #414
      00FF511EH   LINE      CODE     ---       #418
      00FF5120H   LINE      CODE     ---       #421
      00FF5120H   LINE      CODE     ---       #425
      00FF5123H   LINE      CODE     ---       #426
      00FF5127H   LINE      CODE     ---       #427
      00FF512BH   LINE      CODE     ---       #428
      00FF512EH   LINE      CODE     ---       #438
      00FF5131H   LINE      CODE     ---       #440
      00FF5143H   LINE      CODE     ---       #442
      00FF5147H   LINE      CODE     ---       #443
      00FF5149H   LINE      CODE     ---       #444
      00FF5155H   LINE      CODE     ---       #448
      00FF5158H   LINE      CODE     ---       #449
      00FF5158H   LINE      CODE     ---       #453
      00FF5158H   LINE      CODE     ---       #456
      00FF5158H   LINE      CODE     ---       #459
      00FF515DH   LINE      CODE     ---       #461
      ---         BLOCKEND  ---      ---       LVL=0

      ---         MODULE    ---      ---       zf_device_config
      00FF021EH   PUBLIC    CODE     ---       imu660ra_config_file

      ---         MODULE    ---      ---       zf_device_type
      000106F9H   PUBLIC    XDATA    ---       tof_module_exti_handler
      000106FBH   PUBLIC    XDATA    INT       wireless_type
      000106FDH   PUBLIC    XDATA    INT       tof_type
      000106FFH   PUBLIC    XDATA    INT       gps_type
      000000D0H   SFRSYM    DATA     BYTE      PSW
      0000009DH   SFRSYM    DATA     BYTE      IRCBAND
      00000097H   SFRSYM    DATA     BYTE      AUXR2
      000000EFH   SFRSYM    DATA     BYTE      AUXINTIF
      000000FDH   SFRSYM    DATA     BYTE      S4CON
      000000ACH   SFRSYM    DATA     BYTE      S3CON
      0000009AH   SFRSYM    DATA     BYTE      S2CON
      000000B7H   SFRSYM    DATA     BYTE      IPH
      000000CDH   SFRSYM    DATA     BYTE      SPSTAT
      000000DDH   SFRSYM    DATA     BYTE      T4T3M
      000000C1H   SFRSYM    DATA     BYTE      WDT_CONTR
      000000DFH   SFRSYM    DATA     BYTE      IP3
      000000F4H   SFRSYM    DATA     BYTE      USBCON
      000000B5H   SFRSYM    DATA     BYTE      IP2
L251 LINKER/LOCATER V4.66.93.0                                                        01/16/2025  23:25:20  PAGE 62


      000000FFH   SFRSYM    DATA     BYTE      RSTCFG
      000000C7H   SFRSYM    DATA     BYTE      IAP_CONTR
      0000008EH   SFRSYM    DATA     BYTE      AUXR
      000000AFH   SFRSYM    DATA     BYTE      IE2
      00000088H   SFRSYM    DATA     BYTE      TCON
      00000089H   SFRSYM    DATA     BYTE      TMOD
      00000098H   SFRSYM    DATA     BYTE      SCON
      00000087H   SFRSYM    DATA     BYTE      PCON
      000000BCH   SFRSYM    DATA     BYTE      ADC_CONTR
      000000D1H   SFRSYM    DATA     BYTE      PSW1
      000000E7H   SFRSYM    DATA     BYTE      CMPCR2
      000000E6H   SFRSYM    DATA     BYTE      CMPCR1
      000000DEH   SFRSYM    DATA     BYTE      ADCCFG
      000000B8H   SFRSYM    DATA     BYTE      IP
      0000008FH   SFRSYM    DATA     BYTE      INTCLKO
      000000EEH   SFRSYM    DATA     BYTE      IP3H
      000000B6H   SFRSYM    DATA     BYTE      IP2H
      000000BFH   SFRSYM    DATA     BYTE      P_SW4
      000000A8H   SFRSYM    DATA     BYTE      IE
      000000BBH   SFRSYM    DATA     BYTE      P_SW3
      000000BAH   SFRSYM    DATA     BYTE      P_SW2
      000000A2H   SFRSYM    DATA     BYTE      P_SW1
      000000CEH   SFRSYM    DATA     BYTE      SPCTL
      000000F8H   SFRSYM    DATA     BYTE      P7
      000000E8H   SFRSYM    DATA     BYTE      P6
      000000C8H   SFRSYM    DATA     BYTE      P5
      000000C0H   SFRSYM    DATA     BYTE      P4
      000000ABH   SFRSYM    DATA     BYTE      WKTCH
      000000B0H   SFRSYM    DATA     BYTE      P3
      000000A0H   SFRSYM    DATA     BYTE      P2
      00000090H   SFRSYM    DATA     BYTE      P1
      00000080H   SFRSYM    DATA     BYTE      P0
      WR6         REGSYM    ---      INT       type_set
      WR4         REGSYM    ---      INT       uartx
      REG=0       REGSYM    ---      ---       uart_callback
      WR6         REGSYM    ---      INT       type_set
      REG=0       REGSYM    ---      ---       exti_callback
      WR6         REGSYM    ---      INT       type_set
      WR4         REGSYM    ---      INT       uartx
      REG=0       REGSYM    ---      ---       uart_callback

      ---         MODULE    ---      ---       zf_device_tft180
      00010701H   PUBLIC    XDATA    WORD      tft180_pencolor
      00010703H   PUBLIC    XDATA    WORD      tft180_bgcolor
      00010705H   PUBLIC    XDATA    INT       tft180_display_dir
      00010707H   PUBLIC    XDATA    BYTE      tft180_x_max
      00010708H   PUBLIC    XDATA    BYTE      tft180_y_max
      000000D0H   SFRSYM    DATA     BYTE      PSW
      0000009DH   SFRSYM    DATA     BYTE      IRCBAND
      00000097H   SFRSYM    DATA     BYTE      AUXR2
      000000EFH   SFRSYM    DATA     BYTE      AUXINTIF
      000000FDH   SFRSYM    DATA     BYTE      S4CON
      000000ACH   SFRSYM    DATA     BYTE      S3CON
      0000009AH   SFRSYM    DATA     BYTE      S2CON
      000000B7H   SFRSYM    DATA     BYTE      IPH
      000000CDH   SFRSYM    DATA     BYTE      SPSTAT
      000000DDH   SFRSYM    DATA     BYTE      T4T3M
      000000C1H   SFRSYM    DATA     BYTE      WDT_CONTR
      000000DFH   SFRSYM    DATA     BYTE      IP3
      000000F4H   SFRSYM    DATA     BYTE      USBCON
      000000B5H   SFRSYM    DATA     BYTE      IP2
      000000FFH   SFRSYM    DATA     BYTE      RSTCFG
      000000C7H   SFRSYM    DATA     BYTE      IAP_CONTR
      0000008EH   SFRSYM    DATA     BYTE      AUXR
      000000AFH   SFRSYM    DATA     BYTE      IE2
L251 LINKER/LOCATER V4.66.93.0                                                        01/16/2025  23:25:20  PAGE 63


      00000088H   SFRSYM    DATA     BYTE      TCON
      00000089H   SFRSYM    DATA     BYTE      TMOD
      00000098H   SFRSYM    DATA     BYTE      SCON
      000000A0H.2 SFRSYM    DATA     BIT       P22
      000000A0H.1 SFRSYM    DATA     BIT       P21
      000000A0H.0 SFRSYM    DATA     BIT       P20
      00000087H   SFRSYM    DATA     BYTE      PCON
      000000BCH   SFRSYM    DATA     BYTE      ADC_CONTR
      000000D1H   SFRSYM    DATA     BYTE      PSW1
      000000E7H   SFRSYM    DATA     BYTE      CMPCR2
      000000E6H   SFRSYM    DATA     BYTE      CMPCR1
      000000DEH   SFRSYM    DATA     BYTE      ADCCFG
      000000B8H   SFRSYM    DATA     BYTE      IP
      0000008FH   SFRSYM    DATA     BYTE      INTCLKO
      000000EEH   SFRSYM    DATA     BYTE      IP3H
      000000B6H   SFRSYM    DATA     BYTE      IP2H
      000000BFH   SFRSYM    DATA     BYTE      P_SW4
      000000A8H   SFRSYM    DATA     BYTE      IE
      000000BBH   SFRSYM    DATA     BYTE      P_SW3
      000000BAH   SFRSYM    DATA     BYTE      P_SW2
      000000A2H   SFRSYM    DATA     BYTE      P_SW1
      000000CEH   SFRSYM    DATA     BYTE      SPCTL
      000000F8H   SFRSYM    DATA     BYTE      P7
      000000E8H   SFRSYM    DATA     BYTE      P6
      000000C8H   SFRSYM    DATA     BYTE      P5
      000000C0H   SFRSYM    DATA     BYTE      P4
      000000ABH   SFRSYM    DATA     BYTE      WKTCH
      000000B0H   SFRSYM    DATA     BYTE      P3
      000000A0H   SFRSYM    DATA     BYTE      P2
      00000090H   SFRSYM    DATA     BYTE      P1
      00000080H   SFRSYM    DATA     BYTE      P0
      R5          REGSYM    ---      BYTE      dat
      WR12        REGSYM    ---      WORD      x2
      WR14        REGSYM    ---      WORD      y2
      WR14        REGSYM    ---      WORD      color
      WR6         REGSYM    ---      INT       dir
      WR6         REGSYM    ---      WORD      pen
      WR4         REGSYM    ---      WORD      bgcolor
      WR2         REGSYM    ---      WORD      x
      WR0         REGSYM    ---      WORD      y
      WR14        REGSYM    ---      WORD      color
      WR12        REGSYM    ---      WORD      x
      WR14        REGSYM    ---      WORD      y
      REG=3       REGSYM    ---      ---       dat
      WR12        REGSYM    ---      WORD      x
      WR14        REGSYM    ---      WORD      y
      WR12        REGSYM    ---      WORD      x
      WR14        REGSYM    ---      WORD      y
      R3          REGSYM    ---      BYTE      dat
      WR12        REGSYM    ---      WORD      x
      WR14        REGSYM    ---      WORD      y
      WR12        REGSYM    ---      WORD      x
      WR14        REGSYM    ---      WORD      y
      WR2         REGSYM    ---      WORD      dat
      WR12        REGSYM    ---      WORD      y
      R15         REGSYM    ---      BYTE      num
      R14         REGSYM    ---      BYTE      length
      WR12        REGSYM    ---      WORD      y
      R14         REGSYM    ---      BYTE      num
      R15         REGSYM    ---      BYTE      pointnum
      R10         REGSYM    ---      CHAR      point
      REG=3       REGSYM    ---      ---       p

      ---         MODULE    ---      ---       zf_device_ips114
      00010709H   PUBLIC    XDATA    WORD      ips114_pencolor
L251 LINKER/LOCATER V4.66.93.0                                                        01/16/2025  23:25:20  PAGE 64


      0001070BH   PUBLIC    XDATA    WORD      ips114_bgcolor
      0001070DH   PUBLIC    XDATA    INT       ips114_display_dir
      0001070FH   PUBLIC    XDATA    BYTE      ips114_x_max
      00010710H   PUBLIC    XDATA    BYTE      ips114_y_max
      000000D0H   SFRSYM    DATA     BYTE      PSW
      0000009DH   SFRSYM    DATA     BYTE      IRCBAND
      00000097H   SFRSYM    DATA     BYTE      AUXR2
      000000EFH   SFRSYM    DATA     BYTE      AUXINTIF
      000000FDH   SFRSYM    DATA     BYTE      S4CON
      000000ACH   SFRSYM    DATA     BYTE      S3CON
      0000009AH   SFRSYM    DATA     BYTE      S2CON
      000000B7H   SFRSYM    DATA     BYTE      IPH
      000000CDH   SFRSYM    DATA     BYTE      SPSTAT
      000000DDH   SFRSYM    DATA     BYTE      T4T3M
      000000C1H   SFRSYM    DATA     BYTE      WDT_CONTR
      000000DFH   SFRSYM    DATA     BYTE      IP3
      000000F4H   SFRSYM    DATA     BYTE      USBCON
      000000B5H   SFRSYM    DATA     BYTE      IP2
      000000FFH   SFRSYM    DATA     BYTE      RSTCFG
      000000C7H   SFRSYM    DATA     BYTE      IAP_CONTR
      0000008EH   SFRSYM    DATA     BYTE      AUXR
      000000AFH   SFRSYM    DATA     BYTE      IE2
      00000088H   SFRSYM    DATA     BYTE      TCON
      00000089H   SFRSYM    DATA     BYTE      TMOD
      00000098H   SFRSYM    DATA     BYTE      SCON
      000000A0H.2 SFRSYM    DATA     BIT       P22
      000000A0H.1 SFRSYM    DATA     BIT       P21
      000000A0H.0 SFRSYM    DATA     BIT       P20
      00000087H   SFRSYM    DATA     BYTE      PCON
      000000BCH   SFRSYM    DATA     BYTE      ADC_CONTR
      000000D1H   SFRSYM    DATA     BYTE      PSW1
      000000E7H   SFRSYM    DATA     BYTE      CMPCR2
      000000E6H   SFRSYM    DATA     BYTE      CMPCR1
      000000DEH   SFRSYM    DATA     BYTE      ADCCFG
      000000B8H   SFRSYM    DATA     BYTE      IP
      0000008FH   SFRSYM    DATA     BYTE      INTCLKO
      000000EEH   SFRSYM    DATA     BYTE      IP3H
      000000B6H   SFRSYM    DATA     BYTE      IP2H
      000000BFH   SFRSYM    DATA     BYTE      P_SW4
      000000A8H   SFRSYM    DATA     BYTE      IE
      000000BBH   SFRSYM    DATA     BYTE      P_SW3
      000000BAH   SFRSYM    DATA     BYTE      P_SW2
      000000A2H   SFRSYM    DATA     BYTE      P_SW1
      000000CEH   SFRSYM    DATA     BYTE      SPCTL
      000000F8H   SFRSYM    DATA     BYTE      P7
      000000E8H   SFRSYM    DATA     BYTE      P6
      000000C8H   SFRSYM    DATA     BYTE      P5
      000000C0H   SFRSYM    DATA     BYTE      P4
      000000ABH   SFRSYM    DATA     BYTE      WKTCH
      000000B0H   SFRSYM    DATA     BYTE      P3
      000000A0H   SFRSYM    DATA     BYTE      P2
      00000090H   SFRSYM    DATA     BYTE      P1
      00000080H   SFRSYM    DATA     BYTE      P0
      R5          REGSYM    ---      BYTE      dat
      WR12        REGSYM    ---      WORD      x2
      WR14        REGSYM    ---      WORD      y2
      WR14        REGSYM    ---      WORD      color
      WR12        REGSYM    ---      WORD      i
      WR6         REGSYM    ---      INT       dir
      WR6         REGSYM    ---      WORD      pen
      WR4         REGSYM    ---      WORD      bgcolor
      WR2         REGSYM    ---      WORD      x
      WR0         REGSYM    ---      WORD      y
      WR14        REGSYM    ---      WORD      color
      WR12        REGSYM    ---      WORD      x
L251 LINKER/LOCATER V4.66.93.0                                                        01/16/2025  23:25:20  PAGE 65


      WR14        REGSYM    ---      WORD      y
      REG=3       REGSYM    ---      ---       dat
      WR12        REGSYM    ---      WORD      x
      WR14        REGSYM    ---      WORD      y
      WR12        REGSYM    ---      WORD      x
      WR14        REGSYM    ---      WORD      y
      R3          REGSYM    ---      BYTE      dat
      WR12        REGSYM    ---      WORD      x
      WR14        REGSYM    ---      WORD      y
      WR12        REGSYM    ---      WORD      x
      WR14        REGSYM    ---      WORD      y
      WR2         REGSYM    ---      WORD      dat
      WR12        REGSYM    ---      WORD      y
      R15         REGSYM    ---      BYTE      num
      R14         REGSYM    ---      BYTE      length
      WR12        REGSYM    ---      WORD      y
      R14         REGSYM    ---      BYTE      num
      R15         REGSYM    ---      BYTE      pointnum
      R10         REGSYM    ---      CHAR      point
      REG=3       REGSYM    ---      ---       p
      WR2         REGSYM    ---      WORD      x
      WR8         REGSYM    ---      WORD      y
      REG=3       REGSYM    ---      ---       p

      ---         MODULE    ---      ---       zf_device_ips200
      000106DDH   PUBLIC    XDATA    WORD      ips200_pencolor
      000106DFH   PUBLIC    XDATA    WORD      ips200_bgcolor
      000106E1H   PUBLIC    XDATA    INT       ips200_display_dir
      000106E3H   PUBLIC    XDATA    WORD      ips200_x_max
      000106E5H   PUBLIC    XDATA    WORD      ips200_y_max
      000000D0H   SFRSYM    DATA     BYTE      PSW
      0000009DH   SFRSYM    DATA     BYTE      IRCBAND
      00000097H   SFRSYM    DATA     BYTE      AUXR2
      000000EFH   SFRSYM    DATA     BYTE      AUXINTIF
      000000FDH   SFRSYM    DATA     BYTE      S4CON
      000000ACH   SFRSYM    DATA     BYTE      S3CON
      0000009AH   SFRSYM    DATA     BYTE      S2CON
      000000B7H   SFRSYM    DATA     BYTE      IPH
      000000CDH   SFRSYM    DATA     BYTE      SPSTAT
      000000DDH   SFRSYM    DATA     BYTE      T4T3M
      000000C1H   SFRSYM    DATA     BYTE      WDT_CONTR
      000000DFH   SFRSYM    DATA     BYTE      IP3
      000000F4H   SFRSYM    DATA     BYTE      USBCON
      000000B5H   SFRSYM    DATA     BYTE      IP2
      000000FFH   SFRSYM    DATA     BYTE      RSTCFG
      000000C7H   SFRSYM    DATA     BYTE      IAP_CONTR
      0000008EH   SFRSYM    DATA     BYTE      AUXR
      000000AFH   SFRSYM    DATA     BYTE      IE2
      00000088H   SFRSYM    DATA     BYTE      TCON
      00000089H   SFRSYM    DATA     BYTE      TMOD
      00000098H   SFRSYM    DATA     BYTE      SCON
      000000A0H.2 SFRSYM    DATA     BIT       P22
      000000A0H.1 SFRSYM    DATA     BIT       P21
      000000A0H.0 SFRSYM    DATA     BIT       P20
      00000087H   SFRSYM    DATA     BYTE      PCON
      000000BCH   SFRSYM    DATA     BYTE      ADC_CONTR
      000000D1H   SFRSYM    DATA     BYTE      PSW1
      000000E7H   SFRSYM    DATA     BYTE      CMPCR2
      000000E6H   SFRSYM    DATA     BYTE      CMPCR1
      000000DEH   SFRSYM    DATA     BYTE      ADCCFG
      000000B8H   SFRSYM    DATA     BYTE      IP
      0000008FH   SFRSYM    DATA     BYTE      INTCLKO
      000000EEH   SFRSYM    DATA     BYTE      IP3H
      000000B6H   SFRSYM    DATA     BYTE      IP2H
      000000BFH   SFRSYM    DATA     BYTE      P_SW4
L251 LINKER/LOCATER V4.66.93.0                                                        01/16/2025  23:25:20  PAGE 66


      000000A8H   SFRSYM    DATA     BYTE      IE
      000000BBH   SFRSYM    DATA     BYTE      P_SW3
      000000BAH   SFRSYM    DATA     BYTE      P_SW2
      000000A2H   SFRSYM    DATA     BYTE      P_SW1
      000000CEH   SFRSYM    DATA     BYTE      SPCTL
      000000F8H   SFRSYM    DATA     BYTE      P7
      000000E8H   SFRSYM    DATA     BYTE      P6
      000000C8H   SFRSYM    DATA     BYTE      P5
      000000C0H   SFRSYM    DATA     BYTE      P4
      000000ABH   SFRSYM    DATA     BYTE      WKTCH
      000000B0H   SFRSYM    DATA     BYTE      P3
      000000A0H   SFRSYM    DATA     BYTE      P2
      00000090H   SFRSYM    DATA     BYTE      P1
      00000080H   SFRSYM    DATA     BYTE      P0
      R5          REGSYM    ---      BYTE      dat
      WR12        REGSYM    ---      WORD      x2
      WR14        REGSYM    ---      WORD      y2
      WR14        REGSYM    ---      WORD      color
      WR12        REGSYM    ---      WORD      i
      WR6         REGSYM    ---      INT       dir
      WR6         REGSYM    ---      WORD      pen
      WR4         REGSYM    ---      WORD      bgcolor
      WR2         REGSYM    ---      WORD      x
      WR0         REGSYM    ---      WORD      y
      WR14        REGSYM    ---      WORD      color
      WR12        REGSYM    ---      WORD      x
      WR14        REGSYM    ---      WORD      y
      REG=3       REGSYM    ---      ---       dat
      WR12        REGSYM    ---      WORD      x
      WR14        REGSYM    ---      WORD      y
      WR12        REGSYM    ---      WORD      x
      WR14        REGSYM    ---      WORD      y
      R3          REGSYM    ---      BYTE      dat
      WR12        REGSYM    ---      WORD      x
      WR14        REGSYM    ---      WORD      y
      WR12        REGSYM    ---      WORD      x
      WR14        REGSYM    ---      WORD      y
      WR2         REGSYM    ---      WORD      dat
      WR12        REGSYM    ---      WORD      y
      R15         REGSYM    ---      BYTE      num
      R14         REGSYM    ---      BYTE      length
      WR12        REGSYM    ---      WORD      y
      R14         REGSYM    ---      BYTE      num
      R15         REGSYM    ---      BYTE      pointnum
      R10         REGSYM    ---      CHAR      point
      REG=3       REGSYM    ---      ---       p
      WR2         REGSYM    ---      WORD      x
      WR8         REGSYM    ---      WORD      y
      REG=3       REGSYM    ---      ---       p

      ---         MODULE    ---      ---       zf_device_dl1a
      000106C1H   PUBLIC    XDATA    WORD      dl1a_distance_mm
      000106C3H   PUBLIC    XDATA    BYTE      dl1a_finsh_flag
      000000D0H   SFRSYM    DATA     BYTE      PSW
      0000009DH   SFRSYM    DATA     BYTE      IRCBAND
      00000097H   SFRSYM    DATA     BYTE      AUXR2
      000000EFH   SFRSYM    DATA     BYTE      AUXINTIF
      000000FDH   SFRSYM    DATA     BYTE      S4CON
      000000ACH   SFRSYM    DATA     BYTE      S3CON
      0000009AH   SFRSYM    DATA     BYTE      S2CON
      000000B7H   SFRSYM    DATA     BYTE      IPH
      000000CDH   SFRSYM    DATA     BYTE      SPSTAT
      000000DDH   SFRSYM    DATA     BYTE      T4T3M
      000000C1H   SFRSYM    DATA     BYTE      WDT_CONTR
      000000DFH   SFRSYM    DATA     BYTE      IP3
L251 LINKER/LOCATER V4.66.93.0                                                        01/16/2025  23:25:20  PAGE 67


      000000F4H   SFRSYM    DATA     BYTE      USBCON
      000000B5H   SFRSYM    DATA     BYTE      IP2
      000000FFH   SFRSYM    DATA     BYTE      RSTCFG
      000000C7H   SFRSYM    DATA     BYTE      IAP_CONTR
      0000008EH   SFRSYM    DATA     BYTE      AUXR
      000000AFH   SFRSYM    DATA     BYTE      IE2
      00000088H   SFRSYM    DATA     BYTE      TCON
      00000089H   SFRSYM    DATA     BYTE      TMOD
      00000098H   SFRSYM    DATA     BYTE      SCON
      00000087H   SFRSYM    DATA     BYTE      PCON
      000000BCH   SFRSYM    DATA     BYTE      ADC_CONTR
      000000D1H   SFRSYM    DATA     BYTE      PSW1
      000000E7H   SFRSYM    DATA     BYTE      CMPCR2
      000000E6H   SFRSYM    DATA     BYTE      CMPCR1
      000000DEH   SFRSYM    DATA     BYTE      ADCCFG
      000000B8H   SFRSYM    DATA     BYTE      IP
      0000008FH   SFRSYM    DATA     BYTE      INTCLKO
      000000EEH   SFRSYM    DATA     BYTE      IP3H
      000000B6H   SFRSYM    DATA     BYTE      IP2H
      000000BFH   SFRSYM    DATA     BYTE      P_SW4
      000000A8H   SFRSYM    DATA     BYTE      IE
      000000BBH   SFRSYM    DATA     BYTE      P_SW3
      000000BAH   SFRSYM    DATA     BYTE      P_SW2
      000000A2H   SFRSYM    DATA     BYTE      P_SW1
      000000CEH   SFRSYM    DATA     BYTE      SPCTL
      000000F8H   SFRSYM    DATA     BYTE      P7
      000000E8H   SFRSYM    DATA     BYTE      P6
      000000C8H   SFRSYM    DATA     BYTE      P5
      000000C0H   SFRSYM    DATA     BYTE      P4
      000000ABH   SFRSYM    DATA     BYTE      WKTCH
      000000B0H   SFRSYM    DATA     BYTE      P3
      000000A0H   SFRSYM    DATA     BYTE      P2
      00000090H   SFRSYM    DATA     BYTE      P1
      00000080H   SFRSYM    DATA     BYTE      P0
      00FF6AA7H   SYMBOL    HCONST   ---       ?tpl?0001
      00FF6AAFH   SYMBOL    HCONST   ---       ?tpl?0002
      00FF6AB5H   SYMBOL    HCONST   ---       ?tpl?0003
      00FF6ABFH   SYMBOL    HCONST   ---       ?tpl?0004
      000106B8H   SYMBOL    XDATA    ---       dl1a_iic_struct
      000106C4H   SYMBOL    XDATA    BYTE      dl1a_init_flag
      REG=3       REGSYM    ---      ---       type_is_aperture
      WR30        REGSYM    ---      WORD      timeout_period_mclks
      R5          REGSYM    ---      BYTE      vcsel_period_pclks
      DR24        REGSYM    ---      DWORD     macro_period_ns
      DR28        REGSYM    ---      DWORD     timeout_period_us
      R3          REGSYM    ---      BYTE      vcsel_period_pclks
      DR8         REGSYM    ---      DWORD     macro_period_ns
      WR4         REGSYM    ---      WORD      reg_val
      WR2         REGSYM    ---      WORD      timeout_mclks
      DR8         REGSYM    ---      DWORD     ls_byte
      WR4         REGSYM    ---      WORD      ms_byte
      WR6         REGSYM    ---      WORD      return_data
      REG=3       REGSYM    ---      ---       enables
      WR6         REGSYM    ---      INT       type
      REG=3       REGSYM    ---      ---       timeouts
      R10         REGSYM    ---      BYTE      vhv_init_byte
      R15         REGSYM    ---      BYTE      return_state
      DR12        REGSYM    ---      DWORD     budget_us
      WR6         REGSYM    ---      WORD      dat
      DR4         REGSYM    ---      DWORD     final_range_timeout_us
      DR12        REGSYM    ---      DWORD     budget_us
      DR28        REGSYM    ---      FLOAT     limit_mcps
      WR6         REGSYM    ---      WORD      limit_mcps_16bit
      R15         REGSYM    ---      BYTE      return_state
      R14         REGSYM    ---      BYTE      reg_data_buffer
L251 LINKER/LOCATER V4.66.93.0                                                        01/16/2025  23:25:20  PAGE 68


      WR12        REGSYM    ---      WORD      i

      ---         MODULE    ---      ---       zf_device_ble6a20
      000000D0H   SFRSYM    DATA     BYTE      PSW
      0000009DH   SFRSYM    DATA     BYTE      IRCBAND
      00000097H   SFRSYM    DATA     BYTE      AUXR2
      000000EFH   SFRSYM    DATA     BYTE      AUXINTIF
      000000FDH   SFRSYM    DATA     BYTE      S4CON
      000000ACH   SFRSYM    DATA     BYTE      S3CON
      0000009AH   SFRSYM    DATA     BYTE      S2CON
      000000B7H   SFRSYM    DATA     BYTE      IPH
      000000CDH   SFRSYM    DATA     BYTE      SPSTAT
      000000DDH   SFRSYM    DATA     BYTE      T4T3M
      000000C1H   SFRSYM    DATA     BYTE      WDT_CONTR
      000000DFH   SFRSYM    DATA     BYTE      IP3
      000000F4H   SFRSYM    DATA     BYTE      USBCON
      000000B5H   SFRSYM    DATA     BYTE      IP2
      000000FFH   SFRSYM    DATA     BYTE      RSTCFG
      000000C7H   SFRSYM    DATA     BYTE      IAP_CONTR
      0000008EH   SFRSYM    DATA     BYTE      AUXR
      000000AFH   SFRSYM    DATA     BYTE      IE2
      00000088H   SFRSYM    DATA     BYTE      TCON
      00000089H   SFRSYM    DATA     BYTE      TMOD
      00000098H   SFRSYM    DATA     BYTE      SCON
      00000087H   SFRSYM    DATA     BYTE      PCON
      000000BCH   SFRSYM    DATA     BYTE      ADC_CONTR
      000000D1H   SFRSYM    DATA     BYTE      PSW1
      000000E7H   SFRSYM    DATA     BYTE      CMPCR2
      000000E6H   SFRSYM    DATA     BYTE      CMPCR1
      000000DEH   SFRSYM    DATA     BYTE      ADCCFG
      000000B8H   SFRSYM    DATA     BYTE      IP
      0000008FH   SFRSYM    DATA     BYTE      INTCLKO
      000000EEH   SFRSYM    DATA     BYTE      IP3H
      000000B6H   SFRSYM    DATA     BYTE      IP2H
      000000BFH   SFRSYM    DATA     BYTE      P_SW4
      000000A8H   SFRSYM    DATA     BYTE      IE
      000000BBH   SFRSYM    DATA     BYTE      P_SW3
      000000BAH   SFRSYM    DATA     BYTE      P_SW2
      000000A2H   SFRSYM    DATA     BYTE      P_SW1
      000000CEH   SFRSYM    DATA     BYTE      SPCTL
      000000F8H   SFRSYM    DATA     BYTE      P7
      000000E8H   SFRSYM    DATA     BYTE      P6
      000000C8H   SFRSYM    DATA     BYTE      P5
      000000C0H   SFRSYM    DATA     BYTE      P4
      000000ABH   SFRSYM    DATA     BYTE      WKTCH
      000000B0H   SFRSYM    DATA     BYTE      P3
      000000A0H   SFRSYM    DATA     BYTE      P2
      00000090H   SFRSYM    DATA     BYTE      P1
      00000080H   SFRSYM    DATA     BYTE      P0
      00010568H   SYMBOL    XDATA    ---       ble6a20_buffer
      000105A8H   SYMBOL    XDATA    ---       ble6a20_fifo
      00FF6E99H   SYMBOL    HCONST   ---       ?tpl?0001
      R15         REGSYM    ---      BYTE      dat
      WR12        REGSYM    ---      WORD      time_count
      DR12        REGSYM    ---      DWORD     len
      REG=3       REGSYM    ---      ---       str
      REG=7       REGSYM    ---      ---       buff
      DR8         REGSYM    ---      DWORD     len

      ---         MODULE    ---      ---       zf_device_wireless_uart
      000000D0H   SFRSYM    DATA     BYTE      PSW
      0000009DH   SFRSYM    DATA     BYTE      IRCBAND
      00000097H   SFRSYM    DATA     BYTE      AUXR2
      000000EFH   SFRSYM    DATA     BYTE      AUXINTIF
      000000FDH   SFRSYM    DATA     BYTE      S4CON
L251 LINKER/LOCATER V4.66.93.0                                                        01/16/2025  23:25:20  PAGE 69


      000000ACH   SFRSYM    DATA     BYTE      S3CON
      0000009AH   SFRSYM    DATA     BYTE      S2CON
      000000B7H   SFRSYM    DATA     BYTE      IPH
      000000CDH   SFRSYM    DATA     BYTE      SPSTAT
      000000DDH   SFRSYM    DATA     BYTE      T4T3M
      000000C1H   SFRSYM    DATA     BYTE      WDT_CONTR
      000000DFH   SFRSYM    DATA     BYTE      IP3
      000000F4H   SFRSYM    DATA     BYTE      USBCON
      000000B5H   SFRSYM    DATA     BYTE      IP2
      000000FFH   SFRSYM    DATA     BYTE      RSTCFG
      000000C7H   SFRSYM    DATA     BYTE      IAP_CONTR
      0000008EH   SFRSYM    DATA     BYTE      AUXR
      000000AFH   SFRSYM    DATA     BYTE      IE2
      00000088H   SFRSYM    DATA     BYTE      TCON
      00000089H   SFRSYM    DATA     BYTE      TMOD
      00000098H   SFRSYM    DATA     BYTE      SCON
      00000087H   SFRSYM    DATA     BYTE      PCON
      000000BCH   SFRSYM    DATA     BYTE      ADC_CONTR
      000000D1H   SFRSYM    DATA     BYTE      PSW1
      000000E7H   SFRSYM    DATA     BYTE      CMPCR2
      000000E6H   SFRSYM    DATA     BYTE      CMPCR1
      000000DEH   SFRSYM    DATA     BYTE      ADCCFG
      000000B8H   SFRSYM    DATA     BYTE      IP
      0000008FH   SFRSYM    DATA     BYTE      INTCLKO
      000000EEH   SFRSYM    DATA     BYTE      IP3H
      000000B6H   SFRSYM    DATA     BYTE      IP2H
      000000BFH   SFRSYM    DATA     BYTE      P_SW4
      000000A8H   SFRSYM    DATA     BYTE      IE
      000000BBH   SFRSYM    DATA     BYTE      P_SW3
      000000BAH   SFRSYM    DATA     BYTE      P_SW2
      000000A2H   SFRSYM    DATA     BYTE      P_SW1
      000000CEH   SFRSYM    DATA     BYTE      SPCTL
      000000F8H   SFRSYM    DATA     BYTE      P7
      000000E8H   SFRSYM    DATA     BYTE      P6
      000000C8H   SFRSYM    DATA     BYTE      P5
      000000C0H   SFRSYM    DATA     BYTE      P4
      000000ABH   SFRSYM    DATA     BYTE      WKTCH
      000000B0H   SFRSYM    DATA     BYTE      P3
      000000A0H   SFRSYM    DATA     BYTE      P2
      00000090H   SFRSYM    DATA     BYTE      P1
      00000080H   SFRSYM    DATA     BYTE      P0
      00FF6FD1H   SYMBOL    HCONST   ---       ?tpl?0001
      000105BFH   SYMBOL    XDATA    ---       wireless_uart_fifo
      000105D6H   SYMBOL    XDATA    ---       wireless_uart_buffer
      R15         REGSYM    ---      BYTE      dat
      WR12        REGSYM    ---      WORD      time_count
      DR12        REGSYM    ---      DWORD     len
      REG=3       REGSYM    ---      ---       str
      REG=7       REGSYM    ---      ---       buff
      DR8         REGSYM    ---      DWORD     len

      ---         MODULE    ---      ---       zf_device_mpu6050
      0001067BH   PUBLIC    XDATA    INT       mpu6050_acc_x
      0001067DH   PUBLIC    XDATA    INT       mpu6050_acc_y
      0001067FH   PUBLIC    XDATA    INT       mpu6050_acc_z
      00010681H   PUBLIC    XDATA    INT       mpu6050_gyro_x
      00010683H   PUBLIC    XDATA    INT       mpu6050_gyro_y
      00010685H   PUBLIC    XDATA    INT       mpu6050_gyro_z
      000000D0H   SFRSYM    DATA     BYTE      PSW
      0000009DH   SFRSYM    DATA     BYTE      IRCBAND
      00000097H   SFRSYM    DATA     BYTE      AUXR2
      000000EFH   SFRSYM    DATA     BYTE      AUXINTIF
      000000FDH   SFRSYM    DATA     BYTE      S4CON
      000000ACH   SFRSYM    DATA     BYTE      S3CON
      0000009AH   SFRSYM    DATA     BYTE      S2CON
L251 LINKER/LOCATER V4.66.93.0                                                        01/16/2025  23:25:20  PAGE 70


      000000B7H   SFRSYM    DATA     BYTE      IPH
      000000CDH   SFRSYM    DATA     BYTE      SPSTAT
      000000DDH   SFRSYM    DATA     BYTE      T4T3M
      000000C1H   SFRSYM    DATA     BYTE      WDT_CONTR
      000000DFH   SFRSYM    DATA     BYTE      IP3
      000000F4H   SFRSYM    DATA     BYTE      USBCON
      000000B5H   SFRSYM    DATA     BYTE      IP2
      000000FFH   SFRSYM    DATA     BYTE      RSTCFG
      000000C7H   SFRSYM    DATA     BYTE      IAP_CONTR
      0000008EH   SFRSYM    DATA     BYTE      AUXR
      000000AFH   SFRSYM    DATA     BYTE      IE2
      00000088H   SFRSYM    DATA     BYTE      TCON
      00000089H   SFRSYM    DATA     BYTE      TMOD
      00000098H   SFRSYM    DATA     BYTE      SCON
      00000087H   SFRSYM    DATA     BYTE      PCON
      000000BCH   SFRSYM    DATA     BYTE      ADC_CONTR
      000000D1H   SFRSYM    DATA     BYTE      PSW1
      000000E7H   SFRSYM    DATA     BYTE      CMPCR2
      000000E6H   SFRSYM    DATA     BYTE      CMPCR1
      000000DEH   SFRSYM    DATA     BYTE      ADCCFG
      000000B8H   SFRSYM    DATA     BYTE      IP
      0000008FH   SFRSYM    DATA     BYTE      INTCLKO
      000000EEH   SFRSYM    DATA     BYTE      IP3H
      000000B6H   SFRSYM    DATA     BYTE      IP2H
      000000BFH   SFRSYM    DATA     BYTE      P_SW4
      000000A8H   SFRSYM    DATA     BYTE      IE
      000000BBH   SFRSYM    DATA     BYTE      P_SW3
      000000BAH   SFRSYM    DATA     BYTE      P_SW2
      000000A2H   SFRSYM    DATA     BYTE      P_SW1
      000000CEH   SFRSYM    DATA     BYTE      SPCTL
      000000F8H   SFRSYM    DATA     BYTE      P7
      000000E8H   SFRSYM    DATA     BYTE      P6
      000000C8H   SFRSYM    DATA     BYTE      P5
      000000C0H   SFRSYM    DATA     BYTE      P4
      000000ABH   SFRSYM    DATA     BYTE      WKTCH
      000000B0H   SFRSYM    DATA     BYTE      P3
      000000A0H   SFRSYM    DATA     BYTE      P2
      00000090H   SFRSYM    DATA     BYTE      P1
      00000080H   SFRSYM    DATA     BYTE      P0
      00010687H   SYMBOL    XDATA    ---       mpu6050_iic_struct
      R14         REGSYM    ---      BYTE      dat
      R15         REGSYM    ---      BYTE      return_state
      WR12        REGSYM    ---      WORD      timeout_count
      WR8         REGSYM    ---      INT       acc_value
      DR4         REGSYM    ---      FLOAT     acc_data
      WR8         REGSYM    ---      INT       gyro_value
      DR4         REGSYM    ---      FLOAT     gyro_data
      R15         REGSYM    ---      BYTE      return_state

      ---         MODULE    ---      ---       zf_device_icm20602
      00FF5425H   PUBLIC    CODE     ---       icm20602_init
      00FF5E66H   PUBLIC    CODE     ---       icm20602_get_acc
      00FF5EB6H   PUBLIC    CODE     ---       icm20602_get_gyro
      00010690H   PUBLIC    XDATA    INT       icm20602_acc_x
      00010692H   PUBLIC    XDATA    INT       icm20602_acc_y
      00010694H   PUBLIC    XDATA    INT       icm20602_acc_z
      00010696H   PUBLIC    XDATA    INT       icm20602_gyro_x
      00010698H   PUBLIC    XDATA    INT       icm20602_gyro_y
      0001069AH   PUBLIC    XDATA    INT       icm20602_gyro_z
      0001069CH   PUBLIC    XDATA    ---       icm20602_transition_factor
      000000D0H   SFRSYM    DATA     BYTE      PSW
      0000009DH   SFRSYM    DATA     BYTE      IRCBAND
      00000097H   SFRSYM    DATA     BYTE      AUXR2
      000000EFH   SFRSYM    DATA     BYTE      AUXINTIF
      000000FDH   SFRSYM    DATA     BYTE      S4CON
L251 LINKER/LOCATER V4.66.93.0                                                        01/16/2025  23:25:20  PAGE 71


      000000ACH   SFRSYM    DATA     BYTE      S3CON
      0000009AH   SFRSYM    DATA     BYTE      S2CON
      000000B7H   SFRSYM    DATA     BYTE      IPH
      000000CDH   SFRSYM    DATA     BYTE      SPSTAT
      000000DDH   SFRSYM    DATA     BYTE      T4T3M
      000000C1H   SFRSYM    DATA     BYTE      WDT_CONTR
      000000DFH   SFRSYM    DATA     BYTE      IP3
      000000F4H   SFRSYM    DATA     BYTE      USBCON
      000000B5H   SFRSYM    DATA     BYTE      IP2
      000000FFH   SFRSYM    DATA     BYTE      RSTCFG
      000000C7H   SFRSYM    DATA     BYTE      IAP_CONTR
      0000008EH   SFRSYM    DATA     BYTE      AUXR
      000000AFH   SFRSYM    DATA     BYTE      IE2
      00000088H   SFRSYM    DATA     BYTE      TCON
      00000089H   SFRSYM    DATA     BYTE      TMOD
      00000098H   SFRSYM    DATA     BYTE      SCON
      00000087H   SFRSYM    DATA     BYTE      PCON
      000000BCH   SFRSYM    DATA     BYTE      ADC_CONTR
      000000D1H   SFRSYM    DATA     BYTE      PSW1
      000000E7H   SFRSYM    DATA     BYTE      CMPCR2
      000000E6H   SFRSYM    DATA     BYTE      CMPCR1
      000000DEH   SFRSYM    DATA     BYTE      ADCCFG
      000000B8H   SFRSYM    DATA     BYTE      IP
      0000008FH   SFRSYM    DATA     BYTE      INTCLKO
      000000EEH   SFRSYM    DATA     BYTE      IP3H
      000000B6H   SFRSYM    DATA     BYTE      IP2H
      000000BFH   SFRSYM    DATA     BYTE      P_SW4
      000000A8H   SFRSYM    DATA     BYTE      IE
      000000BBH   SFRSYM    DATA     BYTE      P_SW3
      000000BAH   SFRSYM    DATA     BYTE      P_SW2
      000000A2H   SFRSYM    DATA     BYTE      P_SW1
      000000CEH   SFRSYM    DATA     BYTE      SPCTL
      000000F8H   SFRSYM    DATA     BYTE      P7
      000000E8H   SFRSYM    DATA     BYTE      P6
      000000C8H   SFRSYM    DATA     BYTE      P5
      000000C0H   SFRSYM    DATA     BYTE      P4
      000000ABH   SFRSYM    DATA     BYTE      WKTCH
      000000B0H   SFRSYM    DATA     BYTE      P3
      000000A0H   SFRSYM    DATA     BYTE      P2
      00000090H   SFRSYM    DATA     BYTE      P1
      00000080H   SFRSYM    DATA     BYTE      P0
      00FF6402H   SYMBOL    CODE     ---       icm20602_read_register
      00FF0066H   SYMBOL    CODE     ---       icm20602_write_register
      00FF63D5H   SYMBOL    CODE     ---       icm20602_self_check
      00FF6031H   SYMBOL    CODE     ---       icm20602_read_registers

      00FF0066H   BLOCK     CODE     ---       LVL=0
      R14         REGSYM    ---      BYTE      reg
      R15         REGSYM    ---      BYTE      dat
      00FF0066H   LINE      CODE     ---       #111
      00FF006CH   LINE      CODE     ---       #113
      00FF0074H   LINE      CODE     ---       #114
      00FF007FH   LINE      CODE     ---       #115
      00FF0088H   LINE      CODE     ---       #116
      ---         BLOCKEND  ---      ---       LVL=0

      00FF6402H   BLOCK     CODE     ---       LVL=0
      R15         REGSYM    ---      BYTE      reg
      00FF6406H   BLOCK     CODE     NEAR LAB  LVL=1
      R15         REGSYM    ---      BYTE      dat
      ---         BLOCKEND  ---      ---       LVL=1
      00FF6402H   LINE      CODE     ---       #125
      00FF6406H   LINE      CODE     ---       #126
      00FF6406H   LINE      CODE     ---       #127
      00FF6406H   LINE      CODE     ---       #128
L251 LINKER/LOCATER V4.66.93.0                                                        01/16/2025  23:25:20  PAGE 72


      00FF640EH   LINE      CODE     ---       #129
      00FF641BH   LINE      CODE     ---       #130
      00FF6424H   LINE      CODE     ---       #131
      00FF6426H   LINE      CODE     ---       #132
      ---         BLOCKEND  ---      ---       LVL=0

      00FF6031H   BLOCK     CODE     ---       LVL=0
      0001061CH   SYMBOL    XDATA    BYTE      reg
      0001061DH   SYMBOL    XDATA    ---       dat
      DR12        REGSYM    ---      DWORD     len
      00FF6031H   LINE      CODE     ---       #143
      00FF6043H   LINE      CODE     ---       #145
      00FF604BH   LINE      CODE     ---       #146
      00FF606CH   LINE      CODE     ---       #147
      00FF6075H   LINE      CODE     ---       #148
      ---         BLOCKEND  ---      ---       LVL=0

      00FF63D5H   BLOCK     CODE     ---       LVL=0
      00FF63D7H   BLOCK     CODE     NEAR LAB  LVL=1
      R14         REGSYM    ---      BYTE      dat
      R15         REGSYM    ---      BYTE      return_state
      WR12        REGSYM    ---      WORD      timeout_count
      ---         BLOCKEND  ---      ---       LVL=1
      00FF63D5H   LINE      CODE     ---       #158
      00FF63D7H   LINE      CODE     ---       #159
      00FF63D7H   LINE      CODE     ---       #160
      00FF63D9H   LINE      CODE     ---       #161
      00FF63DBH   LINE      CODE     ---       #163
      00FF63DBH   LINE      CODE     ---       #165
      00FF63E5H   LINE      CODE     ---       #167
      00FF63E8H   LINE      CODE     ---       #168
      00FF63EAH   LINE      CODE     ---       #169
      00FF63EAH   LINE      CODE     ---       #171
      00FF63F1H   LINE      CODE     ---       #172
      00FF63F8H   LINE      CODE     ---       #173
      00FF63FDH   LINE      CODE     ---       #175
      00FF63FFH   LINE      CODE     ---       #176
      ---         BLOCKEND  ---      ---       LVL=0

      00FF5E66H   BLOCK     CODE     ---       LVL=0
      00010616H   SYMBOL    XDATA    ---       dat
      00FF5E66H   LINE      CODE     ---       #185
      00FF5E66H   LINE      CODE     ---       #186
      00FF5E66H   LINE      CODE     ---       #189
      00FF5E77H   LINE      CODE     ---       #190
      00FF5E8DH   LINE      CODE     ---       #191
      00FF5EA1H   LINE      CODE     ---       #192
      00FF5EB5H   LINE      CODE     ---       #193
      ---         BLOCKEND  ---      ---       LVL=0

      00FF5EB6H   BLOCK     CODE     ---       LVL=0
      00010616H   SYMBOL    XDATA    ---       dat
      00FF5EB6H   LINE      CODE     ---       #202
      00FF5EB6H   LINE      CODE     ---       #203
      00FF5EB6H   LINE      CODE     ---       #206
      00FF5EC7H   LINE      CODE     ---       #207
      00FF5EDDH   LINE      CODE     ---       #208
      00FF5EF1H   LINE      CODE     ---       #209
      00FF5F05H   LINE      CODE     ---       #210
      ---         BLOCKEND  ---      ---       LVL=0

      00FF5425H   BLOCK     CODE     ---       LVL=0
      00FF5427H   BLOCK     CODE     NEAR LAB  LVL=1
      R14         REGSYM    ---      BYTE      val
      R15         REGSYM    ---      BYTE      return_state
L251 LINKER/LOCATER V4.66.93.0                                                        01/16/2025  23:25:20  PAGE 73


      WR12        REGSYM    ---      WORD      timeout_count
      ---         BLOCKEND  ---      ---       LVL=1
      00FF5425H   LINE      CODE     ---       #219
      00FF5427H   LINE      CODE     ---       #220
      00FF5427H   LINE      CODE     ---       #221
      00FF5429H   LINE      CODE     ---       #222
      00FF542BH   LINE      CODE     ---       #224
      00FF5432H   LINE      CODE     ---       #229
      00FF546BH   LINE      CODE     ---       #230
      00FF547CH   LINE      CODE     ---       #233
      00FF547CH   LINE      CODE     ---       #235
      00FF5481H   LINE      CODE     ---       #240
      00FF548CH   LINE      CODE     ---       #241
      00FF548FH   LINE      CODE     ---       #242
      00FF5492H   LINE      CODE     ---       #243
      00FF5492H   LINE      CODE     ---       #245
      00FF549AH   LINE      CODE     ---       #246
      00FF54A1H   LINE      CODE     ---       #248
      00FF54A1H   LINE      CODE     ---       #251
      00FF54A8H   LINE      CODE     ---       #253
      00FF54B2H   LINE      CODE     ---       #258
      00FF54BDH   LINE      CODE     ---       #259
      00FF54C0H   LINE      CODE     ---       #260
      00FF54C2H   LINE      CODE     ---       #261
      00FF54C7H   LINE      CODE     ---       #265
      00FF54CCH   LINE      CODE     ---       #267
      00FF54CCH   LINE      CODE     ---       #268
      00FF54CCH   LINE      CODE     ---       #270
      00FF54D4H   LINE      CODE     ---       #271
      00FF54DBH   LINE      CODE     ---       #272
      00FF54E3H   LINE      CODE     ---       #273
      00FF54EBH   LINE      CODE     ---       #280
      00FF54EBH   LINE      CODE     ---       #282
      00FF54EBH   LINE      CODE     ---       #284
      00FF54EBH   LINE      CODE     ---       #289
      00FF54EBH   LINE      CODE     ---       #291
      00FF54EBH   LINE      CODE     ---       #296
      00FF54EBH   LINE      CODE     ---       #298
      00FF54EBH   LINE      CODE     ---       #303
      00FF54EBH   LINE      CODE     ---       #305
      00FF54F3H   LINE      CODE     ---       #306
      00FF5503H   LINE      CODE     ---       #308
      00FF5503H   LINE      CODE     ---       #310
      00FF5503H   LINE      CODE     ---       #312
      00FF5503H   LINE      CODE     ---       #315
      00FF5503H   LINE      CODE     ---       #316
      00FF5503H   LINE      CODE     ---       #318
      00FF5508H   LINE      CODE     ---       #320
      00FF5508H   LINE      CODE     ---       #321
      00FF5508H   LINE      CODE     ---       #328
      00FF5508H   LINE      CODE     ---       #330
      00FF5508H   LINE      CODE     ---       #332
      00FF5508H   LINE      CODE     ---       #337
      00FF5508H   LINE      CODE     ---       #339
      00FF5508H   LINE      CODE     ---       #344
      00FF5508H   LINE      CODE     ---       #346
      00FF5508H   LINE      CODE     ---       #351
      00FF5508H   LINE      CODE     ---       #353
      00FF5508H   LINE      CODE     ---       #358
      00FF5508H   LINE      CODE     ---       #360
      00FF5510H   LINE      CODE     ---       #361
      00FF5522H   LINE      CODE     ---       #363
      00FF5522H   LINE      CODE     ---       #364
      00FF5522H   LINE      CODE     ---       #366
      00FF5527H   LINE      CODE     ---       #368
L251 LINKER/LOCATER V4.66.93.0                                                        01/16/2025  23:25:20  PAGE 74


      00FF5527H   LINE      CODE     ---       #369
      00FF5527H   LINE      CODE     ---       #371
      00FF552FH   LINE      CODE     ---       #372
      00FF552FH   LINE      CODE     ---       #375
      00FF5531H   LINE      CODE     ---       #376
      ---         BLOCKEND  ---      ---       LVL=0

      ---         MODULE    ---      ---       zf_device_imu660ra
      000106A4H   PUBLIC    XDATA    INT       imu660ra_acc_x
      000106A6H   PUBLIC    XDATA    INT       imu660ra_acc_y
      000106A8H   PUBLIC    XDATA    INT       imu660ra_acc_z
      000106AAH   PUBLIC    XDATA    INT       imu660ra_gyro_x
      000106ACH   PUBLIC    XDATA    INT       imu660ra_gyro_y
      000106AEH   PUBLIC    XDATA    INT       imu660ra_gyro_z
      000106B0H   PUBLIC    XDATA    ---       imu660ra_transition_factor
      000000D0H   SFRSYM    DATA     BYTE      PSW
      0000009DH   SFRSYM    DATA     BYTE      IRCBAND
      00000097H   SFRSYM    DATA     BYTE      AUXR2
      000000EFH   SFRSYM    DATA     BYTE      AUXINTIF
      000000FDH   SFRSYM    DATA     BYTE      S4CON
      000000ACH   SFRSYM    DATA     BYTE      S3CON
      0000009AH   SFRSYM    DATA     BYTE      S2CON
      000000B7H   SFRSYM    DATA     BYTE      IPH
      000000CDH   SFRSYM    DATA     BYTE      SPSTAT
      000000DDH   SFRSYM    DATA     BYTE      T4T3M
      000000C1H   SFRSYM    DATA     BYTE      WDT_CONTR
      000000DFH   SFRSYM    DATA     BYTE      IP3
      000000F4H   SFRSYM    DATA     BYTE      USBCON
      000000B5H   SFRSYM    DATA     BYTE      IP2
      000000FFH   SFRSYM    DATA     BYTE      RSTCFG
      000000C7H   SFRSYM    DATA     BYTE      IAP_CONTR
      0000008EH   SFRSYM    DATA     BYTE      AUXR
      000000AFH   SFRSYM    DATA     BYTE      IE2
      00000088H   SFRSYM    DATA     BYTE      TCON
      00000089H   SFRSYM    DATA     BYTE      TMOD
      00000098H   SFRSYM    DATA     BYTE      SCON
      00000087H   SFRSYM    DATA     BYTE      PCON
      000000BCH   SFRSYM    DATA     BYTE      ADC_CONTR
      000000D1H   SFRSYM    DATA     BYTE      PSW1
      000000E7H   SFRSYM    DATA     BYTE      CMPCR2
      000000E6H   SFRSYM    DATA     BYTE      CMPCR1
      000000DEH   SFRSYM    DATA     BYTE      ADCCFG
      000000B8H   SFRSYM    DATA     BYTE      IP
      0000008FH   SFRSYM    DATA     BYTE      INTCLKO
      000000EEH   SFRSYM    DATA     BYTE      IP3H
      000000B6H   SFRSYM    DATA     BYTE      IP2H
      000000BFH   SFRSYM    DATA     BYTE      P_SW4
      000000A8H   SFRSYM    DATA     BYTE      IE
      000000BBH   SFRSYM    DATA     BYTE      P_SW3
      000000BAH   SFRSYM    DATA     BYTE      P_SW2
      000000A2H   SFRSYM    DATA     BYTE      P_SW1
      000000CEH   SFRSYM    DATA     BYTE      SPCTL
      000000F8H   SFRSYM    DATA     BYTE      P7
      000000E8H   SFRSYM    DATA     BYTE      P6
      000000C8H   SFRSYM    DATA     BYTE      P5
      000000C0H   SFRSYM    DATA     BYTE      P4
      000000ABH   SFRSYM    DATA     BYTE      WKTCH
      000000B0H   SFRSYM    DATA     BYTE      P3
      000000A0H   SFRSYM    DATA     BYTE      P2
      00000090H   SFRSYM    DATA     BYTE      P1
      00000080H   SFRSYM    DATA     BYTE      P0
      R14         REGSYM    ---      BYTE      reg
      R15         REGSYM    ---      BYTE      dat
      DR12        REGSYM    ---      DWORD     len
      R15         REGSYM    ---      BYTE      reg
L251 LINKER/LOCATER V4.66.93.0                                                        01/16/2025  23:25:20  PAGE 75


      REG=3       REGSYM    ---      ---       dat
      R14         REGSYM    ---      BYTE      dat
      R15         REGSYM    ---      BYTE      return_state
      WR12        REGSYM    ---      WORD      timeout_count
      R15         REGSYM    ---      BYTE      return_state

      ---         MODULE    ---      ---       zf_device_imu963ra
      0001065DH   PUBLIC    XDATA    INT       imu963ra_acc_x
      0001065FH   PUBLIC    XDATA    INT       imu963ra_acc_y
      00010661H   PUBLIC    XDATA    INT       imu963ra_acc_z
      00010663H   PUBLIC    XDATA    INT       imu963ra_mag_x
      00010665H   PUBLIC    XDATA    INT       imu963ra_mag_y
      00010667H   PUBLIC    XDATA    INT       imu963ra_mag_z
      00010669H   PUBLIC    XDATA    INT       imu963ra_gyro_x
      0001066BH   PUBLIC    XDATA    INT       imu963ra_gyro_y
      0001066DH   PUBLIC    XDATA    INT       imu963ra_gyro_z
      0001066FH   PUBLIC    XDATA    ---       imu963ra_transition_factor
      000000D0H   SFRSYM    DATA     BYTE      PSW
      0000009DH   SFRSYM    DATA     BYTE      IRCBAND
      00000097H   SFRSYM    DATA     BYTE      AUXR2
      000000EFH   SFRSYM    DATA     BYTE      AUXINTIF
      000000FDH   SFRSYM    DATA     BYTE      S4CON
      000000ACH   SFRSYM    DATA     BYTE      S3CON
      0000009AH   SFRSYM    DATA     BYTE      S2CON
      000000B7H   SFRSYM    DATA     BYTE      IPH
      000000CDH   SFRSYM    DATA     BYTE      SPSTAT
      000000DDH   SFRSYM    DATA     BYTE      T4T3M
      000000C1H   SFRSYM    DATA     BYTE      WDT_CONTR
      000000DFH   SFRSYM    DATA     BYTE      IP3
      000000F4H   SFRSYM    DATA     BYTE      USBCON
      000000B5H   SFRSYM    DATA     BYTE      IP2
      000000FFH   SFRSYM    DATA     BYTE      RSTCFG
      000000C7H   SFRSYM    DATA     BYTE      IAP_CONTR
      0000008EH   SFRSYM    DATA     BYTE      AUXR
      000000AFH   SFRSYM    DATA     BYTE      IE2
      00000088H   SFRSYM    DATA     BYTE      TCON
      00000089H   SFRSYM    DATA     BYTE      TMOD
      00000098H   SFRSYM    DATA     BYTE      SCON
      00000087H   SFRSYM    DATA     BYTE      PCON
      000000BCH   SFRSYM    DATA     BYTE      ADC_CONTR
      000000D1H   SFRSYM    DATA     BYTE      PSW1
      000000E7H   SFRSYM    DATA     BYTE      CMPCR2
      000000E6H   SFRSYM    DATA     BYTE      CMPCR1
      000000DEH   SFRSYM    DATA     BYTE      ADCCFG
      000000B8H   SFRSYM    DATA     BYTE      IP
      0000008FH   SFRSYM    DATA     BYTE      INTCLKO
      000000EEH   SFRSYM    DATA     BYTE      IP3H
      000000B6H   SFRSYM    DATA     BYTE      IP2H
      000000BFH   SFRSYM    DATA     BYTE      P_SW4
      000000A8H   SFRSYM    DATA     BYTE      IE
      000000BBH   SFRSYM    DATA     BYTE      P_SW3
      000000BAH   SFRSYM    DATA     BYTE      P_SW2
      000000A2H   SFRSYM    DATA     BYTE      P_SW1
      000000CEH   SFRSYM    DATA     BYTE      SPCTL
      000000F8H   SFRSYM    DATA     BYTE      P7
      000000E8H   SFRSYM    DATA     BYTE      P6
      000000C8H   SFRSYM    DATA     BYTE      P5
      000000C0H   SFRSYM    DATA     BYTE      P4
      000000ABH   SFRSYM    DATA     BYTE      WKTCH
      000000B0H   SFRSYM    DATA     BYTE      P3
      000000A0H   SFRSYM    DATA     BYTE      P2
      00000090H   SFRSYM    DATA     BYTE      P1
      00000080H   SFRSYM    DATA     BYTE      P0
      R14         REGSYM    ---      BYTE      reg
      R15         REGSYM    ---      BYTE      dat
L251 LINKER/LOCATER V4.66.93.0                                                        01/16/2025  23:25:20  PAGE 76


      R15         REGSYM    ---      BYTE      reg
      R15         REGSYM    ---      BYTE      dat
      DR12        REGSYM    ---      DWORD     len
      R15         REGSYM    ---      BYTE      addr
      R13         REGSYM    ---      BYTE      reg
      R14         REGSYM    ---      BYTE      dat
      R12         REGSYM    ---      BYTE      return_state
      R10         REGSYM    ---      BYTE      addr
      R15         REGSYM    ---      BYTE      reg
      WR12        REGSYM    ---      WORD      timeout_count
      R10         REGSYM    ---      BYTE      addr
      R15         REGSYM    ---      BYTE      reg
      R15         REGSYM    ---      BYTE      return_state
      R14         REGSYM    ---      BYTE      dat
      WR12        REGSYM    ---      WORD      timeout_count
      R15         REGSYM    ---      BYTE      return_state
      R14         REGSYM    ---      BYTE      dat
      WR12        REGSYM    ---      WORD      timeout_count
      R11         REGSYM    ---      BYTE      temp_status
      R15         REGSYM    ---      BYTE      return_state

      ---         MODULE    ---      ---       zf_device_gps_tau1201
      00010219H   PUBLIC    XDATA    BYTE      gps_tau1201_flag
      0001029AH   PUBLIC    XDATA    ---       gps_tau1201
      000103CEH   PUBLIC    XDATA    INT       gps_gga_state
      000103D0H   PUBLIC    XDATA    INT       gps_rmc_state
      000000D0H   SFRSYM    DATA     BYTE      PSW
      0000009DH   SFRSYM    DATA     BYTE      IRCBAND
      00000097H   SFRSYM    DATA     BYTE      AUXR2
      000000EFH   SFRSYM    DATA     BYTE      AUXINTIF
      000000FDH   SFRSYM    DATA     BYTE      S4CON
      000000ACH   SFRSYM    DATA     BYTE      S3CON
      0000009AH   SFRSYM    DATA     BYTE      S2CON
      000000B7H   SFRSYM    DATA     BYTE      IPH
      000000CDH   SFRSYM    DATA     BYTE      SPSTAT
      000000DDH   SFRSYM    DATA     BYTE      T4T3M
      000000C1H   SFRSYM    DATA     BYTE      WDT_CONTR
      000000DFH   SFRSYM    DATA     BYTE      IP3
      000000F4H   SFRSYM    DATA     BYTE      USBCON
      000000B5H   SFRSYM    DATA     BYTE      IP2
      000000FFH   SFRSYM    DATA     BYTE      RSTCFG
      000000C7H   SFRSYM    DATA     BYTE      IAP_CONTR
      0000008EH   SFRSYM    DATA     BYTE      AUXR
      000000AFH   SFRSYM    DATA     BYTE      IE2
      00000088H   SFRSYM    DATA     BYTE      TCON
      00000089H   SFRSYM    DATA     BYTE      TMOD
      00000098H   SFRSYM    DATA     BYTE      SCON
      00000087H   SFRSYM    DATA     BYTE      PCON
      000000BCH   SFRSYM    DATA     BYTE      ADC_CONTR
      000000D1H   SFRSYM    DATA     BYTE      PSW1
      000000E7H   SFRSYM    DATA     BYTE      CMPCR2
      000000E6H   SFRSYM    DATA     BYTE      CMPCR1
      000000DEH   SFRSYM    DATA     BYTE      ADCCFG
      000000B8H   SFRSYM    DATA     BYTE      IP
      0000008FH   SFRSYM    DATA     BYTE      INTCLKO
      000000EEH   SFRSYM    DATA     BYTE      IP3H
      000000B6H   SFRSYM    DATA     BYTE      IP2H
      000000BFH   SFRSYM    DATA     BYTE      P_SW4
      000000A8H   SFRSYM    DATA     BYTE      IE
      000000BBH   SFRSYM    DATA     BYTE      P_SW3
      000000BAH   SFRSYM    DATA     BYTE      P_SW2
      000000A2H   SFRSYM    DATA     BYTE      P_SW1
      000000CEH   SFRSYM    DATA     BYTE      SPCTL
      000000F8H   SFRSYM    DATA     BYTE      P7
      000000E8H   SFRSYM    DATA     BYTE      P6
L251 LINKER/LOCATER V4.66.93.0                                                        01/16/2025  23:25:20  PAGE 77


      000000C8H   SFRSYM    DATA     BYTE      P5
      000000C0H   SFRSYM    DATA     BYTE      P4
      000000ABH   SFRSYM    DATA     BYTE      WKTCH
      000000B0H   SFRSYM    DATA     BYTE      P3
      000000A0H   SFRSYM    DATA     BYTE      P2
      00000090H   SFRSYM    DATA     BYTE      P1
      00000080H   SFRSYM    DATA     BYTE      P0
      00FF6D77H   SYMBOL    HCONST   ---       ?tpl?0001
      00FF6D7CH   SYMBOL    HCONST   ---       ?tpl?0002
      00FF6D98H   SYMBOL    HCONST   ---       ?tpl?0003
      00FF6DA3H   SYMBOL    HCONST   ---       ?tpl?0004
      00FF6DAEH   SYMBOL    HCONST   ---       ?tpl?0005
      00FF6DB9H   SYMBOL    HCONST   ---       ?tpl?0006
      00FF6DC4H   SYMBOL    HCONST   ---       ?tpl?0007
      00FF6DCFH   SYMBOL    HCONST   ---       ?tpl?0008
      00FF6DDAH   SYMBOL    HCONST   ---       ?tpl?0009
      00FF6DE5H   SYMBOL    HCONST   ---       ?tpl?000A
      00FF6DF0H   SYMBOL    HCONST   ---       ?tpl?000B
      00FF6DFBH   SYMBOL    HCONST   ---       ?tpl?000C
      00FF6E06H   SYMBOL    HCONST   ---       ?tpl?000D
      00010202H   SYMBOL    XDATA    ---       gps_tau1201_receiver_fifo
      0001021AH   SYMBOL    XDATA    ---       gps_gga_buffer
      000102CDH   SYMBOL    XDATA    BYTE      gps_tau1201_state
      000102CEH   SYMBOL    XDATA    ---       gps_rmc_buffer
      0001034EH   SYMBOL    XDATA    ---       gps_tau1201_receiver_buffer
      REG=3       REGSYM    ---      ---       str
      REG=7       REGSYM    ---      ---       temp
      R7          REGSYM    ---      BYTE      len
      R10         REGSYM    ---      BYTE      len1
      REG=3       REGSYM    ---      ---       s
      WR6         REGSYM    ---      INT       return_value
      REG=3       REGSYM    ---      ---       s
      DR4         REGSYM    ---      FLOAT     return_value
      REG=3       REGSYM    ---      ---       s
      DR0 /DR4    REGSYM    ---      DOUBLE    return_value
      REG=7       REGSYM    ---      ---       time
      R6          REGSYM    ---      BYTE      day_num
      REG=0       REGSYM    ---      ---       line
      REG=3       REGSYM    ---      ---       gps
      R10         REGSYM    ---      BYTE      state
      R7          REGSYM    ---      BYTE      temp
      DR0 /DR4    REGSYM    ---      DOUBLE    lati_second_tmp
      DR0 /DR4    REGSYM    ---      DOUBLE    long_second_tmp
      DR4         REGSYM    ---      FLOAT     speed_tmp
      REG=0       REGSYM    ---      ---       line
      R11         REGSYM    ---      BYTE      state
      DR12        REGSYM    ---      DWORD     data_len

      ---         MODULE    ---      ---       zf_device_tsl1401
      00010000H   PUBLIC    XDATA    BYTE      tsl1401_finish_flag
      00010001H   PUBLIC    XDATA    ---       tsl1401_data
      000000D0H   SFRSYM    DATA     BYTE      PSW
      0000009DH   SFRSYM    DATA     BYTE      IRCBAND
      00000097H   SFRSYM    DATA     BYTE      AUXR2
      000000EFH   SFRSYM    DATA     BYTE      AUXINTIF
      000000FDH   SFRSYM    DATA     BYTE      S4CON
      000000ACH   SFRSYM    DATA     BYTE      S3CON
      0000009AH   SFRSYM    DATA     BYTE      S2CON
      000000B7H   SFRSYM    DATA     BYTE      IPH
      000000CDH   SFRSYM    DATA     BYTE      SPSTAT
      000000DDH   SFRSYM    DATA     BYTE      T4T3M
      000000C1H   SFRSYM    DATA     BYTE      WDT_CONTR
      000000DFH   SFRSYM    DATA     BYTE      IP3
      000000F4H   SFRSYM    DATA     BYTE      USBCON
      000000B5H   SFRSYM    DATA     BYTE      IP2
L251 LINKER/LOCATER V4.66.93.0                                                        01/16/2025  23:25:20  PAGE 78


      000000FFH   SFRSYM    DATA     BYTE      RSTCFG
      000000C7H   SFRSYM    DATA     BYTE      IAP_CONTR
      0000008EH   SFRSYM    DATA     BYTE      AUXR
      000000AFH   SFRSYM    DATA     BYTE      IE2
      00000088H   SFRSYM    DATA     BYTE      TCON
      00000089H   SFRSYM    DATA     BYTE      TMOD
      00000098H   SFRSYM    DATA     BYTE      SCON
      00000087H   SFRSYM    DATA     BYTE      PCON
      000000BCH   SFRSYM    DATA     BYTE      ADC_CONTR
      000000D1H   SFRSYM    DATA     BYTE      PSW1
      000000E7H   SFRSYM    DATA     BYTE      CMPCR2
      000000E6H   SFRSYM    DATA     BYTE      CMPCR1
      000000DEH   SFRSYM    DATA     BYTE      ADCCFG
      000000B8H   SFRSYM    DATA     BYTE      IP
      0000008FH   SFRSYM    DATA     BYTE      INTCLKO
      000000EEH   SFRSYM    DATA     BYTE      IP3H
      000000B6H   SFRSYM    DATA     BYTE      IP2H
      000000BFH   SFRSYM    DATA     BYTE      P_SW4
      000000A8H   SFRSYM    DATA     BYTE      IE
      000000BBH   SFRSYM    DATA     BYTE      P_SW3
      000000BAH   SFRSYM    DATA     BYTE      P_SW2
      000000A2H   SFRSYM    DATA     BYTE      P_SW1
      000000CEH   SFRSYM    DATA     BYTE      SPCTL
      000000F8H   SFRSYM    DATA     BYTE      P7
      000000E8H   SFRSYM    DATA     BYTE      P6
      000000C8H   SFRSYM    DATA     BYTE      P5
      000000C0H   SFRSYM    DATA     BYTE      P4
      000000ABH   SFRSYM    DATA     BYTE      WKTCH
      000000B0H   SFRSYM    DATA     BYTE      P3
      000000A0H   SFRSYM    DATA     BYTE      P2
      00000090H   SFRSYM    DATA     BYTE      P1
      00000080H   SFRSYM    DATA     BYTE      P0
      00010201H   SYMBOL    XDATA    BYTE      tsl1401_init_state
      R15         REGSYM    ---      BYTE      i
      WR14        REGSYM    ---      INT       uart_n
      R13         REGSYM    ---      BYTE      index
      R12         REGSYM    ---      BYTE      i

      ---         MODULE    ---      ---       seekfree_assistant
      000103DAH   PUBLIC    XDATA    ---       seekfree_assistant_oscilloscope_data
      00010415H   PUBLIC    XDATA    ---       seekfree_assistant_parameter_update_flag
      0001041DH   PUBLIC    XDATA    ---       seekfree_assistant_parameter
      000000D0H   SFRSYM    DATA     BYTE      PSW
      0000009DH   SFRSYM    DATA     BYTE      IRCBAND
      00000097H   SFRSYM    DATA     BYTE      AUXR2
      000000EFH   SFRSYM    DATA     BYTE      AUXINTIF
      000000FDH   SFRSYM    DATA     BYTE      S4CON
      000000ACH   SFRSYM    DATA     BYTE      S3CON
      0000009AH   SFRSYM    DATA     BYTE      S2CON
      000000B7H   SFRSYM    DATA     BYTE      IPH
      000000CDH   SFRSYM    DATA     BYTE      SPSTAT
      000000DDH   SFRSYM    DATA     BYTE      T4T3M
      000000C1H   SFRSYM    DATA     BYTE      WDT_CONTR
      000000DFH   SFRSYM    DATA     BYTE      IP3
      000000F4H   SFRSYM    DATA     BYTE      USBCON
      000000B5H   SFRSYM    DATA     BYTE      IP2
      000000FFH   SFRSYM    DATA     BYTE      RSTCFG
      000000C7H   SFRSYM    DATA     BYTE      IAP_CONTR
      0000008EH   SFRSYM    DATA     BYTE      AUXR
      000000AFH   SFRSYM    DATA     BYTE      IE2
      00000088H   SFRSYM    DATA     BYTE      TCON
      00000089H   SFRSYM    DATA     BYTE      TMOD
      00000098H   SFRSYM    DATA     BYTE      SCON
      00000087H   SFRSYM    DATA     BYTE      PCON
      000000BCH   SFRSYM    DATA     BYTE      ADC_CONTR
L251 LINKER/LOCATER V4.66.93.0                                                        01/16/2025  23:25:20  PAGE 79


      000000D1H   SFRSYM    DATA     BYTE      PSW1
      000000E7H   SFRSYM    DATA     BYTE      CMPCR2
      000000E6H   SFRSYM    DATA     BYTE      CMPCR1
      000000DEH   SFRSYM    DATA     BYTE      ADCCFG
      000000B8H   SFRSYM    DATA     BYTE      IP
      0000008FH   SFRSYM    DATA     BYTE      INTCLKO
      000000EEH   SFRSYM    DATA     BYTE      IP3H
      000000B6H   SFRSYM    DATA     BYTE      IP2H
      000000BFH   SFRSYM    DATA     BYTE      P_SW4
      000000A8H   SFRSYM    DATA     BYTE      IE
      000000BBH   SFRSYM    DATA     BYTE      P_SW3
      000000BAH   SFRSYM    DATA     BYTE      P_SW2
      000000A2H   SFRSYM    DATA     BYTE      P_SW1
      000000CEH   SFRSYM    DATA     BYTE      SPCTL
      000000F8H   SFRSYM    DATA     BYTE      P7
      000000A8H.7 SFRSYM    DATA     BIT       EA
      000000E8H   SFRSYM    DATA     BYTE      P6
      000000C8H   SFRSYM    DATA     BYTE      P5
      000000C0H   SFRSYM    DATA     BYTE      P4
      000000ABH   SFRSYM    DATA     BYTE      WKTCH
      000000B0H   SFRSYM    DATA     BYTE      P3
      000000A0H   SFRSYM    DATA     BYTE      P2
      00000090H   SFRSYM    DATA     BYTE      P1
      00000080H   SFRSYM    DATA     BYTE      P0
      000103D2H   SYMBOL    XDATA    ---       seekfree_assistant_camera_dot_data
      000103FEH   SYMBOL    XDATA    ---       seekfree_assistant_fifo
      0001043DH   SYMBOL    XDATA    ---       seekfree_assistant_camera_buffer
      00010487H   SYMBOL    XDATA    ---       seekfree_assistant_camera_data
      0001048FH   SYMBOL    XDATA    ---       seekfree_assistant_buffer
      00FF6CCBH   SYMBOL    HCONST   ---       ?tpl?0001
      00FF6CEFH   SYMBOL    HCONST   ---       ?tpl?0002
      REG=6       REGSYM    ---      ---       buffer
      DR28        REGSYM    ---      DWORD     length
      R11         REGSYM    ---      BYTE      temp_sum
      WR12        REGSYM    ---      INT       camera_type
      R9          REGSYM    ---      BYTE      boundary_num
      WR14        REGSYM    ---      WORD      width
      WR6         REGSYM    ---      INT       camera_type
      REG=0       REGSYM    ---      ---       image_addr
      WR4         REGSYM    ---      WORD      width
      REG=7       REGSYM    ---      ---       seekfree_assistant_oscilloscope
      R15         REGSYM    ---      BYTE      packet_size
      R15         REGSYM    ---      BYTE      i
      REG=3       REGSYM    ---      ---       buffer
      WR8         REGSYM    ---      INT       boundary_type
      WR2         REGSYM    ---      WORD      dot_num
      REG=7       REGSYM    ---      ---       dot_x1
      R4          REGSYM    ---      BYTE      i
      R7          REGSYM    ---      BYTE      boundary_num
      R5          REGSYM    ---      BYTE      boundary_data_type
      REG=3       REGSYM    ---      ---       receive_packet

      ---         MODULE    ---      ---       seekfree_assistant_interface
      0001071FH   PUBLIC    XDATA    ---       seekfree_assistant_receive_callback
      00010721H   PUBLIC    XDATA    ---       seekfree_assistant_transfer_callback
      000000D0H   SFRSYM    DATA     BYTE      PSW
      0000009DH   SFRSYM    DATA     BYTE      IRCBAND
      00000097H   SFRSYM    DATA     BYTE      AUXR2
      000000EFH   SFRSYM    DATA     BYTE      AUXINTIF
      000000FDH   SFRSYM    DATA     BYTE      S4CON
      000000ACH   SFRSYM    DATA     BYTE      S3CON
      0000009AH   SFRSYM    DATA     BYTE      S2CON
      000000B7H   SFRSYM    DATA     BYTE      IPH
      000000CDH   SFRSYM    DATA     BYTE      SPSTAT
      000000DDH   SFRSYM    DATA     BYTE      T4T3M
L251 LINKER/LOCATER V4.66.93.0                                                        01/16/2025  23:25:20  PAGE 80


      000000C1H   SFRSYM    DATA     BYTE      WDT_CONTR
      000000DFH   SFRSYM    DATA     BYTE      IP3
      000000F4H   SFRSYM    DATA     BYTE      USBCON
      000000B5H   SFRSYM    DATA     BYTE      IP2
      000000FFH   SFRSYM    DATA     BYTE      RSTCFG
      000000C7H   SFRSYM    DATA     BYTE      IAP_CONTR
      0000008EH   SFRSYM    DATA     BYTE      AUXR
      000000AFH   SFRSYM    DATA     BYTE      IE2
      00000088H   SFRSYM    DATA     BYTE      TCON
      00000089H   SFRSYM    DATA     BYTE      TMOD
      00000098H   SFRSYM    DATA     BYTE      SCON
      00000087H   SFRSYM    DATA     BYTE      PCON
      000000BCH   SFRSYM    DATA     BYTE      ADC_CONTR
      000000D1H   SFRSYM    DATA     BYTE      PSW1
      000000E7H   SFRSYM    DATA     BYTE      CMPCR2
      000000E6H   SFRSYM    DATA     BYTE      CMPCR1
      000000DEH   SFRSYM    DATA     BYTE      ADCCFG
      000000B8H   SFRSYM    DATA     BYTE      IP
      0000008FH   SFRSYM    DATA     BYTE      INTCLKO
      000000EEH   SFRSYM    DATA     BYTE      IP3H
      000000B6H   SFRSYM    DATA     BYTE      IP2H
      000000BFH   SFRSYM    DATA     BYTE      P_SW4
      000000A8H   SFRSYM    DATA     BYTE      IE
      000000BBH   SFRSYM    DATA     BYTE      P_SW3
      000000BAH   SFRSYM    DATA     BYTE      P_SW2
      000000A2H   SFRSYM    DATA     BYTE      P_SW1
      000000CEH   SFRSYM    DATA     BYTE      SPCTL
      000000F8H   SFRSYM    DATA     BYTE      P7
      000000E8H   SFRSYM    DATA     BYTE      P6
      000000C8H   SFRSYM    DATA     BYTE      P5
      000000C0H   SFRSYM    DATA     BYTE      P4
      000000ABH   SFRSYM    DATA     BYTE      WKTCH
      000000B0H   SFRSYM    DATA     BYTE      P3
      000000A0H   SFRSYM    DATA     BYTE      P2
      00000090H   SFRSYM    DATA     BYTE      P1
      00000080H   SFRSYM    DATA     BYTE      P0
      WR6         REGSYM    ---      INT       transfer_device

      ---         MODULE    ---      ---       isr
      00FF5F55H   PUBLIC    CODE     ---       TM11_IRQHandler
      00FF5962H   PUBLIC    CODE     ---       DMA_UART1_IRQHandler
      00FF59F9H   PUBLIC    CODE     ---       DMA_UART2_IRQHandler
      00FF5A72H   PUBLIC    CODE     ---       DMA_UART3_IRQHandler
      00FF5AEBH   PUBLIC    CODE     ---       DMA_UART4_IRQHandler
      00FF6185H   PUBLIC    CODE     ---       TM0_IRQHandler
      00FF61C3H   PUBLIC    CODE     ---       TM1_IRQHandler
      00FF6201H   PUBLIC    CODE     ---       TM2_IRQHandler
      00FF623FH   PUBLIC    CODE     ---       TM3_IRQHandler
      00FF627DH   PUBLIC    CODE     ---       TM4_IRQHandler
      000000D0H   SFRSYM    DATA     BYTE      PSW
      0000009DH   SFRSYM    DATA     BYTE      IRCBAND
      00000097H   SFRSYM    DATA     BYTE      AUXR2
      000000EFH   SFRSYM    DATA     BYTE      AUXINTIF
      000000FDH   SFRSYM    DATA     BYTE      S4CON
      000000ACH   SFRSYM    DATA     BYTE      S3CON
      0000009AH   SFRSYM    DATA     BYTE      S2CON
      000000B7H   SFRSYM    DATA     BYTE      IPH
      000000CDH   SFRSYM    DATA     BYTE      SPSTAT
      000000DDH   SFRSYM    DATA     BYTE      T4T3M
      000000C1H   SFRSYM    DATA     BYTE      WDT_CONTR
      000000DFH   SFRSYM    DATA     BYTE      IP3
      000000F4H   SFRSYM    DATA     BYTE      USBCON
      000000B5H   SFRSYM    DATA     BYTE      IP2
      000000FFH   SFRSYM    DATA     BYTE      RSTCFG
      000000C7H   SFRSYM    DATA     BYTE      IAP_CONTR
L251 LINKER/LOCATER V4.66.93.0                                                        01/16/2025  23:25:20  PAGE 81


      0000008EH   SFRSYM    DATA     BYTE      AUXR
      000000AFH   SFRSYM    DATA     BYTE      IE2
      00000088H   SFRSYM    DATA     BYTE      TCON
      00000089H   SFRSYM    DATA     BYTE      TMOD
      00000098H   SFRSYM    DATA     BYTE      SCON
      00000087H   SFRSYM    DATA     BYTE      PCON
      000000BCH   SFRSYM    DATA     BYTE      ADC_CONTR
      000000D1H   SFRSYM    DATA     BYTE      PSW1
      000000E7H   SFRSYM    DATA     BYTE      CMPCR2
      000000E6H   SFRSYM    DATA     BYTE      CMPCR1
      000000DEH   SFRSYM    DATA     BYTE      ADCCFG
      000000B8H   SFRSYM    DATA     BYTE      IP
      0000008FH   SFRSYM    DATA     BYTE      INTCLKO
      000000EEH   SFRSYM    DATA     BYTE      IP3H
      000000B6H   SFRSYM    DATA     BYTE      IP2H
      000000BFH   SFRSYM    DATA     BYTE      P_SW4
      000000A8H   SFRSYM    DATA     BYTE      IE
      000000BBH   SFRSYM    DATA     BYTE      P_SW3
      000000BAH   SFRSYM    DATA     BYTE      P_SW2
      000000A2H   SFRSYM    DATA     BYTE      P_SW1
      000000CEH   SFRSYM    DATA     BYTE      SPCTL
      000000F8H   SFRSYM    DATA     BYTE      P7
      000000E8H   SFRSYM    DATA     BYTE      P6
      000000C8H   SFRSYM    DATA     BYTE      P5
      000000C0H   SFRSYM    DATA     BYTE      P4
      000000ABH   SFRSYM    DATA     BYTE      WKTCH
      000000B0H   SFRSYM    DATA     BYTE      P3
      000000A0H   SFRSYM    DATA     BYTE      P2
      00000090H   SFRSYM    DATA     BYTE      P1
      00000080H   SFRSYM    DATA     BYTE      P0

      00FF5962H   BLOCK     CODE     ---       LVL=0
      00FF5976H   BLOCK     CODE     NEAR LAB  LVL=1
      0001072DH   SYMBOL    XDATA    BYTE      dwon_count
      ---         BLOCKEND  ---      ---       LVL=1
      00FF5962H   LINE      CODE     ---       #40
      00FF5976H   LINE      CODE     ---       #41
      00FF5976H   LINE      CODE     ---       #43
      00FF5984H   LINE      CODE     ---       #45
      00FF598CH   LINE      CODE     ---       #46
      00FF5991H   LINE      CODE     ---       #49
      00FF599CH   LINE      CODE     ---       #51
      00FF59ABH   LINE      CODE     ---       #53
      00FF59AEH   LINE      CODE     ---       #54
      00FF59B0H   LINE      CODE     ---       #58
      00FF59B5H   LINE      CODE     ---       #59
      00FF59B5H   LINE      CODE     ---       #61
      00FF59BFH   LINE      CODE     ---       #63
      00FF59C9H   LINE      CODE     ---       #64
      00FF59C9H   LINE      CODE     ---       #67
      00FF59D7H   LINE      CODE     ---       #69
      00FF59DFH   LINE      CODE     ---       #70
      00FF59E4H   LINE      CODE     ---       #74
      ---         BLOCKEND  ---      ---       LVL=0

      00FF59F9H   BLOCK     CODE     ---       LVL=0
      00FF59F9H   LINE      CODE     ---       #79
      00FF5A0DH   LINE      CODE     ---       #82
      00FF5A1BH   LINE      CODE     ---       #84
      00FF5A23H   LINE      CODE     ---       #85
      00FF5A2AH   LINE      CODE     ---       #87
      00FF5A34H   LINE      CODE     ---       #89
      00FF5A40H   LINE      CODE     ---       #90
      00FF5A40H   LINE      CODE     ---       #93
      00FF5A4EH   LINE      CODE     ---       #95
L251 LINKER/LOCATER V4.66.93.0                                                        01/16/2025  23:25:20  PAGE 82


      00FF5A56H   LINE      CODE     ---       #96
      00FF5A5DH   LINE      CODE     ---       #101
      ---         BLOCKEND  ---      ---       LVL=0

      00FF5A72H   BLOCK     CODE     ---       LVL=0
      00FF5A72H   LINE      CODE     ---       #104
      00FF5A86H   LINE      CODE     ---       #107
      00FF5A94H   LINE      CODE     ---       #109
      00FF5A9CH   LINE      CODE     ---       #110
      00FF5AA3H   LINE      CODE     ---       #112
      00FF5AADH   LINE      CODE     ---       #115
      00FF5AB9H   LINE      CODE     ---       #117
      00FF5AB9H   LINE      CODE     ---       #120
      00FF5AC7H   LINE      CODE     ---       #122
      00FF5ACFH   LINE      CODE     ---       #123
      00FF5AD6H   LINE      CODE     ---       #128
      ---         BLOCKEND  ---      ---       LVL=0

      00FF5AEBH   BLOCK     CODE     ---       LVL=0
      00FF5AEBH   LINE      CODE     ---       #131
      00FF5AFFH   LINE      CODE     ---       #134
      00FF5B0DH   LINE      CODE     ---       #136
      00FF5B15H   LINE      CODE     ---       #137
      00FF5B1CH   LINE      CODE     ---       #139
      00FF5B26H   LINE      CODE     ---       #141
      00FF5B32H   LINE      CODE     ---       #143
      00FF5B32H   LINE      CODE     ---       #146
      00FF5B40H   LINE      CODE     ---       #148
      00FF5B48H   LINE      CODE     ---       #149
      00FF5B4FH   LINE      CODE     ---       #154
      ---         BLOCKEND  ---      ---       LVL=0

      00FF6185H   BLOCK     CODE     ---       LVL=0
      00FF6185H   LINE      CODE     ---       #158
      00FF6199H   LINE      CODE     ---       #160
      00FF619CH   LINE      CODE     ---       #162
      00FF61A6H   LINE      CODE     ---       #164
      00FF61AEH   LINE      CODE     ---       #165
      ---         BLOCKEND  ---      ---       LVL=0

      00FF61C3H   BLOCK     CODE     ---       LVL=0
      00FF61C3H   LINE      CODE     ---       #167
      00FF61D7H   LINE      CODE     ---       #169
      00FF61DAH   LINE      CODE     ---       #171
      00FF61E4H   LINE      CODE     ---       #173
      00FF61ECH   LINE      CODE     ---       #174
      ---         BLOCKEND  ---      ---       LVL=0

      00FF6201H   BLOCK     CODE     ---       LVL=0
      00FF6201H   LINE      CODE     ---       #176
      00FF6215H   LINE      CODE     ---       #178
      00FF6218H   LINE      CODE     ---       #180
      00FF6222H   LINE      CODE     ---       #182
      00FF622AH   LINE      CODE     ---       #183
      ---         BLOCKEND  ---      ---       LVL=0

      00FF623FH   BLOCK     CODE     ---       LVL=0
      00FF623FH   LINE      CODE     ---       #185
      00FF6253H   LINE      CODE     ---       #187
      00FF6256H   LINE      CODE     ---       #189
      00FF6260H   LINE      CODE     ---       #191
      00FF6268H   LINE      CODE     ---       #192
      ---         BLOCKEND  ---      ---       LVL=0

      00FF627DH   BLOCK     CODE     ---       LVL=0
L251 LINKER/LOCATER V4.66.93.0                                                        01/16/2025  23:25:20  PAGE 83


      00FF627DH   LINE      CODE     ---       #195
      00FF6291H   LINE      CODE     ---       #197
      00FF6294H   LINE      CODE     ---       #199
      00FF629EH   LINE      CODE     ---       #201
      00FF62A6H   LINE      CODE     ---       #202
      ---         BLOCKEND  ---      ---       LVL=0

      00FF5F55H   BLOCK     CODE     ---       LVL=0
      00FF5F55H   LINE      CODE     ---       #205
      00FF5F69H   LINE      CODE     ---       #207
      00FF5F79H   LINE      CODE     ---       #209
      00FF5F83H   LINE      CODE     ---       #211
      00FF5F8BH   LINE      CODE     ---       #212
      ---         BLOCKEND  ---      ---       LVL=0

      ---         MODULE    ---      ---       main
      00FF56BBH   PUBLIC    CODE     ---       main
      00010728H   PUBLIC    XDATA    WORD      duty
      000000D0H   SFRSYM    DATA     BYTE      PSW
      0000009DH   SFRSYM    DATA     BYTE      IRCBAND
      00000097H   SFRSYM    DATA     BYTE      AUXR2
      000000EFH   SFRSYM    DATA     BYTE      AUXINTIF
      000000FDH   SFRSYM    DATA     BYTE      S4CON
      000000ACH   SFRSYM    DATA     BYTE      S3CON
      0000009AH   SFRSYM    DATA     BYTE      S2CON
      000000B7H   SFRSYM    DATA     BYTE      IPH
      000000CDH   SFRSYM    DATA     BYTE      SPSTAT
      000000DDH   SFRSYM    DATA     BYTE      T4T3M
      000000C1H   SFRSYM    DATA     BYTE      WDT_CONTR
      000000DFH   SFRSYM    DATA     BYTE      IP3
      000000F4H   SFRSYM    DATA     BYTE      USBCON
      000000B5H   SFRSYM    DATA     BYTE      IP2
      000000FFH   SFRSYM    DATA     BYTE      RSTCFG
      000000C7H   SFRSYM    DATA     BYTE      IAP_CONTR
      0000008EH   SFRSYM    DATA     BYTE      AUXR
      000000AFH   SFRSYM    DATA     BYTE      IE2
      00000088H   SFRSYM    DATA     BYTE      TCON
      00000089H   SFRSYM    DATA     BYTE      TMOD
      00000098H   SFRSYM    DATA     BYTE      SCON
      00000087H   SFRSYM    DATA     BYTE      PCON
      000000BCH   SFRSYM    DATA     BYTE      ADC_CONTR
      000000D1H   SFRSYM    DATA     BYTE      PSW1
      000000E7H   SFRSYM    DATA     BYTE      CMPCR2
      000000E6H   SFRSYM    DATA     BYTE      CMPCR1
      000000DEH   SFRSYM    DATA     BYTE      ADCCFG
      000000B8H   SFRSYM    DATA     BYTE      IP
      0000008FH   SFRSYM    DATA     BYTE      INTCLKO
      000000EEH   SFRSYM    DATA     BYTE      IP3H
      000000B6H   SFRSYM    DATA     BYTE      IP2H
      000000BFH   SFRSYM    DATA     BYTE      P_SW4
      000000A8H   SFRSYM    DATA     BYTE      IE
      000000BBH   SFRSYM    DATA     BYTE      P_SW3
      000000BAH   SFRSYM    DATA     BYTE      P_SW2
      000000A2H   SFRSYM    DATA     BYTE      P_SW1
      000000CEH   SFRSYM    DATA     BYTE      SPCTL
      000000F8H   SFRSYM    DATA     BYTE      P7
      000000E8H   SFRSYM    DATA     BYTE      P6
      000000C8H   SFRSYM    DATA     BYTE      P5
      000000C0H   SFRSYM    DATA     BYTE      P4
      000000ABH   SFRSYM    DATA     BYTE      WKTCH
      000000B0H   SFRSYM    DATA     BYTE      P3
      000000A0H   SFRSYM    DATA     BYTE      P2
      00000090H   SFRSYM    DATA     BYTE      P1
      00000080H   SFRSYM    DATA     BYTE      P0

L251 LINKER/LOCATER V4.66.93.0                                                        01/16/2025  23:25:20  PAGE 84


      00FF56BBH   BLOCK     CODE     ---       LVL=0
      00FF56BBH   LINE      CODE     ---       #72
      00FF56BBH   LINE      CODE     ---       #74
      00FF56C6H   LINE      CODE     ---       #75
      00FF56C9H   LINE      CODE     ---       #79
      00FF56E0H   LINE      CODE     ---       #80
      00FF56F7H   LINE      CODE     ---       #81
      00FF56FAH   LINE      CODE     ---       #82
      00FF56FDH   LINE      CODE     ---       #95
      00FF5707H   LINE      CODE     ---       #97
      00FF5707H   LINE      CODE     ---       #102
      00FF570AH   LINE      CODE     ---       #103
      00FF570DH   LINE      CODE     ---       #104
      00FF573CH   LINE      CODE     ---       #105
      00FF576BH   LINE      CODE     ---       #106
      00FF5772H   LINE      CODE     ---       #128
      ---         BLOCKEND  ---      ---       LVL=0

      ---         MODULE    ---      ---       sys
      000000D0H   SFRSYM    DATA     BYTE      PSW
      0000009DH   SFRSYM    DATA     BYTE      IRCBAND
      00000097H   SFRSYM    DATA     BYTE      AUXR2
      000000EFH   SFRSYM    DATA     BYTE      AUXINTIF
      000000FDH   SFRSYM    DATA     BYTE      S4CON
      000000ACH   SFRSYM    DATA     BYTE      S3CON
      0000009AH   SFRSYM    DATA     BYTE      S2CON
      000000B7H   SFRSYM    DATA     BYTE      IPH
      000000CDH   SFRSYM    DATA     BYTE      SPSTAT
      000000DDH   SFRSYM    DATA     BYTE      T4T3M
      000000C1H   SFRSYM    DATA     BYTE      WDT_CONTR
      000000DFH   SFRSYM    DATA     BYTE      IP3
      000000F4H   SFRSYM    DATA     BYTE      USBCON
      000000B5H   SFRSYM    DATA     BYTE      IP2
      000000FFH   SFRSYM    DATA     BYTE      RSTCFG
      000000C7H   SFRSYM    DATA     BYTE      IAP_CONTR
      0000008EH   SFRSYM    DATA     BYTE      AUXR
      000000AFH   SFRSYM    DATA     BYTE      IE2
      00000088H   SFRSYM    DATA     BYTE      TCON
      00000089H   SFRSYM    DATA     BYTE      TMOD
      00000098H   SFRSYM    DATA     BYTE      SCON
      00000087H   SFRSYM    DATA     BYTE      PCON
      000000BCH   SFRSYM    DATA     BYTE      ADC_CONTR
      000000D1H   SFRSYM    DATA     BYTE      PSW1
      000000E7H   SFRSYM    DATA     BYTE      CMPCR2
      000000E6H   SFRSYM    DATA     BYTE      CMPCR1
      000000DEH   SFRSYM    DATA     BYTE      ADCCFG
      000000B8H   SFRSYM    DATA     BYTE      IP
      0000008FH   SFRSYM    DATA     BYTE      INTCLKO
      000000EEH   SFRSYM    DATA     BYTE      IP3H
      000000B6H   SFRSYM    DATA     BYTE      IP2H
      000000BFH   SFRSYM    DATA     BYTE      P_SW4
      000000A8H   SFRSYM    DATA     BYTE      IE
      000000BBH   SFRSYM    DATA     BYTE      P_SW3
      000000BAH   SFRSYM    DATA     BYTE      P_SW2
      000000A2H   SFRSYM    DATA     BYTE      P_SW1
      000000CEH   SFRSYM    DATA     BYTE      SPCTL
      000000F8H   SFRSYM    DATA     BYTE      P7
      000000E8H   SFRSYM    DATA     BYTE      P6
      000000C8H   SFRSYM    DATA     BYTE      P5
      000000C0H   SFRSYM    DATA     BYTE      P4
      000000ABH   SFRSYM    DATA     BYTE      WKTCH
      000000B0H   SFRSYM    DATA     BYTE      P3
      000000A0H   SFRSYM    DATA     BYTE      P2
      00000090H   SFRSYM    DATA     BYTE      P1
      00000080H   SFRSYM    DATA     BYTE      P0
L251 LINKER/LOCATER V4.66.93.0                                                        01/16/2025  23:25:20  PAGE 85



      ---         MODULE    ---      ---       uart
      000000D0H   SFRSYM    DATA     BYTE      PSW
      0000009DH   SFRSYM    DATA     BYTE      IRCBAND
      00000097H   SFRSYM    DATA     BYTE      AUXR2
      000000EFH   SFRSYM    DATA     BYTE      AUXINTIF
      000000FDH   SFRSYM    DATA     BYTE      S4CON
      000000ACH   SFRSYM    DATA     BYTE      S3CON
      0000009AH   SFRSYM    DATA     BYTE      S2CON
      000000B7H   SFRSYM    DATA     BYTE      IPH
      000000CDH   SFRSYM    DATA     BYTE      SPSTAT
      000000DDH   SFRSYM    DATA     BYTE      T4T3M
      000000C1H   SFRSYM    DATA     BYTE      WDT_CONTR
      000000DFH   SFRSYM    DATA     BYTE      IP3
      000000F4H   SFRSYM    DATA     BYTE      USBCON
      000000B5H   SFRSYM    DATA     BYTE      IP2
      000000FFH   SFRSYM    DATA     BYTE      RSTCFG
      000000C7H   SFRSYM    DATA     BYTE      IAP_CONTR
      0000008EH   SFRSYM    DATA     BYTE      AUXR
      000000AFH   SFRSYM    DATA     BYTE      IE2
      00000088H   SFRSYM    DATA     BYTE      TCON
      00000089H   SFRSYM    DATA     BYTE      TMOD
      00000098H   SFRSYM    DATA     BYTE      SCON
      00000087H   SFRSYM    DATA     BYTE      PCON
      000000BCH   SFRSYM    DATA     BYTE      ADC_CONTR
      000000D1H   SFRSYM    DATA     BYTE      PSW1
      000000E7H   SFRSYM    DATA     BYTE      CMPCR2
      000000E6H   SFRSYM    DATA     BYTE      CMPCR1
      000000DEH   SFRSYM    DATA     BYTE      ADCCFG
      000000B8H   SFRSYM    DATA     BYTE      IP
      0000008FH   SFRSYM    DATA     BYTE      INTCLKO
      000000EEH   SFRSYM    DATA     BYTE      IP3H
      000000B6H   SFRSYM    DATA     BYTE      IP2H
      000000BFH   SFRSYM    DATA     BYTE      P_SW4
      000000A8H   SFRSYM    DATA     BYTE      IE
      000000BBH   SFRSYM    DATA     BYTE      P_SW3
      000000BAH   SFRSYM    DATA     BYTE      P_SW2
      000000A2H   SFRSYM    DATA     BYTE      P_SW1
      000000CEH   SFRSYM    DATA     BYTE      SPCTL
      000000F8H   SFRSYM    DATA     BYTE      P7
      000000E8H   SFRSYM    DATA     BYTE      P6
      000000C8H   SFRSYM    DATA     BYTE      P5
      000000C0H   SFRSYM    DATA     BYTE      P4
      000000ABH   SFRSYM    DATA     BYTE      WKTCH
      000000B0H   SFRSYM    DATA     BYTE      P3
      000000A0H   SFRSYM    DATA     BYTE      P2
      00000090H   SFRSYM    DATA     BYTE      P1
      00000080H   SFRSYM    DATA     BYTE      P0

      ---         MODULE    ---      ---       motor
      000000D0H   SFRSYM    DATA     BYTE      PSW
      0000009DH   SFRSYM    DATA     BYTE      IRCBAND
      00000097H   SFRSYM    DATA     BYTE      AUXR2
      000000EFH   SFRSYM    DATA     BYTE      AUXINTIF
      000000FDH   SFRSYM    DATA     BYTE      S4CON
      000000ACH   SFRSYM    DATA     BYTE      S3CON
      0000009AH   SFRSYM    DATA     BYTE      S2CON
      000000B7H   SFRSYM    DATA     BYTE      IPH
      000000CDH   SFRSYM    DATA     BYTE      SPSTAT
      000000DDH   SFRSYM    DATA     BYTE      T4T3M
      000000C1H   SFRSYM    DATA     BYTE      WDT_CONTR
      000000DFH   SFRSYM    DATA     BYTE      IP3
      000000F4H   SFRSYM    DATA     BYTE      USBCON
      000000B5H   SFRSYM    DATA     BYTE      IP2
      000000FFH   SFRSYM    DATA     BYTE      RSTCFG
L251 LINKER/LOCATER V4.66.93.0                                                        01/16/2025  23:25:20  PAGE 86


      000000C7H   SFRSYM    DATA     BYTE      IAP_CONTR
      0000008EH   SFRSYM    DATA     BYTE      AUXR
      000000AFH   SFRSYM    DATA     BYTE      IE2
      00000088H   SFRSYM    DATA     BYTE      TCON
      00000089H   SFRSYM    DATA     BYTE      TMOD
      00000098H   SFRSYM    DATA     BYTE      SCON
      00000087H   SFRSYM    DATA     BYTE      PCON
      000000BCH   SFRSYM    DATA     BYTE      ADC_CONTR
      000000D1H   SFRSYM    DATA     BYTE      PSW1
      000000E7H   SFRSYM    DATA     BYTE      CMPCR2
      000000E6H   SFRSYM    DATA     BYTE      CMPCR1
      000000DEH   SFRSYM    DATA     BYTE      ADCCFG
      000000B8H   SFRSYM    DATA     BYTE      IP
      0000008FH   SFRSYM    DATA     BYTE      INTCLKO
      000000EEH   SFRSYM    DATA     BYTE      IP3H
      000000B6H   SFRSYM    DATA     BYTE      IP2H
      000000BFH   SFRSYM    DATA     BYTE      P_SW4
      000000A8H   SFRSYM    DATA     BYTE      IE
      000000BBH   SFRSYM    DATA     BYTE      P_SW3
      000000BAH   SFRSYM    DATA     BYTE      P_SW2
      000000A2H   SFRSYM    DATA     BYTE      P_SW1
      000000CEH   SFRSYM    DATA     BYTE      SPCTL
      000000F8H   SFRSYM    DATA     BYTE      P7
      000000E8H   SFRSYM    DATA     BYTE      P6
      000000C8H   SFRSYM    DATA     BYTE      P5
      000000C0H   SFRSYM    DATA     BYTE      P4
      000000ABH   SFRSYM    DATA     BYTE      WKTCH
      000000B0H   SFRSYM    DATA     BYTE      P3
      000000A0H   SFRSYM    DATA     BYTE      P2
      00000090H   SFRSYM    DATA     BYTE      P1
      00000080H   SFRSYM    DATA     BYTE      P0

      ---         MODULE    ---      ---       rocker
      00FF00A6H   PUBLIC    CODE     ---       rocker_init
      000106E7H   PUBLIC    XDATA    FLOAT     R_x_val
      000106EBH   PUBLIC    XDATA    FLOAT     R_y_val
      000106EFH   PUBLIC    XDATA    WORD      Rocker_state
      000000D0H   SFRSYM    DATA     BYTE      PSW
      0000009DH   SFRSYM    DATA     BYTE      IRCBAND
      00000097H   SFRSYM    DATA     BYTE      AUXR2
      000000EFH   SFRSYM    DATA     BYTE      AUXINTIF
      000000FDH   SFRSYM    DATA     BYTE      S4CON
      000000ACH   SFRSYM    DATA     BYTE      S3CON
      0000009AH   SFRSYM    DATA     BYTE      S2CON
      000000B7H   SFRSYM    DATA     BYTE      IPH
      000000CDH   SFRSYM    DATA     BYTE      SPSTAT
      000000DDH   SFRSYM    DATA     BYTE      T4T3M
      000000C1H   SFRSYM    DATA     BYTE      WDT_CONTR
      000000DFH   SFRSYM    DATA     BYTE      IP3
      000000F4H   SFRSYM    DATA     BYTE      USBCON
      000000B5H   SFRSYM    DATA     BYTE      IP2
      000000FFH   SFRSYM    DATA     BYTE      RSTCFG
      000000C7H   SFRSYM    DATA     BYTE      IAP_CONTR
      0000008EH   SFRSYM    DATA     BYTE      AUXR
      000000AFH   SFRSYM    DATA     BYTE      IE2
      00000088H   SFRSYM    DATA     BYTE      TCON
      00000089H   SFRSYM    DATA     BYTE      TMOD
      00000098H   SFRSYM    DATA     BYTE      SCON
      00000087H   SFRSYM    DATA     BYTE      PCON
      000000BCH   SFRSYM    DATA     BYTE      ADC_CONTR
      000000D1H   SFRSYM    DATA     BYTE      PSW1
      000000E7H   SFRSYM    DATA     BYTE      CMPCR2
      000000E6H   SFRSYM    DATA     BYTE      CMPCR1
      000000DEH   SFRSYM    DATA     BYTE      ADCCFG
      000000B8H   SFRSYM    DATA     BYTE      IP
L251 LINKER/LOCATER V4.66.93.0                                                        01/16/2025  23:25:20  PAGE 87


      0000008FH   SFRSYM    DATA     BYTE      INTCLKO
      000000EEH   SFRSYM    DATA     BYTE      IP3H
      000000B6H   SFRSYM    DATA     BYTE      IP2H
      000000BFH   SFRSYM    DATA     BYTE      P_SW4
      000000A8H   SFRSYM    DATA     BYTE      IE
      000000BBH   SFRSYM    DATA     BYTE      P_SW3
      000000BAH   SFRSYM    DATA     BYTE      P_SW2
      000000A2H   SFRSYM    DATA     BYTE      P_SW1
      000000CEH   SFRSYM    DATA     BYTE      SPCTL
      000000F8H   SFRSYM    DATA     BYTE      P7
      000000E8H   SFRSYM    DATA     BYTE      P6
      000000C8H   SFRSYM    DATA     BYTE      P5
      000000C0H   SFRSYM    DATA     BYTE      P4
      000000ABH   SFRSYM    DATA     BYTE      WKTCH
      000000B0H   SFRSYM    DATA     BYTE      P3
      000000A0H   SFRSYM    DATA     BYTE      P2
      00000090H   SFRSYM    DATA     BYTE      P1
      00000080H   SFRSYM    DATA     BYTE      P0

      00FF00A6H   BLOCK     CODE     ---       LVL=0
      00FF00A6H   LINE      CODE     ---       #16
      00FF00A6H   LINE      CODE     ---       #18
      00FF00AFH   LINE      CODE     ---       #19
      ---         BLOCKEND  ---      ---       LVL=0

      ---         MODULE    ---      ---       ?C?DPADD
      00FF2225H   PUBLIC    CODE     ---       ?C?DPADD
      00FF2221H   PUBLIC    CODE     ---       ?C?DPSUB

      ---         MODULE    ---      ---       ?C?DPMUL
      00FF2334H   PUBLIC    CODE     ---       ?C?DPMUL

      ---         MODULE    ---      ---       ?C?DPDIV
      00FF2444H   PUBLIC    CODE     ---       ?C?DPDIV

      ---         MODULE    ---      ---       ?C?DPCMP
      00FF24E5H   PUBLIC    CODE     ---       ?C?DPCMP
      00FF24E3H   PUBLIC    CODE     ---       ?C?DPCMP3

      ---         MODULE    ---      ---       ?C?DPNEG
      00FF2544H   PUBLIC    CODE     ---       ?C?DPNEG

      ---         MODULE    ---      ---       ?C?DCAST
      00FF255CH   PUBLIC    CODE     NEAR LAB  ?C?DCASTC
      00FF2557H   PUBLIC    CODE     NEAR LAB  ?C?DCASTI
      00FF2552H   PUBLIC    CODE     NEAR LAB  ?C?DCASTL

      ---         MODULE    ---      ---       ?C?CASTD
      00FF259FH   PUBLIC    CODE     NEAR LAB  ?C?CASTD

      ---         MODULE    ---      ---       ?C?DCASTF
      00FF25FFH   PUBLIC    CODE     NEAR LAB  ?C?DCASTF

      ---         MODULE    ---      ---       ?C?FCASTD
      00FF2641H   PUBLIC    CODE     NEAR LAB  ?C?FCASTD

      ---         MODULE    ---      ---       PRINTF
      0001063EH   PUBLIC    XDATA    ---       ?PRINTF?BYTE
      00FF2678H   PUBLIC    CODE     NEAR LAB  PRINTF

      ---         MODULE    ---      ---       SQRT?_
      00FF26AAH   PUBLIC    CODE     ---       SQRT?_

      ---         MODULE    ---      ---       pow

L251 LINKER/LOCATER V4.66.93.0                                                        01/16/2025  23:25:20  PAGE 88


      ---         MODULE    ---      ---       SIN?_
      00FF27F8H   PUBLIC    CODE     ---       COS?_
      00FF2819H   PUBLIC    CODE     ---       SIN?_
      00FF284EH   PUBLIC    CODE     ---       TAN?_

      ---         MODULE    ---      ---       ATAN?_
      00FF2990H   PUBLIC    CODE     ---       ATAN?_

      ---         MODULE    ---      ---       ASIN?_
      00FF2AABH   PUBLIC    CODE     ---       ASIN?_

      ---         MODULE    ---      ---       ?C?DPGETOPN
      00FF2AD5H   PUBLIC    CODE     ---       ?C?DPGETOPN2
      00FF2B20H   PUBLIC    CODE     ---       ?C?DPNANRESULT
      00FF2B2CH   PUBLIC    CODE     ---       ?C?DPOVERFLOW
      00FF2AF8H   PUBLIC    CODE     ---       ?C?DPRESULT
      00FF2B11H   PUBLIC    CODE     ---       ?C?DPRESULT2
      00FF2B27H   PUBLIC    CODE     ---       ?C?DPUNDERFLOW

      ---         MODULE    ---      ---       _CHKDOUBLE_?_
      00FF2B3AH   PUBLIC    CODE     ---       _CHKDOUBLE_?_

      ---         MODULE    ---      ---       ?C?PRNFMT
      00FF2B85H   PUBLIC    CODE     ---       ?C?PRNFMT

      ---         MODULE    ---      ---       ?C?DPSERIES
      00FF2FB3H   PUBLIC    CODE     ---       ?C?DP2SERIES
      00FF2FBEH   PUBLIC    CODE     ---       ?C?DPSERIES

      ---         MODULE    ---      ---       EXP?_
      00FF309AH   PUBLIC    CODE     ---       EXP?_

      ---         MODULE    ---      ---       LOG?_
      00FF3183H   PUBLIC    CODE     NEAR LAB  LOG?_

      ---         MODULE    ---      ---       ?C?DPCONVERT
      00FF329EH   PUBLIC    CODE     ---       ?C?DPCONVERT
      00FF33C5H   PUBLIC    CODE     ---       ?C?DPROUND

      ---         MODULE    ---      ---       ?C?DTNPWR
      00FF34A0H   PUBLIC    CODE     ---       ?C?DTNPWR

      ---         MODULE    ---      ---       ?C?FPGETOPN
      00FF3526H   PUBLIC    CODE     ---       ?C?FPGETOPN2
      00FF3563H   PUBLIC    CODE     ---       ?C?FPNANRESULT
      00FF356BH   PUBLIC    CODE     ---       ?C?FPOVERFLOW
      00FF353FH   PUBLIC    CODE     ---       ?C?FPRESULT
      00FF3555H   PUBLIC    CODE     ---       ?C?FPRESULT2
      00FF3568H   PUBLIC    CODE     ---       ?C?FPUNDERFLOW

      ---         MODULE    ---      ---       ?C?FPADD
      00FF357DH   PUBLIC    CODE     ---       ?C?FPADD
      00FF357AH   PUBLIC    CODE     ---       ?C?FPSUB

      ---         MODULE    ---      ---       ?C?FPMUL
      00FF3635H   PUBLIC    CODE     ---       ?C?FPMUL

      ---         MODULE    ---      ---       ?C?FPDIV
      00FF36D5H   PUBLIC    CODE     ---       ?C?FPDIV

      ---         MODULE    ---      ---       ?C?FPCMP
      00FF3758H   PUBLIC    CODE     ---       ?C?FPCMP
      00FF3756H   PUBLIC    CODE     ---       ?C?FPCMP3

      ---         MODULE    ---      ---       ?C?FPNEG
L251 LINKER/LOCATER V4.66.93.0                                                        01/16/2025  23:25:20  PAGE 89


      00FF379CH   PUBLIC    CODE     ---       ?C?FPNEG

      ---         MODULE    ---      ---       ?C?FCAST
      00FF37B4H   PUBLIC    CODE     NEAR LAB  ?C?FCASTC
      00FF37AFH   PUBLIC    CODE     NEAR LAB  ?C?FCASTI
      00FF37AAH   PUBLIC    CODE     NEAR LAB  ?C?FCASTL

      ---         MODULE    ---      ---       ?C?CASTF
      00FF37E7H   PUBLIC    CODE     NEAR LAB  ?C?CASTF

      ---         MODULE    ---      ---       ?C_START
      00FF0000H   PUBLIC    CODE     ---       ?C?STARTUP
      00FF0000H   PUBLIC    CODE     ---       ?C_STARTUP

      ---         MODULE    ---      ---       ?C?INITHDATA
      00FF608BH   PUBLIC    CODE     ---       ?C?INITHDATA

      ---         MODULE    ---      ---       ?C?SIDIV
      00FF3824H   PUBLIC    CODE     ---       ?C?SIDIV

      ---         MODULE    ---      ---       ?C?LMUL
      00FF3856H   PUBLIC    CODE     ---       ?C?LMUL

      ---         MODULE    ---      ---       ?C?LIMUL
      00FF3867H   PUBLIC    CODE     ---       ?C?LIMUL

      ---         MODULE    ---      ---       ?C?ULDIV
      00FF3872H   PUBLIC    CODE     NEAR LAB  ?C?ULDIV
      00FF3870H   PUBLIC    CODE     NEAR LAB  ?C?ULIDIV

      ---         MODULE    ---      ---       ?C?SLDIV
      00FF38C3H   PUBLIC    CODE     NEAR LAB  ?C?SLDIV

      ---         MODULE    ---      ---       ?C?BMOVEPP
      00FF38F9H   PUBLIC    CODE     ---       ?C?BMOVEPP
      00FF38F7H   PUBLIC    CODE     ---       ?C?BMOVEPP8

      ---         MODULE    ---      ---       STRNCMP

      ---         MODULE    ---      ---       STRNCPY

      ---         MODULE    ---      ---       STRLEN

      ---         MODULE    ---      ---       STRCHR

      ---         MODULE    ---      ---       memcpy
      00FF6429H   PUBLIC    CODE     ---       memcpy?_

      ---         MODULE    ---      ---       memset

      ---         MODULE    ---      ---       ?C?INITHDATA_END
      00FF6859H   PUBLIC    HCONST   WORD      ?C?INITHDATA_END

Program Size: data=8.0 edata+hdata=256 xdata=1838 const=3009 code=25594
L251 RUN COMPLETE.  0 WARNING(S),  0 ERROR(S)
