L251 LINKER/LOCATER V4.66.93.0                                                          02/28/2025  00:29:39  PAGE 1


L251 LINKER/LOCATER V4.66.93.0, INVOKED BY:
D:\KEIL_V5\C251\BIN\L251.EXE .\out_file\ai8051u_isr.obj, .\out_file\zf_common_clock.obj, .\out_file\zf_common_debug.obj,
>>  .\out_file\zf_common_fifo.obj, .\out_file\zf_common_font.obj, .\out_file\zf_common_function.obj, .\out_file\zf_commo
>> n_typedef.obj, .\out_file\zf_common_interrupt.obj, .\out_file\zf_driver_adc.obj, .\out_file\zf_driver_delay.obj, .\ou
>> t_file\zf_driver_eeprom.obj, .\out_file\zf_driver_encoder.obj, .\out_file\zf_driver_exti.obj, .\out_file\zf_driver_gp
>> io.obj, .\out_file\zf_driver_pit.obj, .\out_file\zf_driver_pwm.obj, .\out_file\zf_driver_soft_iic.obj, .\out_file\zf_
>> driver_spi.obj, .\out_file\zf_driver_timer.obj, .\out_file\zf_driver_uart.obj, .\out_file\zf_device_config.obj, .\out
>> _file\zf_device_type.obj, .\out_file\zf_device_tft180.obj, .\out_file\zf_device_ips114.obj, .\out_file\zf_device_ips2
>> 00.obj, .\out_file\zf_device_dl1a.obj, .\out_file\zf_device_ble6a20.obj, .\out_file\zf_device_wireless_uart.obj, .\ou
>> t_file\zf_device_mpu6050.obj, .\out_file\zf_device_icm20602.obj, .\out_file\zf_device_imu660ra.obj, .\out_file\zf_dev
>> ice_imu963ra.obj, .\out_file\zf_device_gps_tau1201.obj, .\out_file\zf_device_tsl1401.obj, .\out_file\seekfree_assista
>> nt.obj, .\out_file\seekfree_assistant_interface.obj, .\out_file\isr.obj, .\out_file\main.obj, .\out_file\sys.obj, .\o
>> ut_file\uart.obj, .\out_file\motor.obj, .\out_file\rocker.obj, .\out_file\GPS.obj, .\out_file\CCD.obj, .\out_file\men
>> u.obj, .\out_file\control.obj, .\out_file\time.obj, .\out_file\encoder.obj, .\out_file\valuepack.obj, .\out_file\imu6
>> 60.obj TO .\out_file\SEEKFREE PRINT (.\out_file\SEEKFREE.map) CASE DISABLEWARNING (57, 16) REMOVEUNUSED CLASSES (EDAT
>> A (0X0-0X7FF), HDATA (0X0-0X7FF))


CPU MODE:     251 SOURCE MODE
INTR FRAME:   4 BYTES SAVED ON INTERRUPT
MEMORY MODEL: LARGE WITH DOUBLE PRECISION FLOATING POINT ARITHMETIC


INPUT MODULES INCLUDED:
  .\out_file\ai8051u_isr.obj (ai8051u_isr)
         COMMENT TYPE 0: A251 V4.69.13.0
  .\out_file\zf_common_clock.obj (zf_common_clock)
         COMMENT TYPE 0: C251 V5.60.0
  .\out_file\zf_common_debug.obj (zf_common_debug)
         COMMENT TYPE 0: C251 V5.60.0
  .\out_file\zf_common_fifo.obj (zf_common_fifo)
         COMMENT TYPE 0: C251 V5.60.0
  .\out_file\zf_common_font.obj (zf_common_font)
         COMMENT TYPE 0: C251 V5.60.0
  .\out_file\zf_common_function.obj (zf_common_function)
         COMMENT TYPE 0: C251 V5.60.0
  .\out_file\zf_common_typedef.obj (zf_common_typedef)
         COMMENT TYPE 0: C251 V5.60.0
  .\out_file\zf_common_interrupt.obj (zf_common_interrupt)
         COMMENT TYPE 0: C251 V5.60.0
  .\out_file\zf_driver_adc.obj (zf_driver_adc)
         COMMENT TYPE 0: C251 V5.60.0
  .\out_file\zf_driver_delay.obj (zf_driver_delay)
         COMMENT TYPE 0: C251 V5.60.0
  .\out_file\zf_driver_eeprom.obj (zf_driver_eeprom)
         COMMENT TYPE 0: C251 V5.60.0
  .\out_file\zf_driver_encoder.obj (zf_driver_encoder)
         COMMENT TYPE 0: C251 V5.60.0
  .\out_file\zf_driver_exti.obj (zf_driver_exti)
         COMMENT TYPE 0: C251 V5.60.0
  .\out_file\zf_driver_gpio.obj (zf_driver_gpio)
         COMMENT TYPE 0: C251 V5.60.0
  .\out_file\zf_driver_pit.obj (zf_driver_pit)
         COMMENT TYPE 0: C251 V5.60.0
  .\out_file\zf_driver_pwm.obj (zf_driver_pwm)
         COMMENT TYPE 0: C251 V5.60.0
  .\out_file\zf_driver_soft_iic.obj (zf_driver_soft_iic)
         COMMENT TYPE 0: C251 V5.60.0
  .\out_file\zf_driver_spi.obj (zf_driver_spi)
         COMMENT TYPE 0: C251 V5.60.0
  .\out_file\zf_driver_timer.obj (zf_driver_timer)
         COMMENT TYPE 0: C251 V5.60.0
  .\out_file\zf_driver_uart.obj (zf_driver_uart)
         COMMENT TYPE 0: C251 V5.60.0
  .\out_file\zf_device_config.obj (zf_device_config)
         COMMENT TYPE 0: C251 V5.60.0
L251 LINKER/LOCATER V4.66.93.0                                                        02/28/2025  00:29:39  PAGE 2


  .\out_file\zf_device_type.obj (zf_device_type)
         COMMENT TYPE 0: C251 V5.60.0
  .\out_file\zf_device_tft180.obj (zf_device_tft180)
         COMMENT TYPE 0: C251 V5.60.0
  .\out_file\zf_device_ips114.obj (zf_device_ips114)
         COMMENT TYPE 0: C251 V5.60.0
  .\out_file\zf_device_ips200.obj (zf_device_ips200)
         COMMENT TYPE 0: C251 V5.60.0
  .\out_file\zf_device_dl1a.obj (zf_device_dl1a)
         COMMENT TYPE 0: C251 V5.60.0
  .\out_file\zf_device_ble6a20.obj (zf_device_ble6a20)
         COMMENT TYPE 0: C251 V5.60.0
  .\out_file\zf_device_wireless_uart.obj (zf_device_wireless_uart)
         COMMENT TYPE 0: C251 V5.60.0
  .\out_file\zf_device_mpu6050.obj (zf_device_mpu6050)
         COMMENT TYPE 0: C251 V5.60.0
  .\out_file\zf_device_icm20602.obj (zf_device_icm20602)
         COMMENT TYPE 0: C251 V5.60.0
  .\out_file\zf_device_imu660ra.obj (zf_device_imu660ra)
         COMMENT TYPE 0: C251 V5.60.0
  .\out_file\zf_device_imu963ra.obj (zf_device_imu963ra)
         COMMENT TYPE 0: C251 V5.60.0
  .\out_file\zf_device_gps_tau1201.obj (zf_device_gps_tau1201)
         COMMENT TYPE 0: C251 V5.60.0
  .\out_file\zf_device_tsl1401.obj (zf_device_tsl1401)
         COMMENT TYPE 0: C251 V5.60.0
  .\out_file\seekfree_assistant.obj (seekfree_assistant)
         COMMENT TYPE 0: C251 V5.60.0
  .\out_file\seekfree_assistant_interface.obj (seekfree_assistant_interface)
         COMMENT TYPE 0: C251 V5.60.0
  .\out_file\isr.obj (isr)
         COMMENT TYPE 0: C251 V5.60.0
  .\out_file\main.obj (main)
         COMMENT TYPE 0: C251 V5.60.0
  .\out_file\sys.obj (sys)
         COMMENT TYPE 0: C251 V5.60.0
  .\out_file\uart.obj (uart)
         COMMENT TYPE 0: C251 V5.60.0
  .\out_file\motor.obj (motor)
         COMMENT TYPE 0: C251 V5.60.0
  .\out_file\rocker.obj (rocker)
         COMMENT TYPE 0: C251 V5.60.0
  .\out_file\GPS.obj (GPS)
         COMMENT TYPE 0: C251 V5.60.0
  .\out_file\CCD.obj (CCD)
         COMMENT TYPE 0: C251 V5.60.0
  .\out_file\menu.obj (menu)
         COMMENT TYPE 0: C251 V5.60.0
  .\out_file\control.obj (control)
         COMMENT TYPE 0: C251 V5.60.0
  .\out_file\time.obj (time)
         COMMENT TYPE 0: C251 V5.60.0
  .\out_file\encoder.obj (encoder)
         COMMENT TYPE 0: C251 V5.60.0
  .\out_file\valuepack.obj (valuepack)
         COMMENT TYPE 0: C251 V5.60.0
  .\out_file\imu660.obj (imu660)
         COMMENT TYPE 0: C251 V5.60.0
  D:\KEIL_V5\C251\LIB\C2SDPL.LIB (?C?DPADD)
         COMMENT TYPE 0: A251 V4.69.6.0
  D:\KEIL_V5\C251\LIB\C2SDPL.LIB (?C?DPMUL)
         COMMENT TYPE 0: A251 V4.69.6.0
  D:\KEIL_V5\C251\LIB\C2SDPL.LIB (?C?DPDIV)
         COMMENT TYPE 0: A251 V4.69.6.0
  D:\KEIL_V5\C251\LIB\C2SDPL.LIB (?C?DPCMP)
L251 LINKER/LOCATER V4.66.93.0                                                        02/28/2025  00:29:39  PAGE 3


         COMMENT TYPE 0: A251 V4.69.6.0
  D:\KEIL_V5\C251\LIB\C2SDPL.LIB (?C?DPNEG)
         COMMENT TYPE 0: A251 V4.69.6.0
  D:\KEIL_V5\C251\LIB\C2SDPL.LIB (?C?DCAST)
         COMMENT TYPE 0: A251 V4.69.6.0
  D:\KEIL_V5\C251\LIB\C2SDPL.LIB (?C?CASTD)
         COMMENT TYPE 0: A251 V4.69.6.0
  D:\KEIL_V5\C251\LIB\C2SDPL.LIB (?C?DCASTF)
         COMMENT TYPE 0: A251 V4.69.6.0
  D:\KEIL_V5\C251\LIB\C2SDPL.LIB (?C?FCASTD)
         COMMENT TYPE 0: A251 V4.69.6.0
  D:\KEIL_V5\C251\LIB\C2SDPL.LIB (PRINTF)
         COMMENT TYPE 0: A251 V4.69.6.0
  D:\KEIL_V5\C251\LIB\C2SDPL.LIB (SQRT?_)
         COMMENT TYPE 0: A251 V4.69.6.0
  D:\KEIL_V5\C251\LIB\C2SDPL.LIB (pow)
         COMMENT TYPE 0: C251 V5.58.7
  D:\KEIL_V5\C251\LIB\C2SDPL.LIB (SIN?_)
         COMMENT TYPE 0: A251 V4.69.6.0
  D:\KEIL_V5\C251\LIB\C2SDPL.LIB (ATAN?_)
         COMMENT TYPE 0: A251 V4.69.6.0
  D:\KEIL_V5\C251\LIB\C2SDPL.LIB (ASIN?_)
         COMMENT TYPE 0: A251 V4.69.6.0
  D:\KEIL_V5\C251\LIB\C2SDPL.LIB (?C?DPGETOPN)
         COMMENT TYPE 0: A251 V4.69.6.0
  D:\KEIL_V5\C251\LIB\C2SDPL.LIB (_CHKDOUBLE_?_)
         COMMENT TYPE 0: A251 V4.69.6.0
  D:\KEIL_V5\C251\LIB\C2SDPL.LIB (?C?PRNFMT)
         COMMENT TYPE 0: A251 V4.69.6.0
  D:\KEIL_V5\C251\LIB\C2SDPL.LIB (?C?DPSERIES)
         COMMENT TYPE 0: A251 V4.69.6.0
  D:\KEIL_V5\C251\LIB\C2SDPL.LIB (EXP?_)
         COMMENT TYPE 0: A251 V4.69.6.0
  D:\KEIL_V5\C251\LIB\C2SDPL.LIB (LOG?_)
         COMMENT TYPE 0: A251 V4.69.6.0
  D:\KEIL_V5\C251\LIB\C2SDPL.LIB (?C?DPCONVERT)
         COMMENT TYPE 0: A251 V4.69.6.0
  D:\KEIL_V5\C251\LIB\C2SDPL.LIB (?C?DTNPWR)
         COMMENT TYPE 0: A251 V4.69.6.0
  D:\KEIL_V5\C251\LIB\C2SFPL.LIB (?C?FPGETOPN)
         COMMENT TYPE 0: A251 V4.69.6.0
  D:\KEIL_V5\C251\LIB\C2SFPL.LIB (?C?FPADD)
         COMMENT TYPE 0: A251 V4.69.6.0
  D:\KEIL_V5\C251\LIB\C2SFPL.LIB (?C?FPMUL)
         COMMENT TYPE 0: A251 V4.69.6.0
  D:\KEIL_V5\C251\LIB\C2SFPL.LIB (?C?FPDIV)
         COMMENT TYPE 0: A251 V4.69.6.0
  D:\KEIL_V5\C251\LIB\C2SFPL.LIB (?C?FPCMP)
         COMMENT TYPE 0: A251 V4.69.6.0
  D:\KEIL_V5\C251\LIB\C2SFPL.LIB (?C?FPNEG)
         COMMENT TYPE 0: A251 V4.69.6.0
  D:\KEIL_V5\C251\LIB\C2SFPL.LIB (?C?FCAST)
         COMMENT TYPE 0: A251 V4.69.6.0
  D:\KEIL_V5\C251\LIB\C2SFPL.LIB (?C?CASTF)
         COMMENT TYPE 0: A251 V4.69.6.0
  D:\KEIL_V5\C251\LIB\C2SL.LIB (?C_START)
         COMMENT TYPE 0: A251 V4.69.6.0
  D:\KEIL_V5\C251\LIB\C2SL.LIB (?C?INITHDATA)
         COMMENT TYPE 0: A251 V4.69.6.0
  D:\KEIL_V5\C251\LIB\C2SL.LIB (?C?SIDIV)
         COMMENT TYPE 0: A251 V4.69.6.0
  D:\KEIL_V5\C251\LIB\C2SL.LIB (?C?LMUL)
         COMMENT TYPE 0: A251 V4.69.6.0
  D:\KEIL_V5\C251\LIB\C2SL.LIB (?C?LIMUL)
         COMMENT TYPE 0: A251 V4.69.6.0
L251 LINKER/LOCATER V4.66.93.0                                                        02/28/2025  00:29:39  PAGE 4


  D:\KEIL_V5\C251\LIB\C2SL.LIB (?C?ULDIV)
         COMMENT TYPE 0: A251 V4.69.6.0
  D:\KEIL_V5\C251\LIB\C2SL.LIB (?C?SLDIV)
         COMMENT TYPE 0: A251 V4.69.6.0
  D:\KEIL_V5\C251\LIB\C2SL.LIB (?C?BMOVEPP)
         COMMENT TYPE 0: A251 V4.69.6.0
  D:\KEIL_V5\C251\LIB\C2SL.LIB (STRNCMP)
         COMMENT TYPE 0: C251 V5.58.7
  D:\KEIL_V5\C251\LIB\C2SL.LIB (STRNCPY)
         COMMENT TYPE 0: C251 V5.58.7
  D:\KEIL_V5\C251\LIB\C2SL.LIB (STRLEN)
         COMMENT TYPE 0: C251 V5.58.7
  D:\KEIL_V5\C251\LIB\C2SL.LIB (STRCHR)
         COMMENT TYPE 0: C251 V5.58.7
  D:\KEIL_V5\C251\LIB\C2SL.LIB (memcpy)
         COMMENT TYPE 0: C251 V5.58.7
  D:\KEIL_V5\C251\LIB\C2SL.LIB (memset)
         COMMENT TYPE 0: C251 V5.58.7
  D:\KEIL_V5\C251\LIB\C2SL.LIB (malloc)
         COMMENT TYPE 0: C251 V5.58.7
  D:\KEIL_V5\C251\LIB\C2SL.LIB (free)
         COMMENT TYPE 0: C251 V5.58.7
  D:\KEIL_V5\C251\LIB\C2SL.LIB (?C?INITHDATA_END)
         COMMENT TYPE 0: A251 V4.69.6.0
  D:\KEIL_V5\C251\LIB\C2SL.LIB (mdefine)
         COMMENT TYPE 0: C251 V5.58.7


ACTIVE MEMORY CLASSES OF MODULE:  .\out_file\SEEKFREE (ai8051u_isr)

BASE        START       END         USED      MEMORY CLASS
==========================================================
000000H     000000H     0007FFH     000100H   EDATA
000000H     000000H     0007FFH     000004H   HDATA
FF0000H     FF0000H     FFFFFFH     009854H   CODE
010000H     010000H     01FFFFH     000E97H   XDATA
000000H     FF0000H     FFFFFFH     000DA8H   HCONST
000020H.0   000020H.0   00002FH.7             BIT
FF0000H     FF0000H     FFFFFFH     000004H   CONST
000000H     000000H     00007FH     000008H   DATA


MEMORY MAP OF MODULE:  .\out_file\SEEKFREE (ai8051u_isr)


START     STOP      LENGTH    ALIGN  RELOC    MEMORY CLASS   SEGMENT NAME
=========================================================================
000000H   000007H   000008H   ---    AT..     DATA           "REG BANK 0"
000008H   000107H   000100H   BYTE   UNIT     EDATA          ?STACK
000108H   00010BH   000004H   BYTE   INSEG    HDATA          ?FD?MDEFINE
00010CH   00FFFFH   00FEF4H   ---    ---      **GAP**
010000H   010427H   000428H   BYTE   INSEG    XDATA          ?XD?VALUEPACK
010428H   010629H   000202H   BYTE   INSEG    XDATA          ?XD?ZF_DEVICE_TSL1401
01062AH   0107F9H   0001D0H   BYTE   INSEG    XDATA          ?XD?ZF_DEVICE_GPS_TAU1201
0107FAH   01097DH   000184H   BYTE   INSEG    XDATA          ?XD?CCD
01097EH   010ABAH   00013DH   BYTE   INSEG    XDATA          ?XD?SEEKFREE_ASSISTANT
010ABBH   010B6EH   0000B4H   BYTE   UNIT     XDATA          _XDATA_GROUP_
010B6FH   010BC7H   000059H   BYTE   INSEG    XDATA          ?XD?ZF_COMMON_DEBUG
010BC8H   010C1EH   000057H   BYTE   INSEG    XDATA          ?XD?ZF_DEVICE_BLE6A20
010C1FH   010C75H   000057H   BYTE   INSEG    XDATA          ?XD?ZF_DEVICE_WIRELESS_UART
010C76H   010CA9H   000034H   BYTE   INSEG    XDATA          ?XD?SYS
010CAAH   010CDDH   000034H   BYTE   INSEG    XDATA          ?XD?IMU660
010CDEH   010D02H   000025H   BYTE   UNIT     XDATA          ?XD?GPS_GNRMC_PARSE?ZF_DEVICE_GPS_TAU1201
010D03H   010D20H   00001EH   BYTE   INSEG    XDATA          ?XD?ZF_COMMON_TYPEDEF
010D21H   010D3EH   00001EH   BYTE   INSEG    XDATA          ?XD?ZF_DEVICE_IMU963RA
L251 LINKER/LOCATER V4.66.93.0                                                        02/28/2025  00:29:39  PAGE 5


010D3FH   010D57H   000019H   BYTE   UNIT     XDATA          ?XD?FUNC_STR_TO_DOUBLE?ZF_COMMON_FUNCTION
010D58H   010D6CH   000015H   BYTE   INSEG    XDATA          ?XD?ZF_DEVICE_MPU6050
010D6DH   010D80H   000014H   BYTE   INSEG    XDATA          ?XD?ZF_DEVICE_ICM20602
010D81H   010D94H   000014H   BYTE   INSEG    XDATA          ?XD?ZF_DEVICE_IMU660RA
010D95H   010DA5H   000011H   BYTE   INSEG    XDATA          ?XD?ENCODER
010DA6H   010DB5H   000010H   BYTE   UNIT     XDATA          ?XD?GET_FLOAT_NUMBER?ZF_DEVICE_GPS_TAU1201
010DB6H   010DC5H   000010H   BYTE   UNIT     XDATA          ?XD?GET_DOUBLE_NUMBER?ZF_DEVICE_GPS_TAU1201
010DC6H   010DD2H   00000DH   BYTE   INSEG    XDATA          ?XD?ZF_DEVICE_DL1A
010DD3H   010DDEH   00000CH   BYTE   INSEG    XDATA          ?XD?ZF_DRIVER_TIMER
010DDFH   010DEAH   00000CH   BYTE   INSEG    XDATA          ?XD?ZF_DRIVER_UART
010DEBH   010DF6H   00000CH   BYTE   INSEG    XDATA          ?XD?TIME
010DF7H   010E01H   00000BH   BYTE   UNIT     XDATA          ?XD?GET_INT_NUMBER?ZF_DEVICE_GPS_TAU1201
010E02H   010E0CH   00000BH   BYTE   INSEG    XDATA          ?XD?ROCKER
010E0DH   010E16H   00000AH   BYTE   INSEG    XDATA          ?XD?ZF_DEVICE_IPS200
010E17H   010E20H   00000AH   BYTE   UNIT     XDATA          ?XD?SEEKFREE_ASSISTANT_CAMERA_DATA_SEND?SEEKFREE_ASSISTANT
010E21H   010E2AH   00000AH   BYTE   INSEG    XDATA          ?XD?MOTOR
010E2BH   010E33H   000009H   BYTE   UNIT     XDATA          ?XD?SOFT_IIC_READ_8BIT_REGISTERS?ZF_DRIVER_SOFT_IIC
010E34H   010E3CH   000009H   BYTE   UNIT     XDATA          ?XD?GPS_GNGGA_PARSE?ZF_DEVICE_GPS_TAU1201
010E3DH   010E44H   000008H   BYTE   UNIT     XDATA          ?XD?SOFT_IIC_DELAY?ZF_DRIVER_SOFT_IIC
010E45H   010E4CH   000008H   BYTE   UNIT     XDATA          ?XD?SOFT_IIC_WRITE_8BIT_ARRAY?ZF_DRIVER_SOFT_IIC
010E4DH   010E54H   000008H   BYTE   INSEG    XDATA          ?XD?ZF_DEVICE_TYPE
010E55H   010E5CH   000008H   BYTE   INSEG    XDATA          ?XD?ZF_DEVICE_TFT180
010E5DH   010E64H   000008H   BYTE   INSEG    XDATA          ?XD?ZF_DEVICE_IPS114
010E65H   010E6CH   000008H   BYTE   UNIT     XDATA          ?XD?DL1A_GET_SEQUENCE_STEP_TIMEOUTS?ZF_DEVICE_DL1A
010E6DH   010E72H   000006H   BYTE   INSEG    XDATA          ?XD?ZF_DRIVER_ENCODER
010E73H   010E76H   000004H   BYTE   INSEG    XDATA          ?XD?ZF_COMMON_CLOCK
010E77H   010E7AH   000004H   BYTE   INSEG    XDATA          ?XD?ZF_DRIVER_DELAY
010E7BH   010E7EH   000004H   BYTE   UNIT     XDATA          ?XD?TFT180_SET_REGION?ZF_DEVICE_TFT180
010E7FH   010E82H   000004H   BYTE   INSEG    XDATA          ?XD?SEEKFREE_ASSISTANT_INTERFACE
010E83H   010E85H   000003H   BYTE   UNIT     XDATA          ?XD?SOFT_IIC_READ_DATA?ZF_DRIVER_SOFT_IIC
010E86H   010E88H   000003H   BYTE   UNIT     XDATA          ?XD?GET_PARAMETER_INDEX?ZF_DEVICE_GPS_TAU1201
010E89H   010E8BH   000003H   BYTE   UNIT     XDATA          ?XD?SEEKFREE_ASSISTANT_CAMERA_DOT_SEND?SEEKFREE_ASSISTANT
010E8CH   010E8DH   000002H   BYTE   UNIT     XDATA          ?XD?SOFT_IIC_SEND_DATA?ZF_DRIVER_SOFT_IIC
010E8EH   010E8FH   000002H   BYTE   UNIT     XDATA          ?XD?SOFT_IIC_WRITE_8BIT_REGISTER?ZF_DRIVER_SOFT_IIC
010E90H   010E90H   000001H   BYTE   INSEG    XDATA          ?XD?ZF_DRIVER_ADC
010E91H   010E91H   000001H   BYTE   UNIT     XDATA          ?XD?SOFT_IIC_SEND_ACK?ZF_DRIVER_SOFT_IIC
010E92H   010E92H   000001H   BYTE   UNIT     XDATA          ?XD?SOFT_IIC_WAIT_ACK?ZF_DRIVER_SOFT_IIC
010E93H   010E93H   000001H   BYTE   UNIT     XDATA          ?XD?DL1A_GET_SEQUENCE_STEP_ENABLES?ZF_DEVICE_DL1A
010E94H   010E94H   000001H   BYTE   UNIT     XDATA          ?XD?DL1A_GET_VCSEL_PULSE_PERIOD?ZF_DEVICE_DL1A
010E95H   010E95H   000001H   BYTE   INSEG    XDATA          ?XD?ISR
010E96H   010E96H   000001H   BYTE   INSEG    XDATA          ?XD?MENU
010E97H   FEFFFFH   FDF169H   ---    ---      **GAP**
FF0000H   FF0002H   000003H   ---    OFFS..   CODE           ?CO?start251?4
FF0003H   FF0009H   000007H   BYTE   INSEG    CODE           ?PR?IPS200_SET_DIR?ZF_DEVICE_IPS200
FF000AH   FF000AH   000001H   ---    ---      **GAP**
FF000BH   FF000DH   000003H   ---    OFFS..   CODE           ?PR?IV?1
FF000EH   FF001AH   00000DH   BYTE   INSEG    CODE           ?PR?IPS200_SET_COLOR?ZF_DEVICE_IPS200
FF001BH   FF001DH   000003H   ---    OFFS..   CODE           ?PR?IV?3
FF001EH   FF0020H   000003H   BYTE   INSEG    CODE           ?PR?INTERRUPT_GLOBAL_ENABLE?ZF_COMMON_INTERRUPT
FF0021H   FF0022H   000002H   ---    ---      **GAP**
FF0023H   FF0025H   000003H   ---    OFFS..   CODE           ?PR?IV?4
FF0026H   FF003FH   00001AH   BYTE   INSEG    CODE           ?PR?INTERRUPT_SOLUTION?TIME
FF0040H   FF0042H   000003H   BYTE   INSEG    CODE           ?PR?SPI_WRITE_8BIT?ZF_DRIVER_SPI
FF0043H   FF0045H   000003H   ---    OFFS..   CODE           ?PR?IV?8
FF0046H   FF005FH   00001AH   BYTE   INSEG    CODE           ?PR?MEMSET?_?MEMSET
FF0060H   FF0062H   000003H   ---    ---      **GAP**
FF0063H   FF0065H   000003H   ---    OFFS..   CODE           ?PR?IV?12
FF0066H   FF008AH   000025H   BYTE   INSEG    CODE           ?PR?IMU660RA_WRITE_REGISTER?ZF_DEVICE_IMU660RA
FF008BH   FF008DH   000003H   ---    OFFS..   CODE           ?PR?IV?17
FF008EH   FF0091H   000004H   BYTE   UNIT     CONST          ?CO?PRINTF
FF0092H   FF0092H   000001H   ---    ---      **GAP**
FF0093H   FF0095H   000003H   ---    OFFS..   CODE           ?PR?IV?18
FF0096H   FF0099H   000004H   BYTE   UNIT     HCONST         ?HC?VALUEPACK
FF009AH   FF009AH   000001H   ---    ---      **GAP**
FF009BH   FF009DH   000003H   ---    OFFS..   CODE           ?PR?IV?19
L251 LINKER/LOCATER V4.66.93.0                                                        02/28/2025  00:29:39  PAGE 6


FF009EH   FF00A2H   000005H   ---    ---      **GAP**
FF00A3H   FF00A5H   000003H   ---    OFFS..   CODE           ?PR?IV?20
FF00A6H   FF00BCH   000017H   BYTE   INSEG    CODE           ?PR?SPI_WRITE_8BIT_REGISTER?ZF_DRIVER_SPI
FF00BDH   FF00C2H   000006H   BYTE   UNIT     HCONST         ?HC?ZF_DEVICE_TFT180
FF00C3H   FF00C5H   000003H   ---    OFFS..   CODE           ?PR?IV?24
FF00C6H   FF018FH   0000CAH   BYTE   INSEG    CODE           ?PR?SEEKFREE_ASSISTANT_CAMERA_DOT_SEND?SEEKFREE_ASSISTANT
FF0190H   FF019AH   00000BH   BYTE   INSEG    CODE           ?PR?EEPROM_TRIG?ZF_DRIVER_EEPROM
FF019BH   FF019DH   000003H   ---    OFFS..   CODE           ?CO?ai8051u_isr?1
FF019EH   FF01AAH   00000DH   BYTE   INSEG    CODE           ?PR?ENCODER_INIT?ENCODER
FF01ABH   FF01ADH   000003H   ---    OFFS..   CODE           ?CO?ai8051u_isr?2
FF01AEH   FF01B4H   000007H   BYTE   UNIT     HCONST         ?HC?IMU660
FF01B5H   FF01BAH   000006H   BYTE   UNIT     HCONST         ?HC?ZF_DEVICE_IPS114
FF01BBH   FF01BDH   000003H   ---    OFFS..   CODE           ?CO?ai8051u_isr?3
FF01BEH   FF01C3H   000006H   BYTE   UNIT     HCONST         ?HC?ZF_DEVICE_IPS200
FF01C4H   FF01CAH   000007H   ---    ---      **GAP**
FF01CBH   FF01CDH   000003H   ---    OFFS..   CODE           ?CO?ai8051u_isr?4
FF01CEH   FF021AH   00004DH   BYTE   INSEG    CODE           ?PR?FIFO_INIT?ZF_COMMON_FIFO
FF021BH   FF021DH   000003H   ---    OFFS..   CODE           ?CO?ai8051u_isr?5
FF021EH   FF221DH   002000H   BYTE   UNIT     CODE           ?CO?ZF_DEVICE_CONFIG
FF221EH   FF391FH   001702H   BYTE   UNIT     CODE           ?C?LIB_CODE
FF3920H   FF4413H   000AF4H   BYTE   UNIT     CODE           ?CO?ZF_COMMON_FONT
FF4414H   FF4AE0H   0006CDH   BYTE   INSEG    CODE           ?PR?ZF_SPRINTF?ZF_COMMON_FUNCTION
FF4AE1H   FF4E98H   0003B8H   BYTE   INSEG    CODE           ?PR?GPS_GNRMC_PARSE?ZF_DEVICE_GPS_TAU1201
FF4E99H   FF5245H   0003ADH   BYTE   INSEG    CODE           ?PR?PWM_INIT?ZF_DRIVER_PWM
FF5246H   FF55E8H   0003A3H   BYTE   INSEG    CODE           ?PR?SPI_INIT?ZF_DRIVER_SPI
FF55E9H   FF590BH   000323H   BYTE   INSEG    CODE           ?PR?FIFO_READ_BUFFER?ZF_COMMON_FIFO
FF590CH   FF5C12H   000307H   BYTE   INSEG    CODE           ?PR?FIFO_WRITE_BUFFER?ZF_COMMON_FIFO
FF5C13H   FF5EBFH   0002ADH   BYTE   INSEG    CODE           ?PR?GPS_INIT?ZF_DEVICE_GPS_TAU1201
FF5EC0H   FF6137H   000278H   BYTE   INSEG    CODE           ?PR?GPIO_SET_DIR?ZF_DRIVER_GPIO
FF6138H   FF635AH   000223H   BYTE   INSEG    CODE           ?PR?IPS200_INIT?ZF_DEVICE_IPS200
FF635BH   FF6575H   00021BH   BYTE   INSEG    CODE           ?PR?FUNC_STR_TO_DOUBLE?ZF_COMMON_FUNCTION
FF6576H   FF6762H   0001EDH   BYTE   INSEG    CODE           ?PR?MENU_DISPLAY?MENU
FF6763H   FF691FH   0001BDH   BYTE   INSEG    CODE           ?PR?GPIO_SET_LEVEL_SPEED?ZF_DRIVER_GPIO
FF6920H   FF6ADCH   0001BDH   BYTE   INSEG    CODE           ?PR?PIT_INIT?ZF_DRIVER_PIT
FF6ADDH   FF6C78H   00019CH   BYTE   INSEG    CODE           ?PR?UART_INIT?ZF_DRIVER_UART
FF6C79H   FF6DF9H   000181H   BYTE   INSEG    CODE           ?PR?GPS_UART_CALLBACK?ZF_DEVICE_GPS_TAU1201
FF6DFAH   FF6F6FH   000176H   BYTE   INSEG    CODE           ?PR?GPIO_SET_MODE?ZF_DRIVER_GPIO
FF6F70H   FF70C9H   00015AH   BYTE   INSEG    CODE           ?PR?IPS200_SHOW_FLOAT?ZF_DEVICE_IPS200
FF70CAH   FF7218H   00014FH   BYTE   INSEG    CODE           ?PR?GPIO_SET_LEVEL?ZF_DRIVER_GPIO
FF7219H   FF7340H   000128H   BYTE   INSEG    CODE           ?PR?DL1A_GET_SEQUENCE_STEP_TIMEOUTS?ZF_DEVICE_DL1A
FF7341H   FF743FH   0000FFH   BYTE   INSEG    CODE           ?PR?IMU660RA_INIT?ZF_DEVICE_IMU660RA
FF7440H   FF7537H   0000F8H   BYTE   INSEG    CODE           ?PR?SEEKFREE_ASSISTANT_CAMERA_DATA_SEND?SEEKFREE_ASSISTANT
FF7538H   FF7620H   0000E9H   BYTE   INSEG    CODE           ?PR?GET_YAW_DATA?IMU660
FF7621H   FF76FBH   0000DBH   BYTE   INSEG    CODE           ?PR?ROCKER_READ?ROCKER
FF76FCH   FF77D2H   0000D7H   BYTE   INSEG    CODE           ?PR?PIT_HANDLER?TIME
FF77D3H   FF789BH   0000C9H   BYTE   INSEG    CODE           ?PR?GPIO_GET_LEVEL?ZF_DRIVER_GPIO
FF789CH   FF7962H   0000C7H   BYTE   INSEG    CODE           ?PR?CLOCK_INIT?ZF_COMMON_CLOCK
FF7963H   FF7A27H   0000C5H   BYTE   INSEG    CODE           ?PR?GPS_GNGGA_PARSE?ZF_DEVICE_GPS_TAU1201
FF7A28H   FF7AE7H   0000C0H   BYTE   INSEG    CODE           ?PR?GPIO_SET_IMPEDANCE?ZF_DRIVER_GPIO
FF7AE8H   FF7B9EH   0000B7H   BYTE   INSEG    CODE           ?PR?UART_DMA_INIT?ZF_DRIVER_UART
FF7B9FH   FF7C4EH   0000B0H   BYTE   INSEG    CODE           ?PR?ENCODER_DIR_INIT?ZF_DRIVER_ENCODER
FF7C4FH   FF7CFEH   0000B0H   BYTE   INSEG    CODE           ?PR?UTC_TO_BTC?ZF_DEVICE_GPS_TAU1201
FF7CFFH   FF7DACH   0000AEH   BYTE   INSEG    CODE           ?PR?ENCODER_GET?ENCODER
FF7DADH   FF7E4FH   0000A3H   BYTE   INSEG    CODE           ?PR?FUNC_STR_TO_HEX?ZF_COMMON_FUNCTION
FF7E50H   FF7EECH   00009DH   BYTE   INSEG    CODE           ?PR?UART_WRITE_BUFFER?ZF_DRIVER_UART
FF7EEDH   FF7F86H   00009AH   BYTE   INSEG    CODE           ?PR?SOFT_IIC_READ_DATA?ZF_DRIVER_SOFT_IIC
FF7F87H   FF801DH   000097H   BYTE   INSEG    CODE           ?PR?DMA_UART1_IRQHANDLER?ISR
FF801EH   FF80B3H   000096H   BYTE   INSEG    CODE           ?PR?IMU660RA_READ_REGISTERS?ZF_DEVICE_IMU660RA
FF80B4H   FF8148H   000095H   BYTE   INSEG    CODE           ?PR?TFT180_SET_REGION?ZF_DEVICE_TFT180
FF8149H   FF81DCH   000094H   BYTE   INSEG    CODE           ?PR?IPS200_MYCLEAR?ZF_DEVICE_IPS200
FF81DDH   FF826BH   00008FH   BYTE   INSEG    CODE           ?PR?ENCODER_GET_COUNT?ZF_DRIVER_ENCODER
FF826CH   FF82FAH   00008FH   BYTE   INSEG    CODE           ?PR?SOFT_IIC_READ_8BIT_REGISTERS?ZF_DRIVER_SOFT_IIC
FF82FBH   FF8388H   00008EH   BYTE   INSEG    CODE           ?PR?IPS200_SHOW_CHAR?ZF_DEVICE_IPS200
FF8389H   FF8412H   00008AH   BYTE   INSEG    CODE           ?PR?NUMBER_CONVERSION_ASCII?ZF_COMMON_FUNCTION
FF8413H   FF849CH   00008AH   BYTE   INSEG    CODE           ?PR?MOTOR_INIT?MOTOR
L251 LINKER/LOCATER V4.66.93.0                                                        02/28/2025  00:29:39  PAGE 7


FF849DH   FF851FH   000083H   BYTE   INSEG    CODE           ?PR?FIFO_CLEAR?ZF_COMMON_FIFO
FF8520H   FF85A2H   000083H   BYTE   INSEG    CODE           ?PR?ENCODER_CLEAR_COUNT?ZF_DRIVER_ENCODER
FF85A3H   FF861BH   000079H   BYTE   INSEG    CODE           ?PR?DMA_UART2_IRQHANDLER?ISR
FF861CH   FF8694H   000079H   BYTE   INSEG    CODE           ?PR?DMA_UART3_IRQHANDLER?ISR
FF8695H   FF870DH   000079H   BYTE   INSEG    CODE           ?PR?DMA_UART4_IRQHANDLER?ISR
FF870EH   FF8785H   000078H   BYTE   INSEG    CODE           ?PR?DL1A_GET_VCSEL_PULSE_PERIOD?ZF_DEVICE_DL1A
FF8786H   FF87F7H   000072H   BYTE   INSEG    CODE           ?PR?SOFT_IIC_SEND_DATA?ZF_DRIVER_SOFT_IIC
FF87F8H   FF8868H   000071H   BYTE   INSEG    CODE           ?PR?GET_PARAMETER_INDEX?ZF_DEVICE_GPS_TAU1201
FF8869H   FF88D4H   00006CH   BYTE   INSEG    CODE           ?PR?GPIO_INIT?ZF_DRIVER_GPIO
FF88D5H   FF893AH   000066H   BYTE   INSEG    CODE           ?PR?DL1A_GET_SEQUENCE_STEP_ENABLES?ZF_DEVICE_DL1A
FF893BH   FF899BH   000061H   BYTE   INSEG    CODE           ?PR?ADC_INIT?ZF_DRIVER_ADC
FF899CH   FF89FBH   000060H   BYTE   INSEG    CODE           ?PR?UART_RX_START_BUFF?ZF_DRIVER_UART
FF89FCH   FF8A59H   00005EH   BYTE   INSEG    CODE           ?PR?DEBUG_INIT?ZF_COMMON_DEBUG
FF8A5AH   FF8AB7H   00005EH   BYTE   INSEG    CODE           ?PR?SOFT_IIC_WAIT_ACK?ZF_DRIVER_SOFT_IIC
FF8AB8H   FF8B11H   00005AH   BYTE   INSEG    CODE           ?PR?IPS200_SHOW_STRING?ZF_DEVICE_IPS200
FF8B12H   FF8B69H   000058H   BYTE   INSEG    CODE           ?PR?FUNC_STR_TO_INT?ZF_COMMON_FUNCTION
FF8B6AH   FF8BC0H   000057H   BYTE   INSEG    CODE           ?PR?SOFT_IIC_WRITE_8BIT_ARRAY?ZF_DRIVER_SOFT_IIC
FF8BC1H   FF8C17H   000057H   BYTE   INSEG    CODE           ?PR?IPS200_CLEAR?ZF_DEVICE_IPS200
FF8C18H   FF8C6DH   000056H   BYTE   INSEG    CODE           ?PR?SOFT_IIC_SEND_ACK?ZF_DRIVER_SOFT_IIC
FF8C6EH   FF8CBFH   000052H   BYTE   INSEG    CODE           ?PR?IMU963RA_READ_MAG_REGISTER?ZF_DEVICE_IMU963RA
FF8CC0H   FF8D11H   000052H   BYTE   INSEG    CODE           ?PR?GET_FLOAT_NUMBER?ZF_DEVICE_GPS_TAU1201
FF8D12H   FF8D62H   000051H   BYTE   INSEG    CODE           ?PR?SYSTEM_DELAY_MS?ZF_DRIVER_DELAY
FF8D63H   FF8DB2H   000050H   BYTE   INSEG    CODE           ?PR?IMU660RA_GET_GYRO?ZF_DEVICE_IMU660RA
FF8DB3H   FF8E01H   00004FH   BYTE   INSEG    CODE           ?PR?SYSTEM_DELAY_INIT?ZF_DRIVER_DELAY
FF8E02H   FF8E50H   00004FH   BYTE   INSEG    CODE           ?PR?GET_DOUBLE_NUMBER?ZF_DEVICE_GPS_TAU1201
FF8E51H   FF8E9FH   00004FH   BYTE   INSEG    CODE           ?PR?GET_INT_NUMBER?ZF_DEVICE_GPS_TAU1201
FF8EA0H   FF8EEAH   00004BH   BYTE   INSEG    CODE           ?PR?TM11_IRQHANDLER?ISR
FF8EEBH   FF8F33H   000049H   BYTE   INSEG    CODE           ?PR?UART_QUERY_BYTE?ZF_DRIVER_UART
FF8F34H   FF8F7BH   000048H   BYTE   INSEG    CODE           ?PR?SOFT_IIC_STOP?ZF_DRIVER_SOFT_IIC
FF8F7CH   FF8FC3H   000048H   BYTE   INSEG    CODE           ?PR?IPS200_SET_REGION?ZF_DEVICE_IPS200
FF8FC4H   FF8FD6H   000013H   BYTE   UNIT     CODE           ?C_C51STARTUP
FF8FD7H   FF9007H   000031H   BYTE   UNIT     CODE           ?C_C51STARTUP?2
FF9008H   FF900AH   000003H   BYTE   UNIT     CODE           ?C_C51STARTUP?3
FF900BH   FF9050H   000046H   BYTE   INSEG    CODE           ?PR?FIFO_HEAD_OFFSET?ZF_COMMON_FIFO
FF9051H   FF9096H   000046H   BYTE   INSEG    CODE           ?PR?FIFO_END_OFFSET?ZF_COMMON_FIFO
FF9097H   FF90DBH   000045H   BYTE   INSEG    CODE           ?PR?IMU660RA_WRITE_REGISTERS?ZF_DEVICE_IMU660RA
FF90DCH   FF911BH   000040H   BYTE   INSEG    CODE           ?PR?SPI_READ_8BIT_REGISTERS?ZF_DRIVER_SPI
FF911CH   FF915BH   000040H   BYTE   INSEG    CODE           ?PR?SPI_READ_DAT?ZF_DRIVER_SPI
FF915CH   FF919AH   00003FH   BYTE   INSEG    CODE           ?PR?IMU660RA_SELF_CHECK?ZF_DEVICE_IMU660RA
FF919BH   FF91D8H   00003EH   BYTE   INSEG    CODE           ?PR?PRINTF_REVERSE_ORDER?ZF_COMMON_FUNCTION
FF91D9H   FF9216H   00003EH   BYTE   INSEG    CODE           ?PR?DL1A_TIMEOUT_MCLKS_TO_MICROSECONDS?ZF_DEVICE_DL1A
FF9217H   FF9254H   00003EH   BYTE   INSEG    CODE           ?PR?TM0_IRQHANDLER?ISR
FF9255H   FF9292H   00003EH   BYTE   INSEG    CODE           ?PR?TM1_IRQHANDLER?ISR
FF9293H   FF92D0H   00003EH   BYTE   INSEG    CODE           ?PR?TM2_IRQHANDLER?ISR
FF92D1H   FF930EH   00003EH   BYTE   INSEG    CODE           ?PR?TM3_IRQHANDLER?ISR
FF930FH   FF934CH   00003EH   BYTE   INSEG    CODE           ?PR?TM4_IRQHANDLER?ISR
FF934DH   FF9389H   00003DH   BYTE   INSEG    CODE           ?PR?SOFT_IIC_START?ZF_DRIVER_SOFT_IIC
FF938AH   FF93C5H   00003CH   BYTE   INSEG    CODE           ?PR?SPI_WRITE_8BIT_REGISTERS?ZF_DRIVER_SPI
FF93C6H   FF9401H   00003CH   BYTE   INSEG    CODE           ?PR?UART_RX_INTERRUPT?ZF_DRIVER_UART
FF9402H   FF943DH   00003CH   BYTE   INSEG    CODE           ?PR?DL1A_TIMEOUT_MICROSECONDS_TO_MCLKS?ZF_DEVICE_DL1A
FF943EH   FF9479H   00003CH   BYTE   INSEG    CODE           ?PR?TSL1401_INIT?ZF_DEVICE_TSL1401
FF947AH   FF94B4H   00003BH   BYTE   INSEG    CODE           ?PR?DEBUG_INTERRUPR_HANDLER?ZF_COMMON_DEBUG
FF94B5H   FF94EEH   00003AH   BYTE   INSEG    CODE           ?PR?SET_GPS_TYPE?ZF_DEVICE_TYPE
FF94EFH   FF9527H   000039H   BYTE   INSEG    CODE           ?PR?IMU660RA_READ_REGISTER?ZF_DEVICE_IMU660RA
FF9528H   FF955FH   000038H   BYTE   INSEG    CODE           ?PR?SOFT_IIC_DELAY?ZF_DRIVER_SOFT_IIC
FF9560H   FF9596H   000037H   BYTE   INSEG    CODE           ?PR?STRNCMP?_?STRNCMP
FF9597H   FF95CCH   000036H   BYTE   INSEG    CODE           ?PR?SOFT_IIC_WRITE_8BIT_REGISTER?ZF_DRIVER_SOFT_IIC
FF95CDH   FF9600H   000034H   BYTE   INSEG    CODE           ?PR?DL1A_ENCODE_TIMEOUT?ZF_DEVICE_DL1A
FF9601H   FF9630H   000030H   BYTE   INSEG    CODE           ?PR?ADC_CONVERT?ZF_DRIVER_ADC
FF9631H   FF9660H   000030H   BYTE   INSEG    CODE           ?PR?STRNCPY?_?STRNCPY
FF9661H   FF968FH   00002FH   BYTE   INSEG    CODE           ?PR?TIMER_INIT?TIME
FF9690H   FF96BDH   00002EH   BYTE   INSEG    CODE           ?PR?SPI_WRITE_DAT?ZF_DRIVER_SPI
FF96BEH   FF96E5H   000028H   BYTE   INSEG    CODE           ?PR?ALL_INIT?SYS
FF96E6H   FF970CH   000027H   BYTE   INSEG    CODE           ?PR?ICM20602_READ_REGISTER?ZF_DEVICE_ICM20602
FF970DH   FF9733H   000027H   BYTE   INSEG    CODE           ?PR?IMU963RA_READ_ACC_GYRO_REGISTER?ZF_DEVICE_IMU963RA
L251 LINKER/LOCATER V4.66.93.0                                                        02/28/2025  00:29:39  PAGE 8


FF9734H   FF9758H   000025H   BYTE   INSEG    CODE           ?PR?IMU963RA_WRITE_ACC_GYRO_REGISTER?ZF_DEVICE_IMU963RA
FF9759H   FF977DH   000025H   BYTE   INSEG    CODE           ?PR?ROCKER_INIT?ROCKER
FF977EH   FF97A2H   000025H   BYTE   INSEG    CODE           ?PR?MEMCPY?_?MEMCPY
FF97A3H   FF97C1H   00001FH   BYTE   INSEG    CODE           ?PR?STRCHR?_?STRCHR
FF97C2H   FF97D7H   000016H   BYTE   INSEG    CODE           ?PR?MAIN?MAIN
FF97D8H   FF97ECH   000015H   BYTE   INSEG    CODE           ?PR?FIFO_USED?ZF_COMMON_FIFO
FF97EDH   FF9801H   000015H   BYTE   INSEG    CODE           ?PR?SPI_WRITE_16BIT?ZF_DRIVER_SPI
FF9802H   FF9814H   000013H   BYTE   INSEG    CODE           ?PR?UART_WRITE_BYTE?ZF_DRIVER_UART
FF9815H   FF9826H   000012H   BYTE   INSEG    CODE           ?PR?TFT180_WRITE_INDEX?ZF_DEVICE_TFT180
FF9827H   FF9838H   000012H   BYTE   INSEG    CODE           ?PR?IPS114_WRITE_INDEX?ZF_DEVICE_IPS114
FF9839H   FF984AH   000012H   BYTE   INSEG    CODE           ?PR?IPS200_WRITE_INDEX?ZF_DEVICE_IPS200
FF984BH   FF985AH   000010H   BYTE   INSEG    CODE           ?PR?PUTCHAR?ZF_COMMON_DEBUG
FF985BH   FF986AH   000010H   BYTE   INSEG    CODE           ?PR?SPI_READ_8BIT_REGISTER?ZF_DRIVER_SPI
FF986BH   FF987AH   000010H   BYTE   INSEG    CODE           ?PR?DL1A_DECODE_TIMEOUT?ZF_DEVICE_DL1A
FF987BH   FF9888H   00000EH   BYTE   INSEG    CODE           ?PR?STRLEN?_?STRLEN
FF9889H   FF9D31H   0004A9H   BYTE   UNIT     HCONST         ?C_INITHDATA
FF9D32H   FF9F31H   000200H   BYTE   UNIT     HCONST         ?HC?ZF_DRIVER_EEPROM
FF9F32H   FFA035H   000104H   BYTE   UNIT     HCONST         ?HC?ZF_DEVICE_DL1A
FFA036H   FFA123H   0000EEH   BYTE   UNIT     HCONST         ?HC?GPS
FFA124H   FFA1E8H   0000C5H   BYTE   UNIT     HCONST         ?HC?ZF_DEVICE_IMU963RA
FFA1E9H   FFA28FH   0000A7H   BYTE   UNIT     HCONST         ?HC?ZF_DEVICE_IMU660RA
FFA290H   FFA333H   0000A4H   BYTE   UNIT     HCONST         ?HC?SEEKFREE_ASSISTANT
FFA334H   FFA3D5H   0000A2H   BYTE   UNIT     HCONST         ?HC?ZF_DEVICE_GPS_TAU1201
FFA3D6H   FFA45DH   000088H   BYTE   UNIT     HCONST         ?HC?ZF_DEVICE_ICM20602
FFA45EH   FFA4DDH   000080H   BYTE   UNIT     HCONST         ?HC?ZF_DEVICE_BLE6A20
FFA4DEH   FFA54BH   00006EH   BYTE   UNIT     HCONST         ?HC?MENU
FFA54CH   FFA5ABH   000060H   BYTE   UNIT     HCONST         ?HC?ZF_DRIVER_PWM
FFA5ACH   FFA5CBH   000020H   BYTE   UNIT     HCONST         ?HC?MAIN
FFA5CCH   FFA5E9H   00001EH   BYTE   UNIT     HCONST         ?HC?ZF_DEVICE_WIRELESS_UART
FFA5EAH   FFA603H   00001AH   BYTE   UNIT     HCONST         ?HC?ZF_DEVICE_MPU6050
FFA604H   FFA613H   000010H   BYTE   UNIT     HCONST         ?HC?ZF_COMMON_FUNCTION

* * * * * * * * *   R E M O V E D     S E G M E N T S   * * * * * * * *
   *DEL*:           00003EH   BYTE   INSEG    CODE           ?PR?DEBUG_READ_BUFFER?ZF_COMMON_DEBUG
   *DEL*:           000031H   BYTE   INSEG    CODE           ?PR?DEBUG_SEND_BUFFER?ZF_COMMON_DEBUG
   *DEL*:           000004H   BYTE   UNIT     XDATA          ?XD?DEBUG_READ_BUFFER?ZF_COMMON_DEBUG
   *DEL*:           000236H   BYTE   INSEG    CODE           ?PR?FUNC_DOUBLE_TO_STR?ZF_COMMON_FUNCTION
   *DEL*:           00016EH   BYTE   INSEG    CODE           ?PR?FUNC_FLOAT_TO_STR?ZF_COMMON_FUNCTION
   *DEL*:           000106H   BYTE   INSEG    CODE           ?PR?FUNC_STR_TO_FLOAT?ZF_COMMON_FUNCTION
   *DEL*:           000024H   BYTE   INSEG    CODE           ?PR?FUNC_SOFT_DELAY?ZF_COMMON_FUNCTION
   *DEL*:           00006DH   BYTE   INSEG    CODE           ?PR?FUNC_UINT_TO_STR?ZF_COMMON_FUNCTION
   *DEL*:           000034H   BYTE   INSEG    CODE           ?PR?FUNC_STR_TO_UINT?ZF_COMMON_FUNCTION
   *DEL*:           000092H   BYTE   INSEG    CODE           ?PR?FUNC_HEX_TO_STR?ZF_COMMON_FUNCTION
   *DEL*:           00009DH   BYTE   INSEG    CODE           ?PR?FUNC_INT_TO_STR?ZF_COMMON_FUNCTION
   *DEL*:           000019H   BYTE   INSEG    CODE           ?PR?FUNC_GET_GREATEST_COMMON_DIVISOR?ZF_COMMON_FUNCTION
   *DEL*:           000004H   BYTE   UNIT     XDATA          ?XD?FUNC_SOFT_DELAY?ZF_COMMON_FUNCTION
   *DEL*:           000010H   BYTE   UNIT     XDATA          ?XD?FUNC_INT_TO_STR?ZF_COMMON_FUNCTION
   *DEL*:           000010H   BYTE   UNIT     XDATA          ?XD?FUNC_UINT_TO_STR?ZF_COMMON_FUNCTION
   *DEL*:           000005H   BYTE   UNIT     XDATA          ?XD?FUNC_STR_TO_FLOAT?ZF_COMMON_FUNCTION
   *DEL*:           00001CH   BYTE   UNIT     XDATA          ?XD?FUNC_FLOAT_TO_STR?ZF_COMMON_FUNCTION
   *DEL*:           000038H   BYTE   UNIT     XDATA          ?XD?FUNC_DOUBLE_TO_STR?ZF_COMMON_FUNCTION
   *DEL*:           00001CH   BYTE   UNIT     XDATA          ?XD?FUNC_HEX_TO_STR?ZF_COMMON_FUNCTION
   *DEL*:           000003H   BYTE   INSEG    CODE           ?PR?INTERRUPT_GLOBAL_DISABLE?ZF_COMMON_INTERRUPT
   *DEL*:           00009EH   BYTE   INSEG    CODE           ?PR?INTERRUPT_SET_PRIORITY?ZF_COMMON_INTERRUPT
   *DEL*:           00005AH   BYTE   INSEG    CODE           ?PR?ADC_MEAN_FILTER_CONVERT?ZF_DRIVER_ADC
   *DEL*:           000004H   BYTE   UNIT     XDATA          ?XD?ADC_MEAN_FILTER_CONVERT?ZF_DRIVER_ADC
   *DEL*:           000051H   BYTE   INSEG    CODE           ?PR?SYSTEM_DELAY_US?ZF_DRIVER_DELAY
   *DEL*:           00001CH   BYTE   INSEG    CODE           ?PR?IAP_SET_TPS?ZF_DRIVER_EEPROM
   *DEL*:           000025H   BYTE   INSEG    CODE           ?PR?IAP_ERASE_PAGE?ZF_DRIVER_EEPROM
   *DEL*:           000004H   BYTE   INSEG    CODE           ?PR?IAP_IDLE?ZF_DRIVER_EEPROM
   *DEL*:           000049H   BYTE   INSEG    CODE           ?PR?IAP_READ_BUFF?ZF_DRIVER_EEPROM
   *DEL*:           0000E9H   BYTE   INSEG    CODE           ?PR?EXTERN_IAP_WRITE_BUFF?ZF_DRIVER_EEPROM
   *DEL*:           000049H   BYTE   INSEG    CODE           ?PR?IAP_WRITE_BUFF?ZF_DRIVER_EEPROM
   *DEL*:           000021H   BYTE   INSEG    CODE           ?PR?IAP_READ_BYTE?ZF_DRIVER_EEPROM
   *DEL*:           000006H   BYTE   INSEG    CODE           ?PR?IAP_INIT?ZF_DRIVER_EEPROM
L251 LINKER/LOCATER V4.66.93.0                                                        02/28/2025  00:29:39  PAGE 9


   *DEL*:           000028H   BYTE   INSEG    CODE           ?PR?IAP_WRITE_BYTE?ZF_DRIVER_EEPROM
   *DEL*:           00000CH   BYTE   INSEG    CODE           ?PR?IAP_GET_CMD_STATE?ZF_DRIVER_EEPROM
   *DEL*:           000000H.1 BIT    UNIT     BIT            ?BI?IAP_READ_BYTE?ZF_DRIVER_EEPROM
   *DEL*:           000000H.1 BIT    UNIT     BIT            ?BI?IAP_WRITE_BYTE?ZF_DRIVER_EEPROM
   *DEL*:           000006H   BYTE   UNIT     XDATA          ?XD?IAP_READ_BUFF?ZF_DRIVER_EEPROM
   *DEL*:           000006H   BYTE   UNIT     XDATA          ?XD?IAP_WRITE_BUFF?ZF_DRIVER_EEPROM
   *DEL*:           000000H.1 BIT    UNIT     BIT            ?BI?IAP_ERASE_PAGE?ZF_DRIVER_EEPROM
   *DEL*:           000206H   BYTE   UNIT     XDATA          ?XD?EXTERN_IAP_WRITE_BUFF?ZF_DRIVER_EEPROM
   *DEL*:           000018H   BYTE   INSEG    CODE           ?PR?GPIO_TOGGLE_LEVEL?ZF_DRIVER_GPIO
   *DEL*:           0000FEH   BYTE   INSEG    CODE           ?PR?PWM_SET_FREQ?ZF_DRIVER_PWM
   *DEL*:           0000C4H   BYTE   INSEG    CODE           ?PR?PWM_SET_DUTY?ZF_DRIVER_PWM
   *DEL*:           000004H   BYTE   UNIT     XDATA          ?XD?PWM_SET_FREQ?ZF_DRIVER_PWM
   *DEL*:           0000BDH   BYTE   INSEG    CODE           ?PR?SOFT_IIC_READ_16BIT_REGISTERS?ZF_DRIVER_SOFT_IIC
   *DEL*:           00004DH   BYTE   INSEG    CODE           ?PR?SOFT_IIC_SCCB_READ_REGISTER?ZF_DRIVER_SOFT_IIC
   *DEL*:           000079H   BYTE   INSEG    CODE           ?PR?SOFT_IIC_READ_16BIT_REGISTER?ZF_DRIVER_SOFT_IIC
   *DEL*:           000101H   BYTE   INSEG    CODE           ?PR?SOFT_IIC_TRANSFER_16BIT_ARRAY?ZF_DRIVER_SOFT_IIC
   *DEL*:           00007FH   BYTE   INSEG    CODE           ?PR?SOFT_IIC_WRITE_16BIT_REGISTERS?ZF_DRIVER_SOFT_IIC
   *DEL*:           000036H   BYTE   INSEG    CODE           ?PR?SOFT_IIC_SCCB_WRITE_REGISTER?ZF_DRIVER_SOFT_IIC
   *DEL*:           00002BH   BYTE   INSEG    CODE           ?PR?SOFT_IIC_READ_8BIT?ZF_DRIVER_SOFT_IIC
   *DEL*:           000072H   BYTE   INSEG    CODE           ?PR?SOFT_IIC_READ_8BIT_ARRAY?ZF_DRIVER_SOFT_IIC
   *DEL*:           000056H   BYTE   INSEG    CODE           ?PR?SOFT_IIC_WRITE_16BIT_REGISTER?ZF_DRIVER_SOFT_IIC
   *DEL*:           000027H   BYTE   INSEG    CODE           ?PR?SOFT_IIC_WRITE_8BIT?ZF_DRIVER_SOFT_IIC
   *DEL*:           00004BH   BYTE   INSEG    CODE           ?PR?SOFT_IIC_READ_16BIT?ZF_DRIVER_SOFT_IIC
   *DEL*:           000099H   BYTE   INSEG    CODE           ?PR?SOFT_IIC_READ_16BIT_ARRAY?ZF_DRIVER_SOFT_IIC
   *DEL*:           000043H   BYTE   INSEG    CODE           ?PR?SOFT_IIC_INIT?ZF_DRIVER_SOFT_IIC
   *DEL*:           000038H   BYTE   INSEG    CODE           ?PR?SOFT_IIC_WRITE_16BIT?ZF_DRIVER_SOFT_IIC
   *DEL*:           00006BH   BYTE   INSEG    CODE           ?PR?SOFT_IIC_WRITE_16BIT_ARRAY?ZF_DRIVER_SOFT_IIC
   *DEL*:           000048H   BYTE   INSEG    CODE           ?PR?SOFT_IIC_READ_8BIT_REGISTER?ZF_DRIVER_SOFT_IIC
   *DEL*:           0000C3H   BYTE   INSEG    CODE           ?PR?SOFT_IIC_TRANSFER_8BIT_ARRAY?ZF_DRIVER_SOFT_IIC
   *DEL*:           000064H   BYTE   INSEG    CODE           ?PR?SOFT_IIC_WRITE_8BIT_REGISTERS?ZF_DRIVER_SOFT_IIC
   *DEL*:           000001H   BYTE   UNIT     XDATA          ?XD?SOFT_IIC_WRITE_8BIT?ZF_DRIVER_SOFT_IIC
   *DEL*:           000002H   BYTE   UNIT     XDATA          ?XD?SOFT_IIC_WRITE_16BIT?ZF_DRIVER_SOFT_IIC
   *DEL*:           000008H   BYTE   UNIT     XDATA          ?XD?SOFT_IIC_WRITE_16BIT_ARRAY?ZF_DRIVER_SOFT_IIC
   *DEL*:           000009H   BYTE   UNIT     XDATA          ?XD?SOFT_IIC_WRITE_8BIT_REGISTERS?ZF_DRIVER_SOFT_IIC
   *DEL*:           000004H   BYTE   UNIT     XDATA          ?XD?SOFT_IIC_WRITE_16BIT_REGISTER?ZF_DRIVER_SOFT_IIC
   *DEL*:           00000AH   BYTE   UNIT     XDATA          ?XD?SOFT_IIC_WRITE_16BIT_REGISTERS?ZF_DRIVER_SOFT_IIC
   *DEL*:           000001H   BYTE   UNIT     XDATA          ?XD?SOFT_IIC_READ_8BIT?ZF_DRIVER_SOFT_IIC
   *DEL*:           000008H   BYTE   UNIT     XDATA          ?XD?SOFT_IIC_READ_8BIT_ARRAY?ZF_DRIVER_SOFT_IIC
   *DEL*:           000002H   BYTE   UNIT     XDATA          ?XD?SOFT_IIC_READ_16BIT?ZF_DRIVER_SOFT_IIC
   *DEL*:           000008H   BYTE   UNIT     XDATA          ?XD?SOFT_IIC_READ_16BIT_ARRAY?ZF_DRIVER_SOFT_IIC
   *DEL*:           000002H   BYTE   UNIT     XDATA          ?XD?SOFT_IIC_READ_8BIT_REGISTER?ZF_DRIVER_SOFT_IIC
   *DEL*:           000004H   BYTE   UNIT     XDATA          ?XD?SOFT_IIC_READ_16BIT_REGISTER?ZF_DRIVER_SOFT_IIC
   *DEL*:           00000AH   BYTE   UNIT     XDATA          ?XD?SOFT_IIC_READ_16BIT_REGISTERS?ZF_DRIVER_SOFT_IIC
   *DEL*:           000010H   BYTE   UNIT     XDATA          ?XD?SOFT_IIC_TRANSFER_8BIT_ARRAY?ZF_DRIVER_SOFT_IIC
   *DEL*:           000010H   BYTE   UNIT     XDATA          ?XD?SOFT_IIC_TRANSFER_16BIT_ARRAY?ZF_DRIVER_SOFT_IIC
   *DEL*:           000002H   BYTE   UNIT     XDATA          ?XD?SOFT_IIC_SCCB_WRITE_REGISTER?ZF_DRIVER_SOFT_IIC
   *DEL*:           000002H   BYTE   UNIT     XDATA          ?XD?SOFT_IIC_SCCB_READ_REGISTER?ZF_DRIVER_SOFT_IIC
   *DEL*:           000004H   BYTE   UNIT     XDATA          ?XD?SOFT_IIC_INIT?ZF_DRIVER_SOFT_IIC
   *DEL*:           000079H   BYTE   INSEG    CODE           ?PR?SPI_READ_16BIT_REGISTERS?ZF_DRIVER_SPI
   *DEL*:           00002DH   BYTE   INSEG    CODE           ?PR?SPI_READ_16BIT_REGISTER?ZF_DRIVER_SPI
   *DEL*:           0000ACH   BYTE   INSEG    CODE           ?PR?SPI_TRANSFER_16BIT?ZF_DRIVER_SPI
   *DEL*:           00004EH   BYTE   INSEG    CODE           ?PR?SPI_WRITE_16BIT_REGISTERS?ZF_DRIVER_SPI
   *DEL*:           000004H   BYTE   INSEG    CODE           ?PR?SPI_READ_8BIT?ZF_DRIVER_SPI
   *DEL*:           000037H   BYTE   INSEG    CODE           ?PR?SPI_READ_8BIT_ARRAY?ZF_DRIVER_SPI
   *DEL*:           000033H   BYTE   INSEG    CODE           ?PR?SPI_WRITE_16BIT_REGISTER?ZF_DRIVER_SPI
   *DEL*:           000036H   BYTE   INSEG    CODE           ?PR?SPI_WRITE_8BIT_ARRAY?ZF_DRIVER_SPI
   *DEL*:           00001DH   BYTE   INSEG    CODE           ?PR?SPI_READ_16BIT?ZF_DRIVER_SPI
   *DEL*:           000051H   BYTE   INSEG    CODE           ?PR?SPI_READ_16BIT_ARRAY?ZF_DRIVER_SPI
   *DEL*:           000044H   BYTE   INSEG    CODE           ?PR?SPI_WRITE_16BIT_ARRAY?ZF_DRIVER_SPI
   *DEL*:           000077H   BYTE   INSEG    CODE           ?PR?SPI_TRANSFER_8BIT?ZF_DRIVER_SPI
   *DEL*:           000006H   BYTE   UNIT     XDATA          ?XD?SPI_WRITE_8BIT_ARRAY?ZF_DRIVER_SPI
   *DEL*:           000006H   BYTE   UNIT     XDATA          ?XD?SPI_WRITE_16BIT_ARRAY?ZF_DRIVER_SPI
   *DEL*:           000002H   BYTE   UNIT     XDATA          ?XD?SPI_WRITE_16BIT_REGISTER?ZF_DRIVER_SPI
   *DEL*:           000008H   BYTE   UNIT     XDATA          ?XD?SPI_WRITE_16BIT_REGISTERS?ZF_DRIVER_SPI
   *DEL*:           000006H   BYTE   UNIT     XDATA          ?XD?SPI_READ_8BIT_ARRAY?ZF_DRIVER_SPI
L251 LINKER/LOCATER V4.66.93.0                                                        02/28/2025  00:29:39  PAGE 10


   *DEL*:           000006H   BYTE   UNIT     XDATA          ?XD?SPI_READ_16BIT_ARRAY?ZF_DRIVER_SPI
   *DEL*:           000008H   BYTE   UNIT     XDATA          ?XD?SPI_READ_16BIT_REGISTERS?ZF_DRIVER_SPI
   *DEL*:           00000AH   BYTE   UNIT     XDATA          ?XD?SPI_TRANSFER_8BIT?ZF_DRIVER_SPI
   *DEL*:           00000AH   BYTE   UNIT     XDATA          ?XD?SPI_TRANSFER_16BIT?ZF_DRIVER_SPI
   *DEL*:           000031H   BYTE   INSEG    CODE           ?PR?TIMER_FUNCITON_CHECK?ZF_DRIVER_TIMER
   *DEL*:           00004AH   BYTE   INSEG    CODE           ?PR?UART_WRITE_STRING?ZF_DRIVER_UART
   *DEL*:           00003DH   BYTE   INSEG    CODE           ?PR?UART_READ_BYTE?ZF_DRIVER_UART
   *DEL*:           000031H   BYTE   INSEG    CODE           ?PR?UART_FUNCITON_CHECK?ZF_DRIVER_UART
   *DEL*:           000104H   BYTE   UNIT     XDATA          ?XD?UART_WRITE_STRING?ZF_DRIVER_UART
   *DEL*:           00000DH   BYTE   INSEG    CODE           ?PR?SET_TOF_TYPE?ZF_DEVICE_TYPE
   *DEL*:           00003AH   BYTE   INSEG    CODE           ?PR?SET_WIRELESS_TYPE?ZF_DEVICE_TYPE
   *DEL*:           0002CEH   BYTE   INSEG    CODE           ?PR?TFT180_INIT?ZF_DEVICE_TFT180
   *DEL*:           00015AH   BYTE   INSEG    CODE           ?PR?TFT180_SHOW_FLOAT?ZF_DEVICE_TFT180
   *DEL*:           000015H   BYTE   INSEG    CODE           ?PR?TFT180_DRAW_POINT?ZF_DEVICE_TFT180
   *DEL*:           00005AH   BYTE   INSEG    CODE           ?PR?TFT180_SHOW_STRING?ZF_DEVICE_TFT180
   *DEL*:           00008EH   BYTE   INSEG    CODE           ?PR?TFT180_SHOW_CHAR?ZF_DEVICE_TFT180
   *DEL*:           000088H   BYTE   INSEG    CODE           ?PR?TFT180_SHOW_UINT16?ZF_DEVICE_TFT180
   *DEL*:           00000DH   BYTE   INSEG    CODE           ?PR?TFT180_SET_COLOR?ZF_DEVICE_TFT180
   *DEL*:           0000C0H   BYTE   INSEG    CODE           ?PR?TFT180_SHOW_INT32?ZF_DEVICE_TFT180
   *DEL*:           0000DDH   BYTE   INSEG    CODE           ?PR?TFT180_SHOW_INT16?ZF_DEVICE_TFT180
   *DEL*:           00015CH   BYTE   INSEG    CODE           ?PR?TFT180_SHOW_WAVE?ZF_DEVICE_TFT180
   *DEL*:           000023H   BYTE   INSEG    CODE           ?PR?TFT180_SET_DIR?ZF_DEVICE_TFT180
   *DEL*:           000063H   BYTE   INSEG    CODE           ?PR?TFT180_CLEAR?ZF_DEVICE_TFT180
   *DEL*:           000074H   BYTE   INSEG    CODE           ?PR?TFT180_SHOW_UINT8?ZF_DEVICE_TFT180
   *DEL*:           0000A9H   BYTE   INSEG    CODE           ?PR?TFT180_SHOW_INT8?ZF_DEVICE_TFT180
   *DEL*:           000004H   BYTE   UNIT     XDATA          ?XD?TFT180_CLEAR?ZF_DEVICE_TFT180
   *DEL*:           000004H   BYTE   UNIT     XDATA          ?XD?TFT180_SHOW_CHAR?ZF_DEVICE_TFT180
   *DEL*:           000006H   BYTE   UNIT     XDATA          ?XD?TFT180_SHOW_STRING?ZF_DEVICE_TFT180
   *DEL*:           000005H   BYTE   UNIT     XDATA          ?XD?TFT180_SHOW_INT8?ZF_DEVICE_TFT180
   *DEL*:           000004H   BYTE   UNIT     XDATA          ?XD?TFT180_SHOW_UINT8?ZF_DEVICE_TFT180
   *DEL*:           000008H   BYTE   UNIT     XDATA          ?XD?TFT180_SHOW_INT16?ZF_DEVICE_TFT180
   *DEL*:           000006H   BYTE   UNIT     XDATA          ?XD?TFT180_SHOW_UINT16?ZF_DEVICE_TFT180
   *DEL*:           000028H   BYTE   UNIT     XDATA          ?XD?TFT180_SHOW_INT32?ZF_DEVICE_TFT180
   *DEL*:           000031H   BYTE   UNIT     XDATA          ?XD?TFT180_SHOW_FLOAT?ZF_DEVICE_TFT180
   *DEL*:           00001CH   BYTE   UNIT     XDATA          ?XD?TFT180_SHOW_WAVE?ZF_DEVICE_TFT180
   *DEL*:           00015AH   BYTE   INSEG    CODE           ?PR?IPS114_SHOW_FLOAT?ZF_DEVICE_IPS114
   *DEL*:           000015H   BYTE   INSEG    CODE           ?PR?IPS114_DRAW_POINT?ZF_DEVICE_IPS114
   *DEL*:           00005AH   BYTE   INSEG    CODE           ?PR?IPS114_SHOW_STRING?ZF_DEVICE_IPS114
   *DEL*:           00008EH   BYTE   INSEG    CODE           ?PR?IPS114_SHOW_CHAR?ZF_DEVICE_IPS114
   *DEL*:           000088H   BYTE   INSEG    CODE           ?PR?IPS114_SHOW_UINT16?ZF_DEVICE_IPS114
   *DEL*:           00000DH   BYTE   INSEG    CODE           ?PR?IPS114_SET_COLOR?ZF_DEVICE_IPS114
   *DEL*:           0000C0H   BYTE   INSEG    CODE           ?PR?IPS114_SHOW_INT32?ZF_DEVICE_IPS114
   *DEL*:           0000DDH   BYTE   INSEG    CODE           ?PR?IPS114_SHOW_INT16?ZF_DEVICE_IPS114
   *DEL*:           00015CH   BYTE   INSEG    CODE           ?PR?IPS114_SHOW_WAVE?ZF_DEVICE_IPS114
   *DEL*:           000023H   BYTE   INSEG    CODE           ?PR?IPS114_SET_DIR?ZF_DEVICE_IPS114
   *DEL*:           00013AH   BYTE   INSEG    CODE           ?PR?IPS114_SHOW_CHINESE?ZF_DEVICE_IPS114
   *DEL*:           000057H   BYTE   INSEG    CODE           ?PR?IPS114_CLEAR?ZF_DEVICE_IPS114
   *DEL*:           000074H   BYTE   INSEG    CODE           ?PR?IPS114_SHOW_UINT8?ZF_DEVICE_IPS114
   *DEL*:           0000A9H   BYTE   INSEG    CODE           ?PR?IPS114_SHOW_INT8?ZF_DEVICE_IPS114
   *DEL*:           000113H   BYTE   INSEG    CODE           ?PR?IPS114_SET_REGION?ZF_DEVICE_IPS114
   *DEL*:           000223H   BYTE   INSEG    CODE           ?PR?IPS114_INIT?ZF_DEVICE_IPS114
   *DEL*:           000004H   BYTE   UNIT     XDATA          ?XD?IPS114_SET_REGION?ZF_DEVICE_IPS114
   *DEL*:           000002H   BYTE   UNIT     XDATA          ?XD?IPS114_CLEAR?ZF_DEVICE_IPS114
   *DEL*:           000004H   BYTE   UNIT     XDATA          ?XD?IPS114_SHOW_CHAR?ZF_DEVICE_IPS114
   *DEL*:           000006H   BYTE   UNIT     XDATA          ?XD?IPS114_SHOW_STRING?ZF_DEVICE_IPS114
   *DEL*:           000005H   BYTE   UNIT     XDATA          ?XD?IPS114_SHOW_INT8?ZF_DEVICE_IPS114
   *DEL*:           000004H   BYTE   UNIT     XDATA          ?XD?IPS114_SHOW_UINT8?ZF_DEVICE_IPS114
   *DEL*:           000008H   BYTE   UNIT     XDATA          ?XD?IPS114_SHOW_INT16?ZF_DEVICE_IPS114
   *DEL*:           000006H   BYTE   UNIT     XDATA          ?XD?IPS114_SHOW_UINT16?ZF_DEVICE_IPS114
   *DEL*:           000028H   BYTE   UNIT     XDATA          ?XD?IPS114_SHOW_INT32?ZF_DEVICE_IPS114
   *DEL*:           000031H   BYTE   UNIT     XDATA          ?XD?IPS114_SHOW_FLOAT?ZF_DEVICE_IPS114
   *DEL*:           00001CH   BYTE   UNIT     XDATA          ?XD?IPS114_SHOW_WAVE?ZF_DEVICE_IPS114
   *DEL*:           000011H   BYTE   UNIT     XDATA          ?XD?IPS114_SHOW_CHINESE?ZF_DEVICE_IPS114
   *DEL*:           000015H   BYTE   INSEG    CODE           ?PR?IPS200_DRAW_POINT?ZF_DEVICE_IPS200
   *DEL*:           000088H   BYTE   INSEG    CODE           ?PR?IPS200_SHOW_UINT16?ZF_DEVICE_IPS200
L251 LINKER/LOCATER V4.66.93.0                                                        02/28/2025  00:29:39  PAGE 11


   *DEL*:           0000C0H   BYTE   INSEG    CODE           ?PR?IPS200_SHOW_INT32?ZF_DEVICE_IPS200
   *DEL*:           0000DDH   BYTE   INSEG    CODE           ?PR?IPS200_SHOW_INT16?ZF_DEVICE_IPS200
   *DEL*:           00015CH   BYTE   INSEG    CODE           ?PR?IPS200_SHOW_WAVE?ZF_DEVICE_IPS200
   *DEL*:           00013AH   BYTE   INSEG    CODE           ?PR?IPS200_SHOW_CHINESE?ZF_DEVICE_IPS200
   *DEL*:           000074H   BYTE   INSEG    CODE           ?PR?IPS200_SHOW_UINT8?ZF_DEVICE_IPS200
   *DEL*:           0000A9H   BYTE   INSEG    CODE           ?PR?IPS200_SHOW_INT8?ZF_DEVICE_IPS200
   *DEL*:           000005H   BYTE   UNIT     XDATA          ?XD?IPS200_SHOW_INT8?ZF_DEVICE_IPS200
   *DEL*:           000004H   BYTE   UNIT     XDATA          ?XD?IPS200_SHOW_UINT8?ZF_DEVICE_IPS200
   *DEL*:           000008H   BYTE   UNIT     XDATA          ?XD?IPS200_SHOW_INT16?ZF_DEVICE_IPS200
   *DEL*:           000006H   BYTE   UNIT     XDATA          ?XD?IPS200_SHOW_UINT16?ZF_DEVICE_IPS200
   *DEL*:           000028H   BYTE   UNIT     XDATA          ?XD?IPS200_SHOW_INT32?ZF_DEVICE_IPS200
   *DEL*:           00001CH   BYTE   UNIT     XDATA          ?XD?IPS200_SHOW_WAVE?ZF_DEVICE_IPS200
   *DEL*:           000011H   BYTE   UNIT     XDATA          ?XD?IPS200_SHOW_CHINESE?ZF_DEVICE_IPS200
   *DEL*:           00003FH   BYTE   INSEG    CODE           ?PR?DL1A_SET_SIGNAL_RATE_LIMIT?ZF_DEVICE_DL1A
   *DEL*:           000230H   BYTE   INSEG    CODE           ?PR?DL1A_GET_SPAD_INFO?ZF_DEVICE_DL1A
   *DEL*:           0000C4H   BYTE   INSEG    CODE           ?PR?DL1A_GET_DISTANCE?ZF_DEVICE_DL1A
   *DEL*:           0000B9H   BYTE   INSEG    CODE           ?PR?DL1A_PERFORM_SINGLE_REF_CALIBRATION?ZF_DEVICE_DL1A
   *DEL*:           000001H   BYTE   INSEG    CODE           ?PR?DL1A_INT_HANDLER?ZF_DEVICE_DL1A
   *DEL*:           00009DH   BYTE   INSEG    CODE           ?PR?DL1A_GET_MEASUREMENT_TIMING_BUDGET?ZF_DEVICE_DL1A
   *DEL*:           000171H   BYTE   INSEG    CODE           ?PR?DL1A_SET_MEASUREMENT_TIMING_BUDGET?ZF_DEVICE_DL1A
   *DEL*:           0004A9H   BYTE   INSEG    CODE           ?PR?DL1A_INIT?ZF_DEVICE_DL1A
   *DEL*:           000008H   BYTE   UNIT     XDATA          ?XD?DL1A_GET_SPAD_INFO?ZF_DEVICE_DL1A
   *DEL*:           000003H   BYTE   UNIT     XDATA          ?XD?DL1A_PERFORM_SINGLE_REF_CALIBRATION?ZF_DEVICE_DL1A
   *DEL*:           000025H   BYTE   UNIT     XDATA          ?XD?DL1A_SET_MEASUREMENT_TIMING_BUDGET?ZF_DEVICE_DL1A
   *DEL*:           00001BH   BYTE   UNIT     XDATA          ?XD?DL1A_GET_MEASUREMENT_TIMING_BUDGET?ZF_DEVICE_DL1A
   *DEL*:           000003H   BYTE   UNIT     XDATA          ?XD?DL1A_SET_SIGNAL_RATE_LIMIT?ZF_DEVICE_DL1A
   *DEL*:           000003H   BYTE   UNIT     XDATA          ?XD?DL1A_GET_DISTANCE?ZF_DEVICE_DL1A
   *DEL*:           0000CAH   BYTE   UNIT     XDATA          ?XD?DL1A_INIT?ZF_DEVICE_DL1A
   *DEL*:           00003EH   BYTE   INSEG    CODE           ?PR?BLE6A20_READ_BUFFER?ZF_DEVICE_BLE6A20
   *DEL*:           000091H   BYTE   INSEG    CODE           ?PR?BLE6A20_SEND_BUFFER?ZF_DEVICE_BLE6A20
   *DEL*:           00010EH   BYTE   INSEG    CODE           ?PR?BLE6A20_SEND_STRING?ZF_DEVICE_BLE6A20
   *DEL*:           000025H   BYTE   INSEG    CODE           ?PR?BLE6A20_CALLBACK?ZF_DEVICE_BLE6A20
   *DEL*:           000080H   BYTE   INSEG    CODE           ?PR?BLE6A20_INIT?ZF_DEVICE_BLE6A20
   *DEL*:           00003CH   BYTE   INSEG    CODE           ?PR?BLE6A20_SEND_BYTE?ZF_DEVICE_BLE6A20
   *DEL*:           000006H   BYTE   UNIT     XDATA          ?XD?BLE6A20_SEND_BUFFER?ZF_DEVICE_BLE6A20
   *DEL*:           000086H   BYTE   UNIT     XDATA          ?XD?BLE6A20_SEND_STRING?ZF_DEVICE_BLE6A20
   *DEL*:           000004H   BYTE   UNIT     XDATA          ?XD?BLE6A20_READ_BUFFER?ZF_DEVICE_BLE6A20
   *DEL*:           000001H   BYTE   UNIT     XDATA          ?XD?BLE6A20_CALLBACK?ZF_DEVICE_BLE6A20
   *DEL*:           000091H   BYTE   INSEG    CODE           ?PR?WIRELESS_UART_SEND_BUFFER?ZF_DEVICE_WIRELESS_UART
   *DEL*:           00010EH   BYTE   INSEG    CODE           ?PR?WIRELESS_UART_SEND_STRING?ZF_DEVICE_WIRELESS_UART
   *DEL*:           000025H   BYTE   INSEG    CODE           ?PR?WIRELESS_UART_CALLBACK?ZF_DEVICE_WIRELESS_UART
   *DEL*:           000079H   BYTE   INSEG    CODE           ?PR?WIRELESS_UART_INIT?ZF_DEVICE_WIRELESS_UART
   *DEL*:           00003CH   BYTE   INSEG    CODE           ?PR?WIRELESS_UART_SEND_BYTE?ZF_DEVICE_WIRELESS_UART
   *DEL*:           00003EH   BYTE   INSEG    CODE           ?PR?WIRELESS_UART_READ_BUFFER?ZF_DEVICE_WIRELESS_UART
   *DEL*:           000006H   BYTE   UNIT     XDATA          ?XD?WIRELESS_UART_SEND_BUFFER?ZF_DEVICE_WIRELESS_UART
   *DEL*:           000024H   BYTE   UNIT     XDATA          ?XD?WIRELESS_UART_SEND_STRING?ZF_DEVICE_WIRELESS_UART
   *DEL*:           000004H   BYTE   UNIT     XDATA          ?XD?WIRELESS_UART_READ_BUFFER?ZF_DEVICE_WIRELESS_UART
   *DEL*:           000001H   BYTE   UNIT     XDATA          ?XD?WIRELESS_UART_CALLBACK?ZF_DEVICE_WIRELESS_UART
   *DEL*:           0000B6H   BYTE   INSEG    CODE           ?PR?MPU6050_INIT?ZF_DEVICE_MPU6050
   *DEL*:           000054H   BYTE   INSEG    CODE           ?PR?MPU6050_SELF1_CHECK?ZF_DEVICE_MPU6050
   *DEL*:           000062H   BYTE   INSEG    CODE           ?PR?MPU6050_GET_ACC?ZF_DEVICE_MPU6050
   *DEL*:           000010H   BYTE   INSEG    CODE           ?PR?MPU6050_ACC_TRANSITION?ZF_DEVICE_MPU6050
   *DEL*:           000062H   BYTE   INSEG    CODE           ?PR?MPU6050_GET_GYRO?ZF_DEVICE_MPU6050
   *DEL*:           000012H   BYTE   INSEG    CODE           ?PR?MPU6050_GYRO_TRANSITION?ZF_DEVICE_MPU6050
   *DEL*:           000006H   BYTE   UNIT     XDATA          ?XD?MPU6050_GET_ACC?ZF_DEVICE_MPU6050
   *DEL*:           000006H   BYTE   UNIT     XDATA          ?XD?MPU6050_GET_GYRO?ZF_DEVICE_MPU6050
   *DEL*:           000025H   BYTE   INSEG    CODE           ?PR?ICM20602_WRITE_REGISTER?ZF_DEVICE_ICM20602
   *DEL*:           00002DH   BYTE   INSEG    CODE           ?PR?ICM20602_SELF_CHECK?ZF_DEVICE_ICM20602
   *DEL*:           00010FH   BYTE   INSEG    CODE           ?PR?ICM20602_INIT?ZF_DEVICE_ICM20602
   *DEL*:           000050H   BYTE   INSEG    CODE           ?PR?ICM20602_GET_ACC?ZF_DEVICE_ICM20602
   *DEL*:           000047H   BYTE   INSEG    CODE           ?PR?ICM20602_READ_REGISTERS?ZF_DEVICE_ICM20602
   *DEL*:           000050H   BYTE   INSEG    CODE           ?PR?ICM20602_GET_GYRO?ZF_DEVICE_ICM20602
   *DEL*:           000005H   BYTE   UNIT     XDATA          ?XD?ICM20602_READ_REGISTERS?ZF_DEVICE_ICM20602
   *DEL*:           000006H   BYTE   UNIT     XDATA          ?XD?ICM20602_GET_ACC?ZF_DEVICE_ICM20602
   *DEL*:           000006H   BYTE   UNIT     XDATA          ?XD?ICM20602_GET_GYRO?ZF_DEVICE_ICM20602
L251 LINKER/LOCATER V4.66.93.0                                                        02/28/2025  00:29:39  PAGE 12


   *DEL*:           000050H   BYTE   INSEG    CODE           ?PR?IMU660RA_GET_ACC?ZF_DEVICE_IMU660RA
   *DEL*:           000006H   BYTE   UNIT     XDATA          ?XD?IMU660RA_GET_ACC?ZF_DEVICE_IMU660RA
   *DEL*:           000050H   BYTE   INSEG    CODE           ?PR?IMU963RA_GET_GYRO?ZF_DEVICE_IMU963RA
   *DEL*:           00002CH   BYTE   INSEG    CODE           ?PR?IMU963RA_CONNECT_MAG?ZF_DEVICE_IMU963RA
   *DEL*:           000047H   BYTE   INSEG    CODE           ?PR?IMU963RA_READ_ACC_GYRO_REGISTERS?ZF_DEVICE_IMU963RA
   *DEL*:           000064H   BYTE   INSEG    CODE           ?PR?IMU963RA_WRITE_MAG_REGISTER?ZF_DEVICE_IMU963RA
   *DEL*:           000030H   BYTE   INSEG    CODE           ?PR?IMU963RA_MAG_SELF_CHECK?ZF_DEVICE_IMU963RA
   *DEL*:           00018AH   BYTE   INSEG    CODE           ?PR?IMU963RA_INIT?ZF_DEVICE_IMU963RA
   *DEL*:           00002DH   BYTE   INSEG    CODE           ?PR?IMU963RA_ACC_GYRO_SELF_CHECK?ZF_DEVICE_IMU963RA
   *DEL*:           000050H   BYTE   INSEG    CODE           ?PR?IMU963RA_GET_ACC?ZF_DEVICE_IMU963RA
   *DEL*:           000066H   BYTE   INSEG    CODE           ?PR?IMU963RA_GET_MAG?ZF_DEVICE_IMU963RA
   *DEL*:           000005H   BYTE   UNIT     XDATA          ?XD?IMU963RA_READ_ACC_GYRO_REGISTERS?ZF_DEVICE_IMU963RA
   *DEL*:           000002H   BYTE   UNIT     XDATA          ?XD?IMU963RA_WRITE_MAG_REGISTER?ZF_DEVICE_IMU963RA
   *DEL*:           000006H   BYTE   UNIT     XDATA          ?XD?IMU963RA_GET_ACC?ZF_DEVICE_IMU963RA
   *DEL*:           000006H   BYTE   UNIT     XDATA          ?XD?IMU963RA_GET_GYRO?ZF_DEVICE_IMU963RA
   *DEL*:           000006H   BYTE   UNIT     XDATA          ?XD?IMU963RA_GET_MAG?ZF_DEVICE_IMU963RA
   *DEL*:           0002B4H   BYTE   INSEG    CODE           ?PR?GET_TWO_POINTS_DISTANCE?ZF_DEVICE_GPS_TAU1201
   *DEL*:           000185H   BYTE   INSEG    CODE           ?PR?GPS_DATA_PARSE?ZF_DEVICE_GPS_TAU1201
   *DEL*:           0004D4H   BYTE   INSEG    CODE           ?PR?GET_TWO_POINTS_AZIMUTH?ZF_DEVICE_GPS_TAU1201
   *DEL*:           000058H   BYTE   UNIT     XDATA          ?XD?GET_TWO_POINTS_DISTANCE?ZF_DEVICE_GPS_TAU1201
   *DEL*:           000038H   BYTE   UNIT     XDATA          ?XD?GET_TWO_POINTS_AZIMUTH?ZF_DEVICE_GPS_TAU1201
   *DEL*:           000008H   BYTE   UNIT     XDATA          ?XD?GPS_DATA_PARSE?ZF_DEVICE_GPS_TAU1201
   *DEL*:           00006EH   BYTE   INSEG    CODE           ?PR?TSL1401_SEND_DATA?ZF_DEVICE_TSL1401
   *DEL*:           000097H   BYTE   INSEG    CODE           ?PR?TSL1401_COLLECT_PIT_HANDLER?ZF_DEVICE_TSL1401
   *DEL*:           000332H   BYTE   INSEG    CODE           ?PR?SEEKFREE_ASSISTANT_CAMERA_BOUNDARY_CONFIG?SEEKFREE_ASS
                                                             -ISTANT
   *DEL*:           0000CAH   BYTE   INSEG    CODE           ?PR?SEEKFREE_ASSISTANT_OSCILLOSCOPE_SEND?SEEKFREE_ASSISTAN
                                                             -T
   *DEL*:           00002DH   BYTE   INSEG    CODE           ?PR?SEEKFREE_ASSISTANT_INIT?SEEKFREE_ASSISTANT
   *DEL*:           000017H   BYTE   INSEG    CODE           ?PR?SEEKFREE_ASSISTANT_SUM?SEEKFREE_ASSISTANT
   *DEL*:           000035H   BYTE   INSEG    CODE           ?PR?SEEKFREE_ASSISTANT_CAMERA_INFORMATION_CONFIG?SEEKFREE_
                                                             -ASSISTANT
   *DEL*:           00019CH   BYTE   INSEG    CODE           ?PR?SEEKFREE_ASSISTANT_DATA_ANALYSIS?SEEKFREE_ASSISTANT
   *DEL*:           00003FH   BYTE   INSEG    CODE           ?PR?SEEKFREE_ASSISTANT_CAMERA_SEND?SEEKFREE_ASSISTANT
   *DEL*:           000002H   BYTE   UNIT     XDATA          ?XD?SEEKFREE_ASSISTANT_CAMERA_INFORMATION_CONFIG?SEEKFREE_
                                                             -ASSISTANT
   *DEL*:           000024H   BYTE   UNIT     XDATA          ?XD?SEEKFREE_ASSISTANT_OSCILLOSCOPE_SEND?SEEKFREE_ASSISTAN
                                                             -T
   *DEL*:           000014H   BYTE   UNIT     XDATA          ?XD?SEEKFREE_ASSISTANT_CAMERA_BOUNDARY_CONFIG?SEEKFREE_ASS
                                                             -ISTANT
   *DEL*:           000085H   BYTE   UNIT     XDATA          ?XD?SEEKFREE_ASSISTANT_DATA_ANALYSIS?SEEKFREE_ASSISTANT
   *DEL*:           000000H.1 BIT    UNIT     BIT            ?BI?SEEKFREE_ASSISTANT_DATA_ANALYSIS?SEEKFREE_ASSISTANT
   *DEL*:           000041H   BYTE   INSEG    CODE           ?PR?SEEKFREE_ASSISTANT_INTERFACE_INIT?SEEKFREE_ASSISTANT_I
                                                             -NTERFACE
   *DEL*:           000108H   BYTE   INSEG    CODE           ?PR?SENSOR_DISPALY?MAIN
   *DEL*:           000077H   BYTE   INSEG    CODE           ?PR?BL_UART_INIT?UART
   *DEL*:           000006H   BYTE   UNIT     XDATA          ?XD?BL_UART_INIT?UART
   *DEL*:           00008DH   BYTE   INSEG    CODE           ?PR?MOTOR_BEHINDLOAD?MOTOR
   *DEL*:           000077H   BYTE   INSEG    CODE           ?PR?MOTOR_AROUNDLOAD?MOTOR
   *DEL*:           000035H   BYTE   INSEG    CODE           ?PR?MOTOR_BOTTOMLOAD?MOTOR
   *DEL*:           0002E7H   BYTE   INSEG    CODE           ?PR?GPS_DISPLAY?GPS
   *DEL*:           000109H   BYTE   INSEG    CODE           ?PR?CCD_DISPLAY?CCD
   *DEL*:           00000EH   BYTE   INSEG    CODE           ?PR?SEEKFREE_ASSISTANT_TRANSFER?CCD
   *DEL*:           000098H   BYTE   INSEG    CODE           ?PR?PID_INCREMENT?CONTROL
   *DEL*:           000090H   BYTE   INSEG    CODE           ?PR?PID_POSITION?CONTROL
   *DEL*:           000050H   BYTE   INSEG    CODE           ?PR?PID_INIT?CONTROL
   *DEL*:           000008H   BYTE   UNIT     XDATA          ?XD?PID_INIT?CONTROL
   *DEL*:           000004H   BYTE   UNIT     XDATA          ?XD?PID_POSITION?CONTROL
   *DEL*:           000004H   BYTE   UNIT     XDATA          ?XD?PID_INCREMENT?CONTROL
   *DEL*:           000045H   BYTE   INSEG    CODE           ?PR?SENDBUFFER?VALUEPACK
   *DEL*:           0002ADH   BYTE   INSEG    CODE           ?PR?READVALUEPACK?VALUEPACK
   *DEL*:           000193H   BYTE   INSEG    CODE           ?PR?SENDVALUEPACK?VALUEPACK
   *DEL*:           000005H   BYTE   INSEG    CODE           ?PR?SENDBYTE?VALUEPACK
   *DEL*:           000064H   BYTE   INSEG    CODE           ?PR?UART1_CALLBACK?VALUEPACK
   *DEL*:           000016H   BYTE   INSEG    CODE           ?PR?VALUEPACK_INIT?VALUEPACK
L251 LINKER/LOCATER V4.66.93.0                                                        02/28/2025  00:29:39  PAGE 13


   *DEL*:           000001H   BYTE   UNIT     XDATA          ?XD?UART1_CALLBACK?VALUEPACK
   *DEL*:           000006H   BYTE   UNIT     XDATA          ?XD?SENDBUFFER?VALUEPACK
   *DEL*:           000004H   BYTE   UNIT     XDATA          ?XD?SENDVALUEPACK?VALUEPACK
   *DEL*:           0000A6H   BYTE   INSEG    CODE           ?PR?GET_DRIFT?IMU660
   *DEL*:           000004H   BYTE   UNIT     XDATA          ?XD?GET_DRIFT?IMU660
   *DEL*:           00019BH   BYTE   INSEG    CODE           ?PR?POW?_?POW
   *DEL*:           000059H   BYTE   INSEG    CODE           ?PR?MALLOC?MALLOC
   *DEL*:           0000E7H   BYTE   INSEG    CODE           ?PR?FREE?FREE



OVERLAY MAP OF MODULE:   .\out_file\SEEKFREE (ai8051u_isr)


FUNCTION/MODULE                               XDATA_GROUP
--> CALLED FUNCTION/MODULE                    START  STOP
=========================================================
TM11_IRQHandler/isr                           ----- -----

*** NEW ROOT ********************************

DMA_UART1_IRQHandler/isr                      ----- -----
  +--> uart_rx_start_buff/zf_driver_uart

uart_rx_start_buff/zf_driver_uart             ----- -----

*** NEW ROOT ********************************

DMA_UART2_IRQHandler/isr                      ----- -----
  +--> uart_rx_start_buff/zf_driver_uart

*** NEW ROOT ********************************

DMA_UART3_IRQHandler/isr                      ----- -----
  +--> uart_rx_start_buff/zf_driver_uart

*** NEW ROOT ********************************

DMA_UART4_IRQHandler/isr                      ----- -----
  +--> uart_rx_start_buff/zf_driver_uart

*** NEW ROOT ********************************

TM0_IRQHandler/isr                            ----- -----

*** NEW ROOT ********************************

TM1_IRQHandler/isr                            ----- -----

*** NEW ROOT ********************************

TM2_IRQHandler/isr                            ----- -----

*** NEW ROOT ********************************

TM3_IRQHandler/isr                            ----- -----

*** NEW ROOT ********************************

TM4_IRQHandler/isr                            ----- -----

*** NEW ROOT ********************************

?C_C51STARTUP                                 ----- -----

L251 LINKER/LOCATER V4.66.93.0                                                        02/28/2025  00:29:39  PAGE 14


*** NEW ROOT ********************************

?C_C51STARTUP?3                               ----- -----
  +--> main/main

main/main                                     ----- -----
  +--> clock_init/zf_common_clock
  +--> debug_init/zf_common_debug
  +--> All_Init/sys
  +--> Menu_display/menu

clock_init/zf_common_clock                    ----- -----
  +--> system_delay_init/zf_driver_delay
  +--> interrupt_global_enable/zf_common_interrupt

system_delay_init/zf_driver_delay             ----- -----
  +--> ?C?SLDIV/?C?SLDIV

?C?SLDIV/?C?SLDIV                             ----- -----
  +--> ?C?ULIDIV/?C?ULDIV

?C?ULIDIV/?C?ULDIV                            ----- -----

interrupt_global_enable/zf_common_interr+     ----- -----
... upt

debug_init/zf_common_debug                    ----- -----
  +--> uart_init/zf_driver_uart
  +--> fifo_init/zf_common_fifo
  +--> uart_rx_interrupt/zf_driver_uart
  +--> debug_interrupr_handler/zf_common_debug

uart_init/zf_driver_uart                      0B50H 0B55H
  +--> gpio_init/zf_driver_gpio
  +--> ?C?ULIDIV/?C?ULDIV
  +--> uart_dma_init/zf_driver_uart

gpio_init/zf_driver_gpio                      0B56H 0B56H
  +--> gpio_set_impedance/zf_driver_gpio
  +--> gpio_set_dir/zf_driver_gpio
  +--> gpio_set_mode/zf_driver_gpio
  +--> gpio_set_level/zf_driver_gpio

gpio_set_impedance/zf_driver_gpio             ----- -----

gpio_set_dir/zf_driver_gpio                   ----- -----

gpio_set_mode/zf_driver_gpio                  ----- -----

gpio_set_level/zf_driver_gpio                 ----- -----

uart_dma_init/zf_driver_uart                  ----- -----

fifo_init/zf_common_fifo                      0B50H 0B57H

uart_rx_interrupt/zf_driver_uart              ----- -----

debug_interrupr_handler/zf_common_debug       0ABBH 0ABBH
  +--> uart_query_byte/zf_driver_uart
  +--> fifo_write_buffer/zf_common_fifo

uart_query_byte/zf_driver_uart                ----- -----
  +--> uart_rx_start_buff/zf_driver_uart

fifo_write_buffer/zf_common_fifo              0B5BH 0B68H
L251 LINKER/LOCATER V4.66.93.0                                                        02/28/2025  00:29:39  PAGE 15


  +--> memcpy?_/memcpy
  +--> fifo_head_offset/zf_common_fifo

memcpy?_/memcpy                               ----- -----

fifo_head_offset/zf_common_fifo               ----- -----

All_Init/sys                                  ----- -----
  +--> rocker_init/rocker
  +--> imu660ra_init/zf_device_imu660ra
  +--> ips200_init/zf_device_ips200
  +--> Motor_Init/motor
  +--> gps_init/zf_device_gps_tau1201
  +--> tsl1401_init/zf_device_tsl1401
  +--> encoder_Init/encoder
  +--> gpio_init/zf_driver_gpio
  +--> timer_Init/time

rocker_init/rocker                            ----- -----
  +--> adc_init/zf_driver_adc
  +--> gpio_init/zf_driver_gpio

adc_init/zf_driver_adc                        ----- -----

imu660ra_init/zf_device_imu660ra              ----- -----
  +--> system_delay_ms/zf_driver_delay
  +--> spi_init/zf_driver_spi
  +--> gpio_init/zf_driver_gpio
  +--> imu660ra_self_check/zf_device_imu660ra
  +--> imu660ra_write_register/zf_device_imu660ra
  +--> imu660ra_write_registers/zf_device_imu660ra
  +--> imu660ra_read_register/zf_device_imu660ra
  +--> PRINTF/PRINTF

system_delay_ms/zf_driver_delay               ----- -----

spi_init/zf_driver_spi                        0ABBH 0ACAH
  +--> gpio_init/zf_driver_gpio
  +--> gpio_set_level_speed/zf_driver_gpio
  +--> ?C?ULIDIV/?C?ULDIV

gpio_set_level_speed/zf_driver_gpio           ----- -----

imu660ra_self_check/zf_device_imu660ra        ----- -----
  +--> imu660ra_read_register/zf_device_imu660ra
  +--> PRINTF/PRINTF
  +--> system_delay_ms/zf_driver_delay

imu660ra_read_register/zf_device_imu660r+     0ABBH 0ABCH
... a
  +--> gpio_set_level/zf_driver_gpio
  +--> spi_read_8bit_registers/zf_driver_spi

spi_read_8bit_registers/zf_driver_spi         0AD0H 0AD5H
  +--> spi_write_dat/zf_driver_spi
  +--> spi_read_dat/zf_driver_spi

spi_write_dat/zf_driver_spi                   ----- -----

spi_read_dat/zf_driver_spi                    ----- -----

PRINTF/PRINTF                                 0ABBH 0AE2H
  +--> OUT/PRINTF

OUT/PRINTF                                    ----- -----
L251 LINKER/LOCATER V4.66.93.0                                                        02/28/2025  00:29:39  PAGE 16


  +--> PUTCH/PRINTF

PUTCH/PRINTF                                  ----- -----
  +--> putchar/zf_common_debug
  +--> OUT/PRINTF

putchar/zf_common_debug                       ----- -----
  +--> uart_write_byte/zf_driver_uart

uart_write_byte/zf_driver_uart                0AE3H 0AE3H
  +--> uart_write_buffer/zf_driver_uart

uart_write_buffer/zf_driver_uart              ----- -----

imu660ra_write_register/zf_device_imu660+     ----- -----
... ra
  +--> gpio_set_level/zf_driver_gpio
  +--> spi_write_8bit_register/zf_driver_spi

spi_write_8bit_register/zf_driver_spi         ----- -----
  +--> spi_write_dat/zf_driver_spi

imu660ra_write_registers/zf_device_imu66+     0ABBH 0ABFH
... 0ra
  +--> gpio_set_level/zf_driver_gpio
  +--> spi_write_8bit_registers/zf_driver_spi

spi_write_8bit_registers/zf_driver_spi        0AC0H 0AC5H
  +--> spi_write_dat/zf_driver_spi

ips200_init/zf_device_ips200                  ----- -----
  +--> spi_init/zf_driver_spi
  +--> ips200_set_dir/zf_device_ips200
  +--> ips200_set_color/zf_device_ips200
  +--> system_delay_ms/zf_driver_delay
  +--> ips200_write_index/zf_device_ips200
  +--> spi_write_8bit/zf_driver_spi
  +--> ips200_clear/zf_device_ips200

ips200_set_dir/zf_device_ips200               ----- -----

ips200_set_color/zf_device_ips200             ----- -----

ips200_write_index/zf_device_ips200           ----- -----
  +--> spi_write_8bit/zf_driver_spi

spi_write_8bit/zf_driver_spi                  ----- -----
  +--> spi_write_dat/zf_driver_spi

ips200_clear/zf_device_ips200                 0ABBH 0ABCH
  +--> ips200_set_region/zf_device_ips200
  +--> spi_write_16bit/zf_driver_spi

ips200_set_region/zf_device_ips200            0AF6H 0AF9H
  +--> ips200_write_index/zf_device_ips200
  +--> spi_write_16bit/zf_driver_spi

spi_write_16bit/zf_driver_spi                 ----- -----
  +--> spi_write_dat/zf_driver_spi

Motor_Init/motor                              ----- -----
  +--> pwm_init/zf_driver_pwm

pwm_init/zf_driver_pwm                        0ABBH 0AC8H
  +--> gpio_init/zf_driver_gpio
L251 LINKER/LOCATER V4.66.93.0                                                        02/28/2025  00:29:39  PAGE 17


  +--> ?C?ULIDIV/?C?ULDIV

gps_init/zf_device_gps_tau1201                0ABBH 0B4FH
  +--> fifo_init/zf_common_fifo
  +--> system_delay_ms/zf_driver_delay
  +--> uart_init/zf_driver_uart
  +--> uart_rx_interrupt/zf_driver_uart
  +--> gps_uart_callback/zf_device_gps_tau1201
  +--> set_gps_type/zf_device_type
  +--> uart_write_buffer/zf_driver_uart

gps_uart_callback/zf_device_gps_tau1201       0B50H 0B5AH
  +--> fifo_write_buffer/zf_common_fifo
  +--> fifo_read_buffer/zf_common_fifo
  +--> strncmp?_/STRNCMP
  +--> fifo_used/zf_common_fifo
  +--> fifo_clear/zf_common_fifo

fifo_read_buffer/zf_common_fifo               0B5BH 0B6EH
  +--> fifo_used/zf_common_fifo
  +--> memcpy?_/memcpy
  +--> fifo_end_offset/zf_common_fifo

fifo_used/zf_common_fifo                      ----- -----

fifo_end_offset/zf_common_fifo                ----- -----

strncmp?_/STRNCMP                             ----- -----

fifo_clear/zf_common_fifo                     0B5BH 0B5CH
  +--> memset?_/memset

memset?_/memset                               ----- -----

set_gps_type/zf_device_type                   ----- -----

tsl1401_init/zf_device_tsl1401                ----- -----
  +--> adc_init/zf_driver_adc
  +--> gpio_init/zf_driver_gpio

encoder_Init/encoder                          ----- -----
  +--> encoder_dir_init/zf_driver_encoder

encoder_dir_init/zf_driver_encoder            0ABBH 0ABCH
  +--> gpio_init/zf_driver_gpio

timer_Init/time                               ----- -----
  +--> pit_handler/time
  +--> ?C?SLDIV/?C?SLDIV
  +--> pit_init/zf_driver_pit

pit_handler/time                              ----- -----
  +--> ?C?ULIDIV/?C?ULDIV
  +--> Interrupt_Solution/time

Interrupt_Solution/time                       ----- -----
  +--> get_yaw_data/imu660
  +--> encoder_get/encoder

get_yaw_data/imu660                           ----- -----
  +--> imu660ra_get_gyro/zf_device_imu660ra

imu660ra_get_gyro/zf_device_imu660ra          0ABBH 0AC0H
  +--> imu660ra_read_registers/zf_device_imu660ra

L251 LINKER/LOCATER V4.66.93.0                                                        02/28/2025  00:29:39  PAGE 18


imu660ra_read_registers/zf_device_imu660+     0AC1H 0ACFH
... ra
  +--> gpio_set_level/zf_driver_gpio
  +--> spi_read_8bit_registers/zf_driver_spi

encoder_get/encoder                           ----- -----
  +--> encoder_get_count/zf_driver_encoder
  +--> encoder_clear_count/zf_driver_encoder

encoder_get_count/zf_driver_encoder           ----- -----
  +--> gpio_get_level/zf_driver_gpio

gpio_get_level/zf_driver_gpio                 ----- -----

encoder_clear_count/zf_driver_encoder         ----- -----

pit_init/zf_driver_pit                        ----- -----
  +--> ?C?ULIDIV/?C?ULDIV

Menu_display/menu                             ----- -----
  +--> ips200_show_string/zf_device_ips200
  +--> rocker_read/rocker
  +--> ips200_myclear/zf_device_ips200
  +--> ips200_clear/zf_device_ips200
  +--> ips200_show_float/zf_device_ips200
  +--> system_delay_ms/zf_driver_delay
  +--> gpio_get_level/zf_driver_gpio

ips200_show_string/zf_device_ips200           0AECH 0AF1H
  +--> ips200_show_char/zf_device_ips200

ips200_show_char/zf_device_ips200             0AF2H 0AF5H
  +--> ips200_set_region/zf_device_ips200
  +--> spi_write_16bit/zf_driver_spi

rocker_read/rocker                            ----- -----
  +--> adc_convert/zf_driver_adc

adc_convert/zf_driver_adc                     ----- -----

ips200_myclear/zf_device_ips200               0ABBH 0AC0H
  +--> ips200_set_region/zf_device_ips200
  +--> spi_write_16bit/zf_driver_spi

ips200_show_float/zf_device_ips200            0ABBH 0AEBH
  +--> zf_sprintf/zf_common_function
  +--> ips200_show_string/zf_device_ips200

zf_sprintf/zf_common_function                 0AECH 0B4EH
  +--> number_conversion_ascii/zf_common_function
  +--> printf_reverse_order/zf_common_function
  +--> memcpy?_/memcpy

number_conversion_ascii/zf_common_functi+     0B4FH 0B4FH
... on
  +--> ?C?SLDIV/?C?SLDIV
  +--> ?C?ULIDIV/?C?ULDIV

printf_reverse_order/zf_common_function       ----- -----

*** NEW ROOT ********************************

?C_C51STARTUP?2                               ----- -----


L251 LINKER/LOCATER V4.66.93.0                                                        02/28/2025  00:29:39  PAGE 19



PUBLIC SYMBOLS OF MODULE:  .\out_file\SEEKFREE (ai8051u_isr)


      VALUE       CLASS    TYPE      PUBLIC SYMBOL NAME
      =================================================
*DEL*:1FFFFFF8H   XDATA    BYTE      ?BL_uart_init?BYTE
      00FF38F9H   CODE     ---       ?C?BMOVEPP
      00FF38F7H   CODE     ---       ?C?BMOVEPP8
      00FF259FH   CODE     NEAR LAB  ?C?CASTD
      00FF37E7H   CODE     NEAR LAB  ?C?CASTF
      000000FFH   NUMBER   ---       ?C?CODESEG
      00FF255CH   CODE     NEAR LAB  ?C?DCASTC
      00FF25FFH   CODE     NEAR LAB  ?C?DCASTF
      00FF2557H   CODE     NEAR LAB  ?C?DCASTI
      00FF2552H   CODE     NEAR LAB  ?C?DCASTL
      00FF2FB3H   CODE     ---       ?C?DP2SERIES
      00FF2225H   CODE     ---       ?C?DPADD
      00FF24E5H   CODE     ---       ?C?DPCMP
      00FF24E3H   CODE     ---       ?C?DPCMP3
      00FF329EH   CODE     ---       ?C?DPCONVERT
      00FF2444H   CODE     ---       ?C?DPDIV
      00FF2AD5H   CODE     ---       ?C?DPGETOPN2
      00FF2334H   CODE     ---       ?C?DPMUL
      00FF2B20H   CODE     ---       ?C?DPNANRESULT
      00FF2544H   CODE     ---       ?C?DPNEG
      00FF2B2CH   CODE     ---       ?C?DPOVERFLOW
      00FF2AF8H   CODE     ---       ?C?DPRESULT
      00FF2B11H   CODE     ---       ?C?DPRESULT2
      00FF33C5H   CODE     ---       ?C?DPROUND
      00FF2FBEH   CODE     ---       ?C?DPSERIES
      00FF2221H   CODE     ---       ?C?DPSUB
      00FF2B27H   CODE     ---       ?C?DPUNDERFLOW
      00FF34A0H   CODE     ---       ?C?DTNPWR
      00FF37B4H   CODE     NEAR LAB  ?C?FCASTC
      00FF2641H   CODE     NEAR LAB  ?C?FCASTD
      00FF37AFH   CODE     NEAR LAB  ?C?FCASTI
      00FF37AAH   CODE     NEAR LAB  ?C?FCASTL
      00FF357DH   CODE     ---       ?C?FPADD
      00FF3758H   CODE     ---       ?C?FPCMP
      00FF3756H   CODE     ---       ?C?FPCMP3
      00FF36D5H   CODE     ---       ?C?FPDIV
      00FF3526H   CODE     ---       ?C?FPGETOPN2
      00FF3635H   CODE     ---       ?C?FPMUL
      00FF3563H   CODE     ---       ?C?FPNANRESULT
      00FF379CH   CODE     ---       ?C?FPNEG
      00FF356BH   CODE     ---       ?C?FPOVERFLOW
      00FF353FH   CODE     ---       ?C?FPRESULT
      00FF3555H   CODE     ---       ?C?FPRESULT2
      00FF357AH   CODE     ---       ?C?FPSUB
      00FF3568H   CODE     ---       ?C?FPUNDERFLOW
      00FF8FD7H   CODE     ---       ?C?INITHDATA
      00FF9D30H   HCONST   WORD      ?C?INITHDATA_END
      00FF3867H   CODE     ---       ?C?LIMUL
      00FF3856H   CODE     ---       ?C?LMUL
      00FF2B85H   CODE     ---       ?C?PRNFMT
      00FF3824H   CODE     ---       ?C?SIDIV
      00FF38C3H   CODE     NEAR LAB  ?C?SLDIV
      00FF0000H   CODE     ---       ?C?STARTUP
      00FF3872H   CODE     NEAR LAB  ?C?ULDIV
      00FF3870H   CODE     NEAR LAB  ?C?ULIDIV
      00000001H   NUMBER   ---       ?C?XDATASEG
      00FF0000H   CODE     ---       ?C_STARTUP
      00010B4AH   XDATA    BYTE      ?fifo_init?BYTE
      00010B57H   XDATA    BYTE      ?fifo_read_buffer?BYTE
L251 LINKER/LOCATER V4.66.93.0                                                        02/28/2025  00:29:39  PAGE 20


      00010B57H   XDATA    BYTE      ?fifo_write_buffer?BYTE
*DEL*:1FFFFFFCH   XDATA    BYTE      ?func_double_to_str?BYTE
*DEL*:00000000H   XDATA    BYTE      ?get_two_points_azimuth?BYTE
*DEL*:00000000H   XDATA    BYTE      ?get_two_points_distance?BYTE
*DEL*:1FFFFFFCH   XDATA    BYTE      ?iap_read_buff?BYTE
*DEL*:1FFFFFFCH   XDATA    BYTE      ?iap_write_buff?BYTE
*DEL*:1FFFFFF8H   XDATA    BYTE      ?ips114_show_chinese?BYTE
*DEL*:1FFFFFFEH   XDATA    BYTE      ?ips114_show_float?BYTE
*DEL*:1FFFFFFCH   XDATA    BYTE      ?ips114_show_wave?BYTE
*DEL*:1FFFFFF8H   XDATA    BYTE      ?ips200_show_chinese?BYTE
      00010AB9H   XDATA    BYTE      ?ips200_show_float?BYTE
*DEL*:1FFFFFFCH   XDATA    BYTE      ?ips200_show_wave?BYTE
*DEL*:1FFFFFF8H   XDATA    BYTE      ?PID_increment?BYTE
*DEL*:1FFFFFF8H   XDATA    BYTE      ?PID_Init?BYTE
*DEL*:1FFFFFF8H   XDATA    BYTE      ?PID_position?BYTE
      00010AE3H   XDATA    ---       ?printf?BYTE
      00010AB9H   XDATA    BYTE      ?pwm_init?BYTE
*DEL*:1FFFFFFAH   XDATA    BYTE      ?pwm_set_freq?BYTE
*DEL*:1FFFFFF8H   XDATA    BYTE      ?seekfree_assistant_camera_boundary_config?BYTE
      00010E12H   XDATA    BYTE      ?seekfree_assistant_camera_data_send?BYTE
*DEL*:1FFFFFF8H   XDATA    BYTE      ?seekfree_assistant_camera_information_config?BYTE
*DEL*:1FFFFFF7H   XDATA    BYTE      ?soft_iic_init?BYTE
*DEL*:1FFFFFFCH   XDATA    BYTE      ?soft_iic_read_16bit_array?BYTE
*DEL*:1FFFFFFCH   XDATA    BYTE      ?soft_iic_read_16bit_registers?BYTE
*DEL*:1FFFFFFCH   XDATA    BYTE      ?soft_iic_read_8bit_array?BYTE
      00010E27H   XDATA    BYTE      ?soft_iic_read_8bit_registers?BYTE
*DEL*:1FFFFFFCH   XDATA    BYTE      ?soft_iic_transfer_16bit_array?BYTE
*DEL*:1FFFFFFCH   XDATA    BYTE      ?soft_iic_transfer_8bit_array?BYTE
*DEL*:1FFFFFFCH   XDATA    BYTE      ?soft_iic_write_16bit_array?BYTE
*DEL*:1FFFFFFCH   XDATA    BYTE      ?soft_iic_write_16bit_registers?BYTE
      00010E41H   XDATA    BYTE      ?soft_iic_write_8bit_array?BYTE
*DEL*:1FFFFFFCH   XDATA    BYTE      ?soft_iic_write_8bit_registers?BYTE
      00010AB7H   XDATA    BYTE      ?spi_init?BYTE
*DEL*:1FFFFFFCH   XDATA    BYTE      ?spi_read_16bit_array?BYTE
*DEL*:1FFFFFFCH   XDATA    BYTE      ?spi_read_16bit_registers?BYTE
*DEL*:1FFFFFFCH   XDATA    BYTE      ?spi_read_8bit_array?BYTE
      00010ACBH   XDATA    BYTE      ?spi_read_8bit_registers?BYTE
*DEL*:1FFFFFFCH   XDATA    BYTE      ?spi_transfer_16bit?BYTE
*DEL*:1FFFFFFCH   XDATA    BYTE      ?spi_transfer_8bit?BYTE
*DEL*:1FFFFFFCH   XDATA    BYTE      ?spi_write_16bit_array?BYTE
*DEL*:1FFFFFFCH   XDATA    BYTE      ?spi_write_16bit_registers?BYTE
*DEL*:1FFFFFFCH   XDATA    BYTE      ?spi_write_8bit_array?BYTE
      00010ABBH   XDATA    BYTE      ?spi_write_8bit_registers?BYTE
*DEL*:1FFFFFFEH   XDATA    BYTE      ?tft180_show_float?BYTE
*DEL*:1FFFFFFCH   XDATA    BYTE      ?tft180_show_wave?BYTE
      00010B4CH   XDATA    BYTE      ?uart_init?BYTE
      00010B14H   XDATA    BYTE      ?zf_sprintf?BYTE
      00000108H   HDATA    ---       __mp__
      00FF2B3AH   CODE     ---       _chkdouble_?_
*SFR* 000000BCH   DATA     BYTE      ADC_CONTR
      00FF9601H   CODE     ---       adc_convert
      00FF893BH   CODE     ---       adc_init
*DEL*:00000000H   CODE     ---       adc_mean_filter_convert
*SFR* 000000BDH   DATA     BYTE      ADC_RES
*SFR* 000000BEH   DATA     BYTE      ADC_RESL
*SFR* 000000DEH   DATA     BYTE      ADCCFG
      00FF96BEH   CODE     ---       All_Init
      00FF41ECH   CODE     ---       ascii_font_6x8
      00FF2AABH   CODE     ---       asin?_
      00FF2990H   CODE     ---       atan?_
*SFR* 000000EFH   DATA     BYTE      AUXINTIF
*SFR* 0000008EH   DATA     BYTE      AUXR
*SFR* 00000097H   DATA     BYTE      AUXR2
*DEL*:00000000H   CODE     ---       BL_uart_init
*DEL*:00000000H   CODE     ---       ble6a20_callback
L251 LINKER/LOCATER V4.66.93.0                                                        02/28/2025  00:29:39  PAGE 21


*DEL*:00000000H   CODE     ---       ble6a20_init
*DEL*:00000000H   CODE     ---       ble6a20_read_buffer
*DEL*:00000000H   CODE     ---       ble6a20_send_buffer
*DEL*:00000000H   CODE     ---       ble6a20_send_byte
*DEL*:00000000H   CODE     ---       ble6a20_send_string
      0001001BH   XDATA    WORD      bool_bit
      00010005H   XDATA    WORD      bool_index
*DEL*:00000000H   CODE     ---       CCD_Display
      00FF3920H   CODE     ---       chinese_test
      00010E96H   XDATA    CHAR      Choice
*SFR* 000000EAH   DATA     BYTE      CKCON
      00FF789CH   CODE     ---       clock_init
*SFR* 000000E6H   DATA     BYTE      CMPCR1
*SFR* 000000E7H   DATA     BYTE      CMPCR2
      00FF27F8H   CODE     ---       cos?_
      00FF89FCH   CODE     ---       debug_init
      00FF947AH   CODE     ---       debug_interrupr_handler
*DEL*:00000000H   CODE     ---       debug_read_buffer
*DEL*:00000000H   CODE     ---       debug_send_buffer
      00010B6FH   XDATA    ---       debug_uart_buffer
      00010BB0H   XDATA    ---       debug_uart_fifo
      00010DCFH   XDATA    WORD      dl1a_distance_mm
      00010DD1H   XDATA    BYTE      dl1a_finsh_flag
*DEL*:00000000H   CODE     ---       dl1a_get_distance
*DEL*:00000000H   CODE     ---       dl1a_init
*DEL*:00000000H   CODE     ---       dl1a_int_handler
      00FF7F87H   CODE     ---       DMA_UART1_IRQHandler
      00FF85A3H   CODE     ---       DMA_UART2_IRQHandler
      00FF861CH   CODE     ---       DMA_UART3_IRQHandler
      00FF8695H   CODE     ---       DMA_UART4_IRQHandler
      00010E29H   XDATA    WORD      duty
*SFR* 000000A8H.7 DATA     BIT       EA
      00FF0190H   CODE     ---       eeprom_trig
      00FF8520H   CODE     ---       encoder_clear_count
      00010D99H   XDATA    DWORD     encoder_data
      00FF7B9FH   CODE     ---       encoder_dir_init
      00FF7CFFH   CODE     ---       encoder_get
      00FF81DDH   CODE     ---       encoder_get_count
      00FF019EH   CODE     ---       encoder_Init
      00010017H   XDATA    DWORD     err
*SFR* 000000A8H.1 DATA     BIT       ET0
*SFR* 000000A8H.3 DATA     BIT       ET1
      00FF309AH   CODE     ---       exp?_
*DEL*:00000000H   CODE     ---       extern_iap_write_buff
      00FF849DH   CODE     ---       fifo_clear
      00FF01CEH   CODE     ---       fifo_init
      00FF55E9H   CODE     ---       fifo_read_buffer
      00FF97D8H   CODE     ---       fifo_used
      00FF590CH   CODE     ---       fifo_write_buffer
*DEL*:00000000H   CODE     ---       free
*DEL*:00000000H   CODE     ---       func_double_to_str
*DEL*:00000000H   CODE     ---       func_float_to_str
*DEL*:00000000H   CODE     ---       func_get_greatest_common_divisor
*DEL*:00000000H   CODE     ---       func_hex_to_str
*DEL*:00000000H   CODE     ---       func_int_to_str
*DEL*:00000000H   CODE     ---       func_soft_delay
      00FF635BH   CODE     ---       func_str_to_double
*DEL*:00000000H   CODE     ---       func_str_to_float
      00FF7DADH   CODE     ---       func_str_to_hex
      00FF8B12H   CODE     ---       func_str_to_int
*DEL*:00000000H   CODE     ---       func_str_to_uint
*DEL*:00000000H   CODE     ---       func_uint_to_str
*DEL*:00000000H   CODE     ---       get_drift
*DEL*:00000000H   CODE     ---       get_two_points_azimuth
*DEL*:00000000H   CODE     ---       get_two_points_distance
L251 LINKER/LOCATER V4.66.93.0                                                        02/28/2025  00:29:39  PAGE 22


      00FF7538H   CODE     ---       get_yaw_data
      00FF77D3H   CODE     ---       gpio_get_level
      00FF8869H   CODE     ---       gpio_init
      00FF7A28H   CODE     ---       gpio_set_impedance
      00FF70CAH   CODE     ---       gpio_set_level
      00FF6763H   CODE     ---       gpio_set_level_speed
*DEL*:00000000H   CODE     ---       gpio_toggle_level
*DEL*:00000000H   CODE     ---       gps_data_parse
*DEL*:00000000H   CODE     ---       GPS_Display
      000107F6H   XDATA    INT       gps_gga_state
      00FF5C13H   CODE     ---       gps_init
      000107F8H   XDATA    INT       gps_rmc_state
      000106C2H   XDATA    ---       gps_tau1201
      00010641H   XDATA    BYTE      gps_tau1201_flag
      00010E53H   XDATA    INT       gps_type
      00FF6C79H   CODE     ---       gps_uart_callback
      00010CB6H   XDATA    FLOAT     gyro_x
      00010CBAH   XDATA    FLOAT     gyro_y
      00010CBEH   XDATA    FLOAT     gyro_z
      00010CB2H   XDATA    FLOAT     gz_out
      000107FAH   XDATA    WORD      i
*SFR* 000000F6H   DATA     BYTE      IAP_ADDRE
*SFR* 000000C3H   DATA     BYTE      IAP_ADDRH
*SFR* 000000C4H   DATA     BYTE      IAP_ADDRL
*SFR* 000000C5H   DATA     BYTE      IAP_CMD
*SFR* 000000C7H   DATA     BYTE      IAP_CONTR
*SFR* 000000C2H   DATA     BYTE      IAP_DATA
*DEL*:00000000H   CODE     ---       iap_erase_page
*DEL*:00000000H   CODE     ---       iap_get_cmd_state
*DEL*:00000000H   CODE     ---       iap_idle
*DEL*:00000000H   CODE     ---       iap_init
*DEL*:00000000H   CODE     ---       iap_read_buff
*DEL*:00000000H   CODE     ---       iap_read_byte
*DEL*:00000000H   CODE     ---       iap_set_tps
*SFR* 000000F5H   DATA     BYTE      IAP_TPS
*SFR* 000000C6H   DATA     BYTE      IAP_TRIG
*DEL*:00000000H   CODE     ---       iap_write_buff
*DEL*:00000000H   CODE     ---       iap_write_byte
      00010D6DH   XDATA    INT       icm20602_acc_x
      00010D6FH   XDATA    INT       icm20602_acc_y
      00010D71H   XDATA    INT       icm20602_acc_z
*DEL*:00000000H   CODE     ---       icm20602_get_acc
*DEL*:00000000H   CODE     ---       icm20602_get_gyro
      00010D73H   XDATA    INT       icm20602_gyro_x
      00010D75H   XDATA    INT       icm20602_gyro_y
      00010D77H   XDATA    INT       icm20602_gyro_z
*DEL*:00000000H   CODE     ---       icm20602_init
      00010D79H   XDATA    ---       icm20602_transition_factor
      0001000AH   XDATA    DWORD     idc
      0001000EH   XDATA    WORD      idi
      00010011H   XDATA    WORD      idl
*SFR* 000000A8H   DATA     BYTE      IE
*SFR* 000000AFH   DATA     BYTE      IE2
      00010D81H   XDATA    INT       imu660ra_acc_x
      00010D83H   XDATA    INT       imu660ra_acc_y
      00010D85H   XDATA    INT       imu660ra_acc_z
      00FF021EH   CODE     ---       imu660ra_config_file
*DEL*:00000000H   CODE     ---       imu660ra_get_acc
      00FF8D63H   CODE     ---       imu660ra_get_gyro
      00010D87H   XDATA    INT       imu660ra_gyro_x
      00010D89H   XDATA    INT       imu660ra_gyro_y
      00010D8BH   XDATA    INT       imu660ra_gyro_z
      00FF7341H   CODE     ---       imu660ra_init
      00010D8DH   XDATA    ---       imu660ra_transition_factor
      00010D21H   XDATA    INT       imu963ra_acc_x
L251 LINKER/LOCATER V4.66.93.0                                                        02/28/2025  00:29:39  PAGE 23


      00010D23H   XDATA    INT       imu963ra_acc_y
      00010D25H   XDATA    INT       imu963ra_acc_z
*DEL*:00000000H   CODE     ---       imu963ra_get_acc
*DEL*:00000000H   CODE     ---       imu963ra_get_gyro
*DEL*:00000000H   CODE     ---       imu963ra_get_mag
      00010D2DH   XDATA    INT       imu963ra_gyro_x
      00010D2FH   XDATA    INT       imu963ra_gyro_y
      00010D31H   XDATA    INT       imu963ra_gyro_z
*DEL*:00000000H   CODE     ---       imu963ra_init
      00010D27H   XDATA    INT       imu963ra_mag_x
      00010D29H   XDATA    INT       imu963ra_mag_y
      00010D2BH   XDATA    INT       imu963ra_mag_z
      00010D33H   XDATA    ---       imu963ra_transition_factor
      00010D95H   XDATA    FLOAT     INS_V
      00010D0FH   XDATA    ---       int0_irq_handler
      00010D13H   XDATA    ---       int1_irq_handler
      00010D17H   XDATA    ---       int2_irq_handler
      00010D1BH   XDATA    ---       int3_irq_handler
      00010D1FH   XDATA    ---       int4_irq_handler
*SFR* 0000008FH   DATA     BYTE      INTCLKO
*DEL*:00000000H   CODE     ---       interrupt_global_disable
      00FF001EH   CODE     ---       interrupt_global_enable
*DEL*:00000000H   CODE     ---       interrupt_set_priority
      00FF0026H   CODE     ---       Interrupt_Solution
*SFR* 000000B8H   DATA     BYTE      IP
*SFR* 000000B5H   DATA     BYTE      IP2
*SFR* 000000B6H   DATA     BYTE      IP2H
*SFR* 000000DFH   DATA     BYTE      IP3
*SFR* 000000EEH   DATA     BYTE      IP3H
*SFR* 000000B7H   DATA     BYTE      IPH
      00010E5FH   XDATA    WORD      ips114_bgcolor
*DEL*:00000000H   CODE     ---       ips114_clear
      00010E61H   XDATA    INT       ips114_display_dir
*DEL*:00000000H   CODE     ---       ips114_draw_point
*DEL*:00000000H   CODE     ---       ips114_init
      00010E5DH   XDATA    WORD      ips114_pencolor
*DEL*:00000000H   CODE     ---       ips114_set_color
*DEL*:00000000H   CODE     ---       ips114_set_dir
*DEL*:00000000H   CODE     ---       ips114_show_char
*DEL*:00000000H   CODE     ---       ips114_show_chinese
*DEL*:00000000H   CODE     ---       ips114_show_float
*DEL*:00000000H   CODE     ---       ips114_show_int16
*DEL*:00000000H   CODE     ---       ips114_show_int32
*DEL*:00000000H   CODE     ---       ips114_show_int8
*DEL*:00000000H   CODE     ---       ips114_show_string
*DEL*:00000000H   CODE     ---       ips114_show_uint16
*DEL*:00000000H   CODE     ---       ips114_show_uint8
*DEL*:00000000H   CODE     ---       ips114_show_wave
      00010E63H   XDATA    BYTE      ips114_x_max
      00010E64H   XDATA    BYTE      ips114_y_max
      00010E0FH   XDATA    WORD      ips200_bgcolor
      00FF8BC1H   CODE     ---       ips200_clear
      00010E11H   XDATA    INT       ips200_display_dir
*DEL*:00000000H   CODE     ---       ips200_draw_point
      00FF6138H   CODE     ---       ips200_init
      00FF8149H   CODE     ---       ips200_myclear
      00010E0DH   XDATA    WORD      ips200_pencolor
      00FF000EH   CODE     ---       ips200_set_color
      00FF0003H   CODE     ---       ips200_set_dir
      00FF82FBH   CODE     ---       ips200_show_char
*DEL*:00000000H   CODE     ---       ips200_show_chinese
      00FF6F70H   CODE     ---       ips200_show_float
*DEL*:00000000H   CODE     ---       ips200_show_int16
*DEL*:00000000H   CODE     ---       ips200_show_int32
*DEL*:00000000H   CODE     ---       ips200_show_int8
L251 LINKER/LOCATER V4.66.93.0                                                        02/28/2025  00:29:39  PAGE 24


      00FF8AB8H   CODE     ---       ips200_show_string
*DEL*:00000000H   CODE     ---       ips200_show_uint16
*DEL*:00000000H   CODE     ---       ips200_show_uint8
*DEL*:00000000H   CODE     ---       ips200_show_wave
      00010E13H   XDATA    WORD      ips200_x_max
      00010E15H   XDATA    WORD      ips200_y_max
*SFR* 0000009DH   DATA     BYTE      IRCBAND
      00010010H   XDATA    BYTE      isok
      000107FCH   XDATA    WORD      j
      00FF3183H   CODE     NEAR LAB  log?_
      00010013H   XDATA    WORD      loop
      00010D9DH   XDATA    FLOAT     low_pass
      00FF97C2H   CODE     ---       main
*DEL*:00000000H   CODE     ---       malloc
      00FF977EH   CODE     ---       memcpy?_
      00FF0046H   CODE     ---       memset?_
      00FF6576H   CODE     ---       Menu_display
*DEL*:00000000H   CODE     ---       Motor_AroundLoad
*DEL*:00000000H   CODE     ---       Motor_BehindLoad
*DEL*:00000000H   CODE     ---       Motor_BottomLoad
      00FF8413H   CODE     ---       Motor_Init
*DEL*:00000000H   CODE     ---       mpu6050_acc_transition
      00010D58H   XDATA    INT       mpu6050_acc_x
      00010D5AH   XDATA    INT       mpu6050_acc_y
      00010D5CH   XDATA    INT       mpu6050_acc_z
*DEL*:00000000H   CODE     ---       mpu6050_get_acc
*DEL*:00000000H   CODE     ---       mpu6050_get_gyro
*DEL*:00000000H   CODE     ---       mpu6050_gyro_transition
      00010D5EH   XDATA    INT       mpu6050_gyro_x
      00010D60H   XDATA    INT       mpu6050_gyro_y
      00010D62H   XDATA    INT       mpu6050_gyro_z
*DEL*:00000000H   CODE     ---       mpu6050_init
*SFR* 00000080H   DATA     BYTE      P0
*SFR* 00000094H   DATA     BYTE      P0M0
*SFR* 00000093H   DATA     BYTE      P0M1
*SFR* 00000090H   DATA     BYTE      P1
*SFR* 00000092H   DATA     BYTE      P1M0
*SFR* 00000091H   DATA     BYTE      P1M1
*SFR* 000000A0H   DATA     BYTE      P2
*SFR* 000000A0H.0 DATA     BIT       P20
*SFR* 000000A0H.1 DATA     BIT       P21
*SFR* 000000A0H.2 DATA     BIT       P22
*SFR* 00000096H   DATA     BYTE      P2M0
*SFR* 00000095H   DATA     BYTE      P2M1
*SFR* 000000B0H   DATA     BYTE      P3
*SFR* 000000B2H   DATA     BYTE      P3M0
*SFR* 000000B1H   DATA     BYTE      P3M1
*SFR* 000000C0H   DATA     BYTE      P4
*SFR* 000000B4H   DATA     BYTE      P4M0
*SFR* 000000B3H   DATA     BYTE      P4M1
*SFR* 000000C8H   DATA     BYTE      P5
*SFR* 000000CAH   DATA     BYTE      P5M0
*SFR* 000000C9H   DATA     BYTE      P5M1
*SFR* 000000E8H   DATA     BYTE      P6
*SFR* 000000CCH   DATA     BYTE      P6M0
*SFR* 000000CBH   DATA     BYTE      P6M1
*SFR* 000000F8H   DATA     BYTE      P7
*SFR* 000000E2H   DATA     BYTE      P7M0
*SFR* 000000E1H   DATA     BYTE      P7M1
*SFR* 000000A2H   DATA     BYTE      P_SW1
*SFR* 000000BAH   DATA     BYTE      P_SW2
*SFR* 000000BBH   DATA     BYTE      P_SW3
*SFR* 000000BFH   DATA     BYTE      P_SW4
*SFR* 00000087H   DATA     BYTE      PCON
*DEL*:00000000H   CODE     ---       PID_increment
L251 LINKER/LOCATER V4.66.93.0                                                        02/28/2025  00:29:39  PAGE 25


*DEL*:00000000H   CODE     ---       PID_Init
*DEL*:00000000H   CODE     ---       PID_position
      00FF76FCH   CODE     ---       pit_handler
      00FF6920H   CODE     ---       pit_init
      00010CD6H   XDATA    FLOAT     PITCH
      00010E25H   XDATA    LONG      position_out
*DEL*:00000000H   CODE     ---       pow?_
      00FF2678H   CODE     NEAR LAB  printf
*SFR* 000000D0H   DATA     BYTE      PSW
*SFR* 000000D1H   DATA     BYTE      PSW1
      00FF984BH   CODE     ---       putchar
      00FFA574H   HCONST   ---       PWM_ARR_ADDR
      00FFA57CH   HCONST   ---       PWM_CCER_ADDR
      00FFA58CH   HCONST   ---       PWM_CCMR_ADDR
      00FFA554H   HCONST   ---       PWM_CCR_ADDR
      00FF4E99H   CODE     ---       pwm_init
      00FFA54CH   HCONST   ---       PWM_PSCR_ADDR
*DEL*:00000000H   CODE     ---       pwm_set_duty
*DEL*:00000000H   CODE     ---       pwm_set_freq
      00010E02H   XDATA    FLOAT     R_x_val
      00010E06H   XDATA    FLOAT     R_y_val
      00010015H   XDATA    WORD      rdi
      00010007H   XDATA    WORD      rdii
      0001001DH   XDATA    LONG      rdIndex
*DEL*:00000000H   CODE     ---       readValuePack
      00FF9759H   CODE     ---       rocker_init
      00FF7621H   CODE     ---       rocker_read
      00010E0AH   XDATA    WORD      Rocker_state
      00010CC2H   XDATA    FLOAT     ROLL
*SFR* 000000FFH   DATA     BYTE      RSTCFG
      00010021H   XDATA    WORD      rx_pack_length
      00010424H   XDATA    LONG      rxIndex
      00010C76H   XDATA    ---       rxpack
      00FF0096H   HCONST   WORD      RXPACK_BYTE_SIZE
*SFR* 0000009BH   DATA     BYTE      S2BUF
*SFR* 0000009AH   DATA     BYTE      S2CON
*SFR* 0000009AH.1 DATA     BIT       S2TI
*SFR* 000000ACH   DATA     BYTE      S3CON
*SFR* 000000FDH   DATA     BYTE      S4CON
*SFR* 00000099H   DATA     BYTE      SBUF
*SFR* 00000098H   DATA     BYTE      SCON
*DEL*:00000000H   CODE     ---       seekfree_assistant_camera_boundary_config
      00FF7440H   CODE     ---       seekfree_assistant_camera_data_send
      00FF00C6H   CODE     ---       seekfree_assistant_camera_dot_send
*DEL*:00000000H   CODE     ---       seekfree_assistant_camera_information_config
*DEL*:00000000H   CODE     ---       seekfree_assistant_camera_send
*DEL*:00000000H   CODE     ---       seekfree_assistant_data_analysis
*DEL*:00000000H   CODE     ---       seekfree_assistant_init
*DEL*:00000000H   CODE     ---       seekfree_assistant_interface_init
      00010986H   XDATA    ---       seekfree_assistant_oscilloscope_data
*DEL*:00000000H   CODE     ---       seekfree_assistant_oscilloscope_send
      000109C9H   XDATA    ---       seekfree_assistant_parameter
      000109C1H   XDATA    ---       seekfree_assistant_parameter_update_flag
      00010E7FH   XDATA    ---       seekfree_assistant_receive_callback
*DEL*:00000000H   CODE     ---       seekfree_assistant_transfer
      00010E81H   XDATA    ---       seekfree_assistant_transfer_callback
*DEL*:00000000H   CODE     ---       sendBuffer
*DEL*:00000000H   CODE     ---       sendByte
*DEL*:00000000H   CODE     ---       sendValuePack
*DEL*:00000000H   CODE     ---       sensor_dispaly
      00FF94B5H   CODE     ---       set_gps_type
*DEL*:00000000H   CODE     ---       set_tof_type
*DEL*:00000000H   CODE     ---       set_wireless_type
      00FF2819H   CODE     ---       sin?_
      00FF9528H   CODE     ---       soft_iic_delay
L251 LINKER/LOCATER V4.66.93.0                                                        02/28/2025  00:29:39  PAGE 26


*DEL*:00000000H   CODE     ---       soft_iic_init
*DEL*:00000000H   CODE     ---       soft_iic_read_16bit
*DEL*:00000000H   CODE     ---       soft_iic_read_16bit_array
*DEL*:00000000H   CODE     ---       soft_iic_read_16bit_register
*DEL*:00000000H   CODE     ---       soft_iic_read_16bit_registers
*DEL*:00000000H   CODE     ---       soft_iic_read_8bit
*DEL*:00000000H   CODE     ---       soft_iic_read_8bit_array
*DEL*:00000000H   CODE     ---       soft_iic_read_8bit_register
      00FF826CH   CODE     ---       soft_iic_read_8bit_registers
      00FF7EEDH   CODE     ---       soft_iic_read_data
*DEL*:00000000H   CODE     ---       soft_iic_sccb_read_register
*DEL*:00000000H   CODE     ---       soft_iic_sccb_write_register
      00FF8C18H   CODE     ---       soft_iic_send_ack
      00FF8786H   CODE     ---       soft_iic_send_data
      00FF934DH   CODE     ---       soft_iic_start
      00FF8F34H   CODE     ---       soft_iic_stop
*DEL*:00000000H   CODE     ---       soft_iic_transfer_16bit_array
*DEL*:00000000H   CODE     ---       soft_iic_transfer_8bit_array
      00FF8A5AH   CODE     ---       soft_iic_wait_ack
*DEL*:00000000H   CODE     ---       soft_iic_write_16bit
*DEL*:00000000H   CODE     ---       soft_iic_write_16bit_array
*DEL*:00000000H   CODE     ---       soft_iic_write_16bit_register
*DEL*:00000000H   CODE     ---       soft_iic_write_16bit_registers
*DEL*:00000000H   CODE     ---       soft_iic_write_8bit
      00FF8B6AH   CODE     ---       soft_iic_write_8bit_array
      00FF9597H   CODE     ---       soft_iic_write_8bit_register
*DEL*:00000000H   CODE     ---       soft_iic_write_8bit_registers
*SFR* 000000CEH   DATA     BYTE      SPCTL
*SFR* 000000CFH   DATA     BYTE      SPDAT
      00010E21H   XDATA    LONG      speed_base
      00FF5246H   CODE     ---       spi_init
*DEL*:00000000H   CODE     ---       spi_read_16bit
*DEL*:00000000H   CODE     ---       spi_read_16bit_array
*DEL*:00000000H   CODE     ---       spi_read_16bit_register
*DEL*:00000000H   CODE     ---       spi_read_16bit_registers
*DEL*:00000000H   CODE     ---       spi_read_8bit
*DEL*:00000000H   CODE     ---       spi_read_8bit_array
      00FF985BH   CODE     ---       spi_read_8bit_register
      00FF90DCH   CODE     ---       spi_read_8bit_registers
      00FF911CH   CODE     ---       spi_read_dat
*DEL*:00000000H   CODE     ---       spi_transfer_16bit
*DEL*:00000000H   CODE     ---       spi_transfer_8bit
      00FF97EDH   CODE     ---       spi_write_16bit
*DEL*:00000000H   CODE     ---       spi_write_16bit_array
*DEL*:00000000H   CODE     ---       spi_write_16bit_register
*DEL*:00000000H   CODE     ---       spi_write_16bit_registers
      00FF0040H   CODE     ---       spi_write_8bit
*DEL*:00000000H   CODE     ---       spi_write_8bit_array
      00FF00A6H   CODE     ---       spi_write_8bit_register
      00FF938AH   CODE     ---       spi_write_8bit_registers
      00FF9690H   CODE     ---       spi_write_dat
*SFR* 000000CDH   DATA     BYTE      SPSTAT
      00FF26AAH   CODE     ---       sqrt?_
      00FF97A3H   CODE     ---       strchr?_
      00FF987BH   CODE     ---       strlen?_
      00FF9560H   CODE     ---       strncmp?_
      00FF9631H   CODE     ---       strncpy?_
      00010023H   XDATA    BYTE      sum
      00010E73H   XDATA    LONG      system_clock
      00FF8DB3H   CODE     ---       system_delay_init
      00FF8D12H   CODE     ---       system_delay_ms
*DEL*:00000000H   CODE     ---       system_delay_us
*SFR* 000000D6H   DATA     BYTE      T2H
*SFR* 000000D7H   DATA     BYTE      T2L
*SFR* 000000D4H   DATA     BYTE      T3H
L251 LINKER/LOCATER V4.66.93.0                                                        02/28/2025  00:29:39  PAGE 27


*SFR* 000000D5H   DATA     BYTE      T3L
*SFR* 000000D2H   DATA     BYTE      T4H
*SFR* 000000D3H   DATA     BYTE      T4L
*SFR* 000000DDH   DATA     BYTE      T4T3M
      00FF284EH   CODE     ---       TAN?_
*SFR* 00000088H   DATA     BYTE      TCON
      00010DEBH   XDATA    ---       TFlag1
      00010E57H   XDATA    WORD      tft180_bgcolor
*DEL*:00000000H   CODE     ---       tft180_clear
      00010E59H   XDATA    INT       tft180_display_dir
*DEL*:00000000H   CODE     ---       tft180_draw_point
*DEL*:00000000H   CODE     ---       tft180_init
      00010E55H   XDATA    WORD      tft180_pencolor
*DEL*:00000000H   CODE     ---       tft180_set_color
*DEL*:00000000H   CODE     ---       tft180_set_dir
*DEL*:00000000H   CODE     ---       tft180_show_char
*DEL*:00000000H   CODE     ---       tft180_show_float
*DEL*:00000000H   CODE     ---       tft180_show_int16
*DEL*:00000000H   CODE     ---       tft180_show_int32
*DEL*:00000000H   CODE     ---       tft180_show_int8
*DEL*:00000000H   CODE     ---       tft180_show_string
*DEL*:00000000H   CODE     ---       tft180_show_uint16
*DEL*:00000000H   CODE     ---       tft180_show_uint8
*DEL*:00000000H   CODE     ---       tft180_show_wave
      00010E5BH   XDATA    BYTE      tft180_x_max
      00010E5CH   XDATA    BYTE      tft180_y_max
      00FF3BFCH   CODE     ---       tft_ascii
*SFR* 0000008CH   DATA     BYTE      TH0
*SFR* 0000008DH   DATA     BYTE      TH1
*SFR* 00000098H.1 DATA     BIT       TI
      00010D0DH   XDATA    ---       tim0_irq_handler
      00010D03H   XDATA    ---       tim11_irq_handler
      00010D11H   XDATA    ---       tim1_irq_handler
      00010D15H   XDATA    ---       tim2_irq_handler
      00010D19H   XDATA    ---       tim3_irq_handler
      00010D1DH   XDATA    ---       tim4_irq_handler
*DEL*:00000000H   CODE     ---       timer_funciton_check
      00FF9661H   CODE     ---       timer_Init
*SFR* 0000008AH   DATA     BYTE      TL0
*SFR* 0000008BH   DATA     BYTE      TL1
      00FF9217H   CODE     ---       TM0_IRQHandler
      00FF8EA0H   CODE     ---       TM11_IRQHandler
      00FF9255H   CODE     ---       TM1_IRQHandler
      00FF9293H   CODE     ---       TM2_IRQHandler
      00FF92D1H   CODE     ---       TM3_IRQHandler
      00FF930FH   CODE     ---       TM4_IRQHandler
*SFR* 00000089H   DATA     BYTE      TMOD
      00010E4DH   XDATA    ---       tof_module_exti_handler
      00010E51H   XDATA    INT       tof_type
*SFR* 00000088H.4 DATA     BIT       TR0
*SFR* 00000088H.6 DATA     BIT       TR1
*DEL*:00000000H   CODE     ---       tsl1401_collect_pit_handler
      00010429H   XDATA    ---       tsl1401_data
      00010428H   XDATA    BYTE      tsl1401_finish_flag
      00FF943EH   CODE     ---       tsl1401_init
*DEL*:00000000H   CODE     ---       tsl1401_send_data
      00010C93H   XDATA    ---       txpack
      00FF0098H   HCONST   WORD      TXPACK_BYTE_SIZE
*DEL*:00000000H   CODE     ---       UART1_Callback
      00010D05H   XDATA    ---       uart1_irq_handler
      00010D07H   XDATA    ---       uart2_irq_handler
      00010D09H   XDATA    ---       uart3_irq_handler
      00010D0BH   XDATA    ---       uart4_irq_handler
      00FF7AE8H   CODE     ---       uart_dma_init
*DEL*:00000000H   CODE     ---       uart_funciton_check
L251 LINKER/LOCATER V4.66.93.0                                                        02/28/2025  00:29:39  PAGE 28


      00FF6ADDH   CODE     ---       uart_init
      00FF8EEBH   CODE     ---       uart_query_byte
*DEL*:00000000H   CODE     ---       uart_read_byte
      00010DE7H   XDATA    ---       uart_rx_buff
      00FF93C6H   CODE     ---       uart_rx_interrupt
      00FF899CH   CODE     ---       uart_rx_start_buff
      00FF7E50H   CODE     ---       uart_write_buffer
      00FF9802H   CODE     ---       uart_write_byte
*DEL*:00000000H   CODE     ---       uart_write_string
*SFR* 000000F4H   DATA     BYTE      USBCON
*DEL*:00000000H   CODE     ---       ValuePack_Init
      00010009H   XDATA    BYTE      valuepack_tx_bit_index
      00010004H   XDATA    BYTE      valuepack_tx_index
      00010000H   XDATA    DWORD     vp_circle_rx_index
      00010024H   XDATA    ---       vp_rxbuff
*SFR* 000000C1H   DATA     BYTE      WDT_CONTR
      00010E4FH   XDATA    INT       wireless_type
*DEL*:00000000H   CODE     ---       wireless_uart_callback
*DEL*:00000000H   CODE     ---       wireless_uart_init
*DEL*:00000000H   CODE     ---       wireless_uart_read_buffer
*DEL*:00000000H   CODE     ---       wireless_uart_send_buffer
*DEL*:00000000H   CODE     ---       wireless_uart_send_byte
*DEL*:00000000H   CODE     ---       wireless_uart_send_string
*SFR* 000000ABH   DATA     BYTE      WKTCH
*SFR* 000000E9H   DATA     BYTE      WTST
      000107FEH   XDATA    ---       y1_boundary
      0001087EH   XDATA    ---       y2_boundary
      000108FEH   XDATA    ---       y3_boundary
      00010CCEH   XDATA    FLOAT     YAW
      00010CAAH   XDATA    DOUBLE    yaw_e
      00010CC6H   XDATA    FLOAT     zero_drift_pitch
      00010CCAH   XDATA    FLOAT     zero_drift_roll
      00010CD2H   XDATA    FLOAT     zero_drift_yaw
      00FF4414H   CODE     ---       zf_sprintf



SYMBOL TABLE OF MODULE:  .\out_file\SEEKFREE (ai8051u_isr)

      VALUE       REP       CLASS    TYPE      SYMBOL NAME
      ====================================================
      ---         MODULE    ---      ---       ai8051u_isr

      00FF019BH   BLOCK     CODE     NEAR LAB  LVL=0
      00FF019BH   LINE      CODE     ---       #3
      ---         BLOCKEND  ---      ---       LVL=0

      00FF01ABH   BLOCK     CODE     NEAR LAB  LVL=0
      00FF01ABH   LINE      CODE     ---       #6
      ---         BLOCKEND  ---      ---       LVL=0

      00FF01BBH   BLOCK     CODE     NEAR LAB  LVL=0
      00FF01BBH   LINE      CODE     ---       #9
      ---         BLOCKEND  ---      ---       LVL=0

      00FF01CBH   BLOCK     CODE     NEAR LAB  LVL=0
      00FF01CBH   LINE      CODE     ---       #12
      ---         BLOCKEND  ---      ---       LVL=0

      00FF021BH   BLOCK     CODE     NEAR LAB  LVL=0
      00FF021BH   LINE      CODE     ---       #15
      ---         BLOCKEND  ---      ---       LVL=0

      ---         MODULE    ---      ---       zf_common_clock
      00FF789CH   PUBLIC    CODE     ---       clock_init
L251 LINKER/LOCATER V4.66.93.0                                                        02/28/2025  00:29:39  PAGE 29


      00010E73H   PUBLIC    XDATA    LONG      system_clock
      00000094H   SFRSYM    DATA     BYTE      P0M0
      000000D0H   SFRSYM    DATA     BYTE      PSW
      0000009DH   SFRSYM    DATA     BYTE      IRCBAND
      00000097H   SFRSYM    DATA     BYTE      AUXR2
      000000EAH   SFRSYM    DATA     BYTE      CKCON
      000000EFH   SFRSYM    DATA     BYTE      AUXINTIF
      000000FDH   SFRSYM    DATA     BYTE      S4CON
      000000ACH   SFRSYM    DATA     BYTE      S3CON
      0000009AH   SFRSYM    DATA     BYTE      S2CON
      000000B7H   SFRSYM    DATA     BYTE      IPH
      000000CDH   SFRSYM    DATA     BYTE      SPSTAT
      000000DDH   SFRSYM    DATA     BYTE      T4T3M
      000000C1H   SFRSYM    DATA     BYTE      WDT_CONTR
      000000E9H   SFRSYM    DATA     BYTE      WTST
      000000DFH   SFRSYM    DATA     BYTE      IP3
      000000F4H   SFRSYM    DATA     BYTE      USBCON
      000000B5H   SFRSYM    DATA     BYTE      IP2
      000000FFH   SFRSYM    DATA     BYTE      RSTCFG
      000000C7H   SFRSYM    DATA     BYTE      IAP_CONTR
      0000008EH   SFRSYM    DATA     BYTE      AUXR
      000000AFH   SFRSYM    DATA     BYTE      IE2
      00000088H   SFRSYM    DATA     BYTE      TCON
      00000089H   SFRSYM    DATA     BYTE      TMOD
      00000098H   SFRSYM    DATA     BYTE      SCON
      00000087H   SFRSYM    DATA     BYTE      PCON
      000000BCH   SFRSYM    DATA     BYTE      ADC_CONTR
      000000D1H   SFRSYM    DATA     BYTE      PSW1
      000000E7H   SFRSYM    DATA     BYTE      CMPCR2
      000000E6H   SFRSYM    DATA     BYTE      CMPCR1
      000000DEH   SFRSYM    DATA     BYTE      ADCCFG
      000000B8H   SFRSYM    DATA     BYTE      IP
      0000008FH   SFRSYM    DATA     BYTE      INTCLKO
      000000EEH   SFRSYM    DATA     BYTE      IP3H
      000000B6H   SFRSYM    DATA     BYTE      IP2H
      000000BFH   SFRSYM    DATA     BYTE      P_SW4
      000000A8H   SFRSYM    DATA     BYTE      IE
      000000BBH   SFRSYM    DATA     BYTE      P_SW3
      000000BAH   SFRSYM    DATA     BYTE      P_SW2
      000000A2H   SFRSYM    DATA     BYTE      P_SW1
      000000CEH   SFRSYM    DATA     BYTE      SPCTL
      000000F8H   SFRSYM    DATA     BYTE      P7
      000000E1H   SFRSYM    DATA     BYTE      P7M1
      000000E8H   SFRSYM    DATA     BYTE      P6
      000000C8H   SFRSYM    DATA     BYTE      P5
      000000CBH   SFRSYM    DATA     BYTE      P6M1
      000000E2H   SFRSYM    DATA     BYTE      P7M0
      000000C0H   SFRSYM    DATA     BYTE      P4
      000000C9H   SFRSYM    DATA     BYTE      P5M1
      000000CCH   SFRSYM    DATA     BYTE      P6M0
      000000ABH   SFRSYM    DATA     BYTE      WKTCH
      000000B0H   SFRSYM    DATA     BYTE      P3
      000000B3H   SFRSYM    DATA     BYTE      P4M1
      000000CAH   SFRSYM    DATA     BYTE      P5M0
      000000A0H   SFRSYM    DATA     BYTE      P2
      000000B1H   SFRSYM    DATA     BYTE      P3M1
      000000B4H   SFRSYM    DATA     BYTE      P4M0
      00000090H   SFRSYM    DATA     BYTE      P1
      00000095H   SFRSYM    DATA     BYTE      P2M1
      000000B2H   SFRSYM    DATA     BYTE      P3M0
      00000080H   SFRSYM    DATA     BYTE      P0
      00000091H   SFRSYM    DATA     BYTE      P1M1
      00000096H   SFRSYM    DATA     BYTE      P2M0
      00000092H   SFRSYM    DATA     BYTE      P1M0
      00000093H   SFRSYM    DATA     BYTE      P0M1
L251 LINKER/LOCATER V4.66.93.0                                                        02/28/2025  00:29:39  PAGE 30



      00FF789CH   BLOCK     CODE     ---       LVL=0
      DR12        REGSYM    ---      DWORD     clock
      00FF789CH   LINE      CODE     ---       #47
      00FF78A0H   LINE      CODE     ---       #49
      00FF78A3H   LINE      CODE     ---       #50
      00FF78A6H   LINE      CODE     ---       #51
      00FF78A9H   LINE      CODE     ---       #54
      00FF78B6H   LINE      CODE     ---       #55
      00FF78C4H   LINE      CODE     ---       #56
      00FF78D0H   LINE      CODE     ---       #57
      00FF78DDH   LINE      CODE     ---       #58
      00FF78E1H   LINE      CODE     ---       #60
      00FF78E4H   LINE      CODE     ---       #63
      00FF78EEH   LINE      CODE     ---       #65
      00FF78F1H   LINE      CODE     ---       #66
      00FF78F4H   LINE      CODE     ---       #67
      00FF78F7H   LINE      CODE     ---       #68
      00FF78FAH   LINE      CODE     ---       #69
      00FF78FDH   LINE      CODE     ---       #70
      00FF7900H   LINE      CODE     ---       #71
      00FF7903H   LINE      CODE     ---       #72
      00FF7906H   LINE      CODE     ---       #73
      00FF7909H   LINE      CODE     ---       #74
      00FF790CH   LINE      CODE     ---       #75
      00FF790FH   LINE      CODE     ---       #76
      00FF7912H   LINE      CODE     ---       #77
      00FF7915H   LINE      CODE     ---       #78
      00FF7918H   LINE      CODE     ---       #79
      00FF791BH   LINE      CODE     ---       #80
      00FF791EH   LINE      CODE     ---       #83
      00FF7921H   LINE      CODE     ---       #84
      00FF7924H   LINE      CODE     ---       #85
      00FF7927H   LINE      CODE     ---       #86
      00FF792AH   LINE      CODE     ---       #87
      00FF792DH   LINE      CODE     ---       #88
      00FF7930H   LINE      CODE     ---       #89
      00FF7933H   LINE      CODE     ---       #90
      00FF7936H   LINE      CODE     ---       #91
      00FF7939H   LINE      CODE     ---       #92
      00FF793CH   LINE      CODE     ---       #93
      00FF7948H   LINE      CODE     ---       #94
      00FF794FH   LINE      CODE     ---       #96
      00FF7956H   LINE      CODE     ---       #97
      00FF795DH   LINE      CODE     ---       #100
      00FF7960H   LINE      CODE     ---       #101
      ---         BLOCKEND  ---      ---       LVL=0

      ---         MODULE    ---      ---       zf_common_debug
      00FF947AH   PUBLIC    CODE     ---       debug_interrupr_handler
      00FF89FCH   PUBLIC    CODE     ---       debug_init
      00FF984BH   PUBLIC    CODE     ---       putchar
      00010B6FH   PUBLIC    XDATA    ---       debug_uart_buffer
      00010BB0H   PUBLIC    XDATA    ---       debug_uart_fifo
      000000D0H   SFRSYM    DATA     BYTE      PSW
      0000009DH   SFRSYM    DATA     BYTE      IRCBAND
      00000097H   SFRSYM    DATA     BYTE      AUXR2
      000000EFH   SFRSYM    DATA     BYTE      AUXINTIF
      000000FDH   SFRSYM    DATA     BYTE      S4CON
      000000ACH   SFRSYM    DATA     BYTE      S3CON
      0000009AH   SFRSYM    DATA     BYTE      S2CON
      000000B7H   SFRSYM    DATA     BYTE      IPH
      000000CDH   SFRSYM    DATA     BYTE      SPSTAT
      000000DDH   SFRSYM    DATA     BYTE      T4T3M
      000000C1H   SFRSYM    DATA     BYTE      WDT_CONTR
L251 LINKER/LOCATER V4.66.93.0                                                        02/28/2025  00:29:39  PAGE 31


      000000DFH   SFRSYM    DATA     BYTE      IP3
      000000F4H   SFRSYM    DATA     BYTE      USBCON
      000000B5H   SFRSYM    DATA     BYTE      IP2
      000000FFH   SFRSYM    DATA     BYTE      RSTCFG
      000000C7H   SFRSYM    DATA     BYTE      IAP_CONTR
      0000008EH   SFRSYM    DATA     BYTE      AUXR
      000000AFH   SFRSYM    DATA     BYTE      IE2
      00000088H   SFRSYM    DATA     BYTE      TCON
      00000089H   SFRSYM    DATA     BYTE      TMOD
      00000098H   SFRSYM    DATA     BYTE      SCON
      00000087H   SFRSYM    DATA     BYTE      PCON
      000000BCH   SFRSYM    DATA     BYTE      ADC_CONTR
      000000D1H   SFRSYM    DATA     BYTE      PSW1
      000000E7H   SFRSYM    DATA     BYTE      CMPCR2
      000000E6H   SFRSYM    DATA     BYTE      CMPCR1
      000000DEH   SFRSYM    DATA     BYTE      ADCCFG
      000000B8H   SFRSYM    DATA     BYTE      IP
      0000008FH   SFRSYM    DATA     BYTE      INTCLKO
      000000EEH   SFRSYM    DATA     BYTE      IP3H
      000000B6H   SFRSYM    DATA     BYTE      IP2H
      000000BFH   SFRSYM    DATA     BYTE      P_SW4
      000000A8H   SFRSYM    DATA     BYTE      IE
      000000BBH   SFRSYM    DATA     BYTE      P_SW3
      000000BAH   SFRSYM    DATA     BYTE      P_SW2
      000000A2H   SFRSYM    DATA     BYTE      P_SW1
      000000CEH   SFRSYM    DATA     BYTE      SPCTL
      000000F8H   SFRSYM    DATA     BYTE      P7
      000000E8H   SFRSYM    DATA     BYTE      P6
      000000C8H   SFRSYM    DATA     BYTE      P5
      000000C0H   SFRSYM    DATA     BYTE      P4
      000000ABH   SFRSYM    DATA     BYTE      WKTCH
      000000B0H   SFRSYM    DATA     BYTE      P3
      000000A0H   SFRSYM    DATA     BYTE      P2
      00000090H   SFRSYM    DATA     BYTE      P1
      00000080H   SFRSYM    DATA     BYTE      P0
      00010BAFH   SYMBOL    XDATA    BYTE      zf_debug_assert_enable
      00010BC7H   SYMBOL    XDATA    BYTE      zf_debug_init_flag
      REG=2       REGSYM    ---      ---       buff
      DR12        REGSYM    ---      DWORD     len
      REG=2       REGSYM    ---      ---       buff

      00FF947AH   BLOCK     CODE     ---       LVL=0
      00010ABBH   SYMBOL    XDATA    BYTE      dat
      00FF947AH   LINE      CODE     ---       #281
      00FF947EH   LINE      CODE     ---       #283
      00FF9484H   LINE      CODE     ---       #285
      00FF9493H   LINE      CODE     ---       #286
      00FF94B4H   LINE      CODE     ---       #287
      ---         BLOCKEND  ---      ---       LVL=0

      00FF984BH   BLOCK     CODE     ---       LVL=0
      R15         REGSYM    ---      CHAR      c
      00FF984BH   LINE      CODE     ---       #303
      00FF984FH   LINE      CODE     ---       #305
      00FF9856H   LINE      CODE     ---       #307
      00FF9858H   LINE      CODE     ---       #308
      ---         BLOCKEND  ---      ---       LVL=0

      00FF89FCH   BLOCK     CODE     ---       LVL=0
      00FF89FCH   LINE      CODE     ---       #489
      00FF89FCH   LINE      CODE     ---       #490
      00FF89FCH   LINE      CODE     ---       #491
      00FF89FCH   LINE      CODE     ---       #497
      00FF8A19H   LINE      CODE     ---       #504
      00FF8A46H   LINE      CODE     ---       #505
L251 LINKER/LOCATER V4.66.93.0                                                        02/28/2025  00:29:39  PAGE 32


      00FF8A4FH   LINE      CODE     ---       #508
      00FF8A4FH   LINE      CODE     ---       #510
      00FF8A4FH   LINE      CODE     ---       #512
      00FF8A4FH   LINE      CODE     ---       #514
      00FF8A4FH   LINE      CODE     ---       #516
      00FF8A4FH   LINE      CODE     ---       #518
      00FF8A4FH   LINE      CODE     ---       #520
      00FF8A4FH   LINE      CODE     ---       #522
      00FF8A59H   LINE      CODE     ---       #523
      ---         BLOCKEND  ---      ---       LVL=0

      ---         MODULE    ---      ---       zf_common_fifo
      00FF55E9H   PUBLIC    CODE     ---       fifo_read_buffer
      00FF849DH   PUBLIC    CODE     ---       fifo_clear
      00FF590CH   PUBLIC    CODE     ---       fifo_write_buffer
      00FF97D8H   PUBLIC    CODE     ---       fifo_used
      00FF01CEH   PUBLIC    CODE     ---       fifo_init
      00010B57H   PUBLIC    XDATA    BYTE      ?fifo_write_buffer?BYTE
      00010B57H   PUBLIC    XDATA    BYTE      ?fifo_read_buffer?BYTE
      00010B4AH   PUBLIC    XDATA    BYTE      ?fifo_init?BYTE
      000000D0H   SFRSYM    DATA     BYTE      PSW
      0000009DH   SFRSYM    DATA     BYTE      IRCBAND
      00000097H   SFRSYM    DATA     BYTE      AUXR2
      000000EFH   SFRSYM    DATA     BYTE      AUXINTIF
      000000FDH   SFRSYM    DATA     BYTE      S4CON
      000000ACH   SFRSYM    DATA     BYTE      S3CON
      0000009AH   SFRSYM    DATA     BYTE      S2CON
      000000B7H   SFRSYM    DATA     BYTE      IPH
      000000CDH   SFRSYM    DATA     BYTE      SPSTAT
      000000DDH   SFRSYM    DATA     BYTE      T4T3M
      000000C1H   SFRSYM    DATA     BYTE      WDT_CONTR
      000000DFH   SFRSYM    DATA     BYTE      IP3
      000000F4H   SFRSYM    DATA     BYTE      USBCON
      000000B5H   SFRSYM    DATA     BYTE      IP2
      000000FFH   SFRSYM    DATA     BYTE      RSTCFG
      000000C7H   SFRSYM    DATA     BYTE      IAP_CONTR
      0000008EH   SFRSYM    DATA     BYTE      AUXR
      000000AFH   SFRSYM    DATA     BYTE      IE2
      00000088H   SFRSYM    DATA     BYTE      TCON
      00000089H   SFRSYM    DATA     BYTE      TMOD
      00000098H   SFRSYM    DATA     BYTE      SCON
      00000087H   SFRSYM    DATA     BYTE      PCON
      000000BCH   SFRSYM    DATA     BYTE      ADC_CONTR
      000000D1H   SFRSYM    DATA     BYTE      PSW1
      000000E7H   SFRSYM    DATA     BYTE      CMPCR2
      000000E6H   SFRSYM    DATA     BYTE      CMPCR1
      000000DEH   SFRSYM    DATA     BYTE      ADCCFG
      000000B8H   SFRSYM    DATA     BYTE      IP
      0000008FH   SFRSYM    DATA     BYTE      INTCLKO
      000000EEH   SFRSYM    DATA     BYTE      IP3H
      000000B6H   SFRSYM    DATA     BYTE      IP2H
      000000BFH   SFRSYM    DATA     BYTE      P_SW4
      000000A8H   SFRSYM    DATA     BYTE      IE
      000000BBH   SFRSYM    DATA     BYTE      P_SW3
      000000BAH   SFRSYM    DATA     BYTE      P_SW2
      000000A2H   SFRSYM    DATA     BYTE      P_SW1
      000000CEH   SFRSYM    DATA     BYTE      SPCTL
      000000F8H   SFRSYM    DATA     BYTE      P7
      000000E8H   SFRSYM    DATA     BYTE      P6
      000000C8H   SFRSYM    DATA     BYTE      P5
      000000C0H   SFRSYM    DATA     BYTE      P4
      000000ABH   SFRSYM    DATA     BYTE      WKTCH
      000000B0H   SFRSYM    DATA     BYTE      P3
      000000A0H   SFRSYM    DATA     BYTE      P2
      00000090H   SFRSYM    DATA     BYTE      P1
L251 LINKER/LOCATER V4.66.93.0                                                        02/28/2025  00:29:39  PAGE 33


      00000080H   SFRSYM    DATA     BYTE      P0
      00FF900BH   SYMBOL    CODE     ---       fifo_head_offset
      00FF9051H   SYMBOL    CODE     ---       fifo_end_offset

      00FF900BH   BLOCK     CODE     ---       LVL=0
      REG=7       REGSYM    ---      ---       fifo
      DR24        REGSYM    ---      DWORD     offset
      00FF900BH   LINE      CODE     ---       #49
      00FF900FH   LINE      CODE     ---       #51
      00FF901CH   LINE      CODE     ---       #53
      00FF901EH   LINE      CODE     ---       #55
      00FF903CH   LINE      CODE     ---       #56
      00FF9050H   LINE      CODE     ---       #57
      ---         BLOCKEND  ---      ---       LVL=0

      00FF9051H   BLOCK     CODE     ---       LVL=0
      REG=7       REGSYM    ---      ---       fifo
      DR24        REGSYM    ---      DWORD     offset
      00FF9051H   LINE      CODE     ---       #67
      00FF9055H   LINE      CODE     ---       #69
      00FF9062H   LINE      CODE     ---       #71
      00FF9064H   LINE      CODE     ---       #73
      00FF9082H   LINE      CODE     ---       #74
      00FF9096H   LINE      CODE     ---       #75
      ---         BLOCKEND  ---      ---       LVL=0

      00FF849DH   BLOCK     CODE     ---       LVL=0
      REG=3       REGSYM    ---      ---       fifo
      00FF84A1H   BLOCK     CODE     NEAR LAB  LVL=1
      00010B5BH   SYMBOL    XDATA    INT       return_state
      ---         BLOCKEND  ---      ---       LVL=1
      00FF849DH   LINE      CODE     ---       #84
      00FF84A1H   LINE      CODE     ---       #85
      00FF84A1H   LINE      CODE     ---       #87
      00FF84A9H   LINE      CODE     ---       #88
      00FF84A9H   LINE      CODE     ---       #90
      00FF84AEH   LINE      CODE     ---       #92
      00FF84B8H   LINE      CODE     ---       #93
      00FF84BAH   LINE      CODE     ---       #94
      00FF84BAH   LINE      CODE     ---       #95
      00FF84BFH   LINE      CODE     ---       #96
      00FF84C9H   LINE      CODE     ---       #97
      00FF84D1H   LINE      CODE     ---       #98
      00FF84E1H   LINE      CODE     ---       #99
      00FF84F1H   LINE      CODE     ---       #101
      00FF84F7H   LINE      CODE     ---       #102
      00FF84FFH   LINE      CODE     ---       #103
      00FF8513H   LINE      CODE     ---       #104
      00FF8513H   LINE      CODE     ---       #105
      00FF8517H   LINE      CODE     ---       #106
      00FF8517H   LINE      CODE     ---       #107
      00FF851DH   LINE      CODE     ---       #108
      ---         BLOCKEND  ---      ---       LVL=0

      00FF97D8H   BLOCK     CODE     ---       LVL=0
      REG=7       REGSYM    ---      ---       fifo
      00FF97D8H   LINE      CODE     ---       #117
      00FF97DAH   LINE      CODE     ---       #120
      00FF97ECH   LINE      CODE     ---       #121
      ---         BLOCKEND  ---      ---       LVL=0

      00FF590CH   BLOCK     CODE     ---       LVL=0
      REG=3       REGSYM    ---      ---       fifo
      00010B5BH   SYMBOL    XDATA    ---       dat
      00010B5FH   SYMBOL    XDATA    DWORD     length
L251 LINKER/LOCATER V4.66.93.0                                                        02/28/2025  00:29:39  PAGE 34


      00FF591AH   BLOCK     CODE     NEAR LAB  LVL=1
      00010B63H   SYMBOL    XDATA    INT       return_state
      00010B65H   SYMBOL    XDATA    DWORD     temp_length
      ---         BLOCKEND  ---      ---       LVL=1
      00FF590CH   LINE      CODE     ---       #175
      00FF591AH   LINE      CODE     ---       #176
      00FF591AH   LINE      CODE     ---       #178
      00FF5922H   LINE      CODE     ---       #179
      00FF592EH   LINE      CODE     ---       #181
      00FF592EH   LINE      CODE     ---       #183
      00FF593EH   LINE      CODE     ---       #185
      00FF5942H   LINE      CODE     ---       #186
      00FF5944H   LINE      CODE     ---       #187
      00FF5944H   LINE      CODE     ---       #188
      00FF594FH   LINE      CODE     ---       #190
      00FF5959H   LINE      CODE     ---       #191
      00FF595CH   LINE      CODE     ---       #192
      00FF595CH   LINE      CODE     ---       #193
      00FF5961H   LINE      CODE     ---       #195
      00FF597AH   LINE      CODE     ---       #197
      00FF5996H   LINE      CODE     ---       #199
      00FF599DH   LINE      CODE     ---       #201
      00FF59B3H   LINE      CODE     ---       #203
      00FF59B3H   LINE      CODE     ---       #205
      00FF59CDH   LINE      CODE     ---       #208
      00FF59DCH   LINE      CODE     ---       #209
      00FF5A05H   LINE      CODE     ---       #213
      00FF5A05H   LINE      CODE     ---       #214
      00FF5A08H   LINE      CODE     ---       #215
      00FF5A08H   LINE      CODE     ---       #217
      00FF5A32H   LINE      CODE     ---       #220
      00FF5A41H   LINE      CODE     ---       #221
      00FF5A75H   LINE      CODE     ---       #225
      00FF5A75H   LINE      CODE     ---       #226
      00FF5A77H   LINE      CODE     ---       #227
      00FF5A77H   LINE      CODE     ---       #229
      00FF5AA5H   LINE      CODE     ---       #232
      00FF5AB4H   LINE      CODE     ---       #233
      00FF5AFFH   LINE      CODE     ---       #237
      00FF5B17H   LINE      CODE     ---       #238
      00FF5B17H   LINE      CODE     ---       #239
      00FF5B17H   LINE      CODE     ---       #240
      00FF5B1AH   LINE      CODE     ---       #243
      00FF5B2DH   LINE      CODE     ---       #245
      00FF5B2DH   LINE      CODE     ---       #247
      00FF5B53H   LINE      CODE     ---       #250
      00FF5B5FH   LINE      CODE     ---       #251
      00FF5B61H   LINE      CODE     ---       #252
      00FF5B61H   LINE      CODE     ---       #254
      00FF5B8BH   LINE      CODE     ---       #257
      00FF5B97H   LINE      CODE     ---       #258
      00FF5B99H   LINE      CODE     ---       #259
      00FF5B99H   LINE      CODE     ---       #261
      00FF5BC7H   LINE      CODE     ---       #264
      00FF5BD6H   LINE      CODE     ---       #265
      00FF5BD6H   LINE      CODE     ---       #266
      00FF5BD6H   LINE      CODE     ---       #267
      00FF5BD6H   LINE      CODE     ---       #269
      00FF5BF6H   LINE      CODE     ---       #270
      00FF5BF8H   LINE      CODE     ---       #273
      00FF5C02H   LINE      CODE     ---       #274
      00FF5C02H   LINE      CODE     ---       #275
      00FF5C0AH   LINE      CODE     ---       #276
      00FF5C0AH   LINE      CODE     ---       #278
      00FF5C10H   LINE      CODE     ---       #279
L251 LINKER/LOCATER V4.66.93.0                                                        02/28/2025  00:29:39  PAGE 35


      ---         BLOCKEND  ---      ---       LVL=0

      00FF55E9H   BLOCK     CODE     ---       LVL=0
      REG=3       REGSYM    ---      ---       fifo
      00010B5BH   SYMBOL    XDATA    ---       dat
      00010B5FH   SYMBOL    XDATA    ---       length
      00010B63H   SYMBOL    XDATA    INT       flag
      00FF55F7H   BLOCK     CODE     NEAR LAB  LVL=1
      00010B65H   SYMBOL    XDATA    INT       return_state
      00010B67H   SYMBOL    XDATA    DWORD     temp_length
      00010B6BH   SYMBOL    XDATA    DWORD     fifo_data_length
      ---         BLOCKEND  ---      ---       LVL=1
      00FF55E9H   LINE      CODE     ---       #352
      00FF55F7H   LINE      CODE     ---       #353
      00FF55F7H   LINE      CODE     ---       #356
      00FF55FFH   LINE      CODE     ---       #357
      00FF560BH   LINE      CODE     ---       #358
      00FF5615H   LINE      CODE     ---       #360
      00FF5615H   LINE      CODE     ---       #362
      00FF5623H   LINE      CODE     ---       #364
      00FF562DH   LINE      CODE     ---       #365
      00FF5630H   LINE      CODE     ---       #368
      00FF563BH   LINE      CODE     ---       #370
      00FF564CH   LINE      CODE     ---       #371
      00FF5650H   LINE      CODE     ---       #372
      00FF5653H   LINE      CODE     ---       #373
      00FF5653H   LINE      CODE     ---       #375
      00FF5664H   LINE      CODE     ---       #376
      00FF5679H   LINE      CODE     ---       #378
      00FF568AH   LINE      CODE     ---       #379
      00FF5694H   LINE      CODE     ---       #380
      00FF56A2H   LINE      CODE     ---       #382
      00FF56A7H   LINE      CODE     ---       #383
      00FF56AAH   LINE      CODE     ---       #384
      00FF56AAH   LINE      CODE     ---       #387
      00FF56B2H   LINE      CODE     ---       #388
      00FF56CEH   LINE      CODE     ---       #389
      00FF56E3H   LINE      CODE     ---       #391
      00FF56F6H   LINE      CODE     ---       #393
      00FF56FCH   LINE      CODE     ---       #394
      00FF5718H   LINE      CODE     ---       #395
      00FF574AH   LINE      CODE     ---       #396
      00FF574AH   LINE      CODE     ---       #397
      00FF574DH   LINE      CODE     ---       #400
      00FF5763H   LINE      CODE     ---       #402
      00FF5763H   LINE      CODE     ---       #404
      00FF578BH   LINE      CODE     ---       #405
      00FF57BDH   LINE      CODE     ---       #406
      00FF57C0H   LINE      CODE     ---       #407
      00FF57C0H   LINE      CODE     ---       #409
      00FF57ECH   LINE      CODE     ---       #410
      00FF5823H   LINE      CODE     ---       #411
      00FF5825H   LINE      CODE     ---       #412
      00FF5825H   LINE      CODE     ---       #414
      00FF5855H   LINE      CODE     ---       #415
      00FF5895H   LINE      CODE     ---       #416
      00FF5895H   LINE      CODE     ---       #417
      00FF5895H   LINE      CODE     ---       #418
      00FF5895H   LINE      CODE     ---       #419
      00FF589DH   LINE      CODE     ---       #420
      00FF589DH   LINE      CODE     ---       #422
      00FF58A7H   LINE      CODE     ---       #424
      00FF58ADH   LINE      CODE     ---       #426
      00FF58B7H   LINE      CODE     ---       #427
      00FF58B9H   LINE      CODE     ---       #428
L251 LINKER/LOCATER V4.66.93.0                                                        02/28/2025  00:29:39  PAGE 36


      00FF58B9H   LINE      CODE     ---       #429
      00FF58BEH   LINE      CODE     ---       #430
      00FF58D4H   LINE      CODE     ---       #431
      00FF58FBH   LINE      CODE     ---       #432
      00FF5903H   LINE      CODE     ---       #433
      00FF5903H   LINE      CODE     ---       #436
      00FF5909H   LINE      CODE     ---       #437
      ---         BLOCKEND  ---      ---       LVL=0

      00FF01CEH   BLOCK     CODE     ---       LVL=0
      REG=7       REGSYM    ---      ---       fifo
      WR8         REGSYM    ---      INT       type
      00010B50H   SYMBOL    XDATA    ---       buffer_addr
      00010B54H   SYMBOL    XDATA    DWORD     siz
      00FF01CEH   LINE      CODE     ---       #545
      00FF01D2H   LINE      CODE     ---       #548
      00FF01D2H   LINE      CODE     ---       #550
      00FF01E4H   LINE      CODE     ---       #551
      00FF01E8H   LINE      CODE     ---       #552
      00FF01ECH   LINE      CODE     ---       #553
      00FF01F6H   LINE      CODE     ---       #554
      00FF01FEH   LINE      CODE     ---       #555
      00FF0210H   LINE      CODE     ---       #556
      00FF0218H   LINE      CODE     ---       #557
      00FF0218H   LINE      CODE     ---       #558
      00FF021AH   LINE      CODE     ---       #559
      ---         BLOCKEND  ---      ---       LVL=0

      ---         MODULE    ---      ---       zf_common_font
      00FF3920H   PUBLIC    CODE     ---       chinese_test
      00FF3BFCH   PUBLIC    CODE     ---       tft_ascii
      00FF41ECH   PUBLIC    CODE     ---       ascii_font_6x8
      000000D0H   SFRSYM    DATA     BYTE      PSW
      0000009DH   SFRSYM    DATA     BYTE      IRCBAND
      00000097H   SFRSYM    DATA     BYTE      AUXR2
      000000EFH   SFRSYM    DATA     BYTE      AUXINTIF
      000000FDH   SFRSYM    DATA     BYTE      S4CON
      000000ACH   SFRSYM    DATA     BYTE      S3CON
      0000009AH   SFRSYM    DATA     BYTE      S2CON
      000000B7H   SFRSYM    DATA     BYTE      IPH
      000000CDH   SFRSYM    DATA     BYTE      SPSTAT
      000000DDH   SFRSYM    DATA     BYTE      T4T3M
      000000C1H   SFRSYM    DATA     BYTE      WDT_CONTR
      000000DFH   SFRSYM    DATA     BYTE      IP3
      000000F4H   SFRSYM    DATA     BYTE      USBCON
      000000B5H   SFRSYM    DATA     BYTE      IP2
      000000FFH   SFRSYM    DATA     BYTE      RSTCFG
      000000C7H   SFRSYM    DATA     BYTE      IAP_CONTR
      0000008EH   SFRSYM    DATA     BYTE      AUXR
      000000AFH   SFRSYM    DATA     BYTE      IE2
      00000088H   SFRSYM    DATA     BYTE      TCON
      00000089H   SFRSYM    DATA     BYTE      TMOD
      00000098H   SFRSYM    DATA     BYTE      SCON
      00000087H   SFRSYM    DATA     BYTE      PCON
      000000BCH   SFRSYM    DATA     BYTE      ADC_CONTR
      000000D1H   SFRSYM    DATA     BYTE      PSW1
      000000E7H   SFRSYM    DATA     BYTE      CMPCR2
      000000E6H   SFRSYM    DATA     BYTE      CMPCR1
      000000DEH   SFRSYM    DATA     BYTE      ADCCFG
      000000B8H   SFRSYM    DATA     BYTE      IP
      0000008FH   SFRSYM    DATA     BYTE      INTCLKO
      000000EEH   SFRSYM    DATA     BYTE      IP3H
      000000B6H   SFRSYM    DATA     BYTE      IP2H
      000000BFH   SFRSYM    DATA     BYTE      P_SW4
      000000A8H   SFRSYM    DATA     BYTE      IE
L251 LINKER/LOCATER V4.66.93.0                                                        02/28/2025  00:29:39  PAGE 37


      000000BBH   SFRSYM    DATA     BYTE      P_SW3
      000000BAH   SFRSYM    DATA     BYTE      P_SW2
      000000A2H   SFRSYM    DATA     BYTE      P_SW1
      000000CEH   SFRSYM    DATA     BYTE      SPCTL
      000000F8H   SFRSYM    DATA     BYTE      P7
      000000E8H   SFRSYM    DATA     BYTE      P6
      000000C8H   SFRSYM    DATA     BYTE      P5
      000000C0H   SFRSYM    DATA     BYTE      P4
      000000ABH   SFRSYM    DATA     BYTE      WKTCH
      000000B0H   SFRSYM    DATA     BYTE      P3
      000000A0H   SFRSYM    DATA     BYTE      P2
      00000090H   SFRSYM    DATA     BYTE      P1
      00000080H   SFRSYM    DATA     BYTE      P0

      ---         MODULE    ---      ---       zf_common_function
      00FF635BH   PUBLIC    CODE     ---       func_str_to_double
      00FF4414H   PUBLIC    CODE     ---       zf_sprintf
      00FF7DADH   PUBLIC    CODE     ---       func_str_to_hex
      00FF8B12H   PUBLIC    CODE     ---       func_str_to_int
      00010B14H   PUBLIC    XDATA    BYTE      ?zf_sprintf?BYTE
      000000D0H   SFRSYM    DATA     BYTE      PSW
      0000009DH   SFRSYM    DATA     BYTE      IRCBAND
      00000097H   SFRSYM    DATA     BYTE      AUXR2
      000000EFH   SFRSYM    DATA     BYTE      AUXINTIF
      000000FDH   SFRSYM    DATA     BYTE      S4CON
      000000ACH   SFRSYM    DATA     BYTE      S3CON
      0000009AH   SFRSYM    DATA     BYTE      S2CON
      000000B7H   SFRSYM    DATA     BYTE      IPH
      000000CDH   SFRSYM    DATA     BYTE      SPSTAT
      000000DDH   SFRSYM    DATA     BYTE      T4T3M
      000000C1H   SFRSYM    DATA     BYTE      WDT_CONTR
      000000DFH   SFRSYM    DATA     BYTE      IP3
      000000F4H   SFRSYM    DATA     BYTE      USBCON
      000000B5H   SFRSYM    DATA     BYTE      IP2
      000000FFH   SFRSYM    DATA     BYTE      RSTCFG
      000000C7H   SFRSYM    DATA     BYTE      IAP_CONTR
      0000008EH   SFRSYM    DATA     BYTE      AUXR
      000000AFH   SFRSYM    DATA     BYTE      IE2
      00000088H   SFRSYM    DATA     BYTE      TCON
      00000089H   SFRSYM    DATA     BYTE      TMOD
      00000098H   SFRSYM    DATA     BYTE      SCON
      00000087H   SFRSYM    DATA     BYTE      PCON
      000000BCH   SFRSYM    DATA     BYTE      ADC_CONTR
      000000D1H   SFRSYM    DATA     BYTE      PSW1
      000000E7H   SFRSYM    DATA     BYTE      CMPCR2
      000000E6H   SFRSYM    DATA     BYTE      CMPCR1
      000000DEH   SFRSYM    DATA     BYTE      ADCCFG
      000000B8H   SFRSYM    DATA     BYTE      IP
      0000008FH   SFRSYM    DATA     BYTE      INTCLKO
      000000EEH   SFRSYM    DATA     BYTE      IP3H
      000000B6H   SFRSYM    DATA     BYTE      IP2H
      000000BFH   SFRSYM    DATA     BYTE      P_SW4
      000000A8H   SFRSYM    DATA     BYTE      IE
      000000BBH   SFRSYM    DATA     BYTE      P_SW3
      000000BAH   SFRSYM    DATA     BYTE      P_SW2
      000000A2H   SFRSYM    DATA     BYTE      P_SW1
      000000CEH   SFRSYM    DATA     BYTE      SPCTL
      000000F8H   SFRSYM    DATA     BYTE      P7
      000000E8H   SFRSYM    DATA     BYTE      P6
      000000C8H   SFRSYM    DATA     BYTE      P5
      000000C0H   SFRSYM    DATA     BYTE      P4
      000000ABH   SFRSYM    DATA     BYTE      WKTCH
      000000B0H   SFRSYM    DATA     BYTE      P3
      000000A0H   SFRSYM    DATA     BYTE      P2
      00000090H   SFRSYM    DATA     BYTE      P1
L251 LINKER/LOCATER V4.66.93.0                                                        02/28/2025  00:29:39  PAGE 38


      00000080H   SFRSYM    DATA     BYTE      P0
      00FF8389H   SYMBOL    CODE     ---       number_conversion_ascii
      00FF919BH   SYMBOL    CODE     ---       printf_reverse_order
      00FFA604H   SYMBOL    HCONST   ---       ?tpl?0001
      DR8         REGSYM    ---      DWORD     num1
      DR28        REGSYM    ---      DWORD     num2

      00FF8B12H   BLOCK     CODE     ---       LVL=0
      REG=7       REGSYM    ---      ---       str
      00FF8B14H   BLOCK     CODE     NEAR LAB  LVL=1
      R10         REGSYM    ---      BYTE      sign
      DR24        REGSYM    ---      LONG      temp
      ---         BLOCKEND  ---      ---       LVL=1
      00FF8B12H   LINE      CODE     ---       #84
      00FF8B14H   LINE      CODE     ---       #85
      00FF8B14H   LINE      CODE     ---       #86
      00FF8B16H   LINE      CODE     ---       #87
      00FF8B18H   LINE      CODE     ---       #89
      00FF8B18H   LINE      CODE     ---       #91
      00FF8B1EH   LINE      CODE     ---       #93
      00FF8B1EH   LINE      CODE     ---       #94
      00FF8B1EH   LINE      CODE     ---       #96
      00FF8B25H   LINE      CODE     ---       #98
      00FF8B28H   LINE      CODE     ---       #99
      00FF8B2AH   LINE      CODE     ---       #100
      00FF8B2CH   LINE      CODE     ---       #101
      00FF8B30H   LINE      CODE     ---       #103
      00FF8B32H   LINE      CODE     ---       #104
      00FF8B32H   LINE      CODE     ---       #106
      00FF8B34H   LINE      CODE     ---       #108
      00FF8B4AH   LINE      CODE     ---       #109
      00FF8B4CH   LINE      CODE     ---       #110
      00FF8B59H   LINE      CODE     ---       #112
      00FF8B5DH   LINE      CODE     ---       #114
      00FF8B67H   LINE      CODE     ---       #115
      00FF8B67H   LINE      CODE     ---       #117
      00FF8B69H   LINE      CODE     ---       #118
      ---         BLOCKEND  ---      ---       LVL=0
      REG=7       REGSYM    ---      ---       str
      DR24        REGSYM    ---      LONG      number
      R15         REGSYM    ---      BYTE      temp_bit
      DR20        REGSYM    ---      LONG      number_temp
      REG=2       REGSYM    ---      ---       str
      DR28        REGSYM    ---      DWORD     temp
      REG=7       REGSYM    ---      ---       str
      DR24        REGSYM    ---      DWORD     number
      R15         REGSYM    ---      BYTE      temp_bit
      REG=7       REGSYM    ---      ---       str
      DR24        REGSYM    ---      FLOAT     temp
      DR12        REGSYM    ---      FLOAT     temp_point
      REG=7       REGSYM    ---      ---       str
      DR24        REGSYM    ---      FLOAT     number
      R15         REGSYM    ---      BYTE      point_bit
      WR20        REGSYM    ---      INT       data_int
      WR22        REGSYM    ---      INT       data_float
      R14         REGSYM    ---      BYTE      temp_bit

      00FF635BH   BLOCK     CODE     ---       LVL=0
      REG=3       REGSYM    ---      ---       str
      00FF635FH   BLOCK     CODE     NEAR LAB  LVL=1
      00010D3FH   SYMBOL    XDATA    BYTE      sign
      00010D40H   SYMBOL    XDATA    DOUBLE    temp
      00010D48H   SYMBOL    XDATA    DOUBLE    temp_point
      00010D50H   SYMBOL    XDATA    DOUBLE    point_bit
      ---         BLOCKEND  ---      ---       LVL=1
L251 LINKER/LOCATER V4.66.93.0                                                        02/28/2025  00:29:39  PAGE 39


      00FF635BH   LINE      CODE     ---       #391
      00FF635FH   LINE      CODE     ---       #392
      00FF635FH   LINE      CODE     ---       #393
      00FF6364H   LINE      CODE     ---       #394
      00FF637AH   LINE      CODE     ---       #395
      00FF638CH   LINE      CODE     ---       #396
      00FF63A2H   LINE      CODE     ---       #400
      00FF63A2H   LINE      CODE     ---       #402
      00FF63ABH   LINE      CODE     ---       #404
      00FF63ABH   LINE      CODE     ---       #405
      00FF63ABH   LINE      CODE     ---       #407
      00FF63B3H   LINE      CODE     ---       #409
      00FF63B9H   LINE      CODE     ---       #410
      00FF63BBH   LINE      CODE     ---       #411
      00FF63BDH   LINE      CODE     ---       #412
      00FF63C2H   LINE      CODE     ---       #414
      00FF63C4H   LINE      CODE     ---       #415
      00FF63C4H   LINE      CODE     ---       #418
      00FF63C6H   LINE      CODE     ---       #420
      00FF640AH   LINE      CODE     ---       #421
      00FF640CH   LINE      CODE     ---       #422
      00FF6419H   LINE      CODE     ---       #423
      00FF6421H   LINE      CODE     ---       #425
      00FF6423H   LINE      CODE     ---       #426
      00FF6425H   LINE      CODE     ---       #428
      00FF6469H   LINE      CODE     ---       #429
      00FF6495H   LINE      CODE     ---       #430
      00FF6497H   LINE      CODE     ---       #431
      00FF64C8H   LINE      CODE     ---       #432
      00FF64FEH   LINE      CODE     ---       #433
      00FF64FEH   LINE      CODE     ---       #434
      00FF6534H   LINE      CODE     ---       #436
      00FF653AH   LINE      CODE     ---       #438
      00FF6561H   LINE      CODE     ---       #439
      00FF6561H   LINE      CODE     ---       #441
      00FF6573H   LINE      CODE     ---       #443
      ---         BLOCKEND  ---      ---       LVL=0
      REG=3       REGSYM    ---      ---       str

      00FF7DADH   BLOCK     CODE     ---       LVL=0
      REG=3       REGSYM    ---      ---       str
      00FF7DB1H   BLOCK     CODE     NEAR LAB  LVL=1
      DR24        REGSYM    ---      DWORD     str_len
      DR28        REGSYM    ---      DWORD     result_data
      R9          REGSYM    ---      BYTE      temp
      R8          REGSYM    ---      BYTE      flag
      ---         BLOCKEND  ---      ---       LVL=1
      00FF7DADH   LINE      CODE     ---       #538
      00FF7DB1H   LINE      CODE     ---       #539
      00FF7DB1H   LINE      CODE     ---       #540
      00FF7DB8H   LINE      CODE     ---       #541
      00FF7DBCH   LINE      CODE     ---       #542
      00FF7DBCH   LINE      CODE     ---       #543
      00FF7DBEH   LINE      CODE     ---       #547
      00FF7DBEH   LINE      CODE     ---       #549
      00FF7DC7H   LINE      CODE     ---       #551
      00FF7DC7H   LINE      CODE     ---       #552
      00FF7DC7H   LINE      CODE     ---       #554
      00FF7DCBH   LINE      CODE     ---       #556
      00FF7DD8H   LINE      CODE     ---       #558
      00FF7DE0H   LINE      CODE     ---       #559
      00FF7DE2H   LINE      CODE     ---       #560
      00FF7DECH   LINE      CODE     ---       #562
      00FF7DF4H   LINE      CODE     ---       #563
      00FF7DF6H   LINE      CODE     ---       #564
L251 LINKER/LOCATER V4.66.93.0                                                        02/28/2025  00:29:39  PAGE 40


      00FF7E00H   LINE      CODE     ---       #566
      00FF7E08H   LINE      CODE     ---       #567
      00FF7E08H   LINE      CODE     ---       #570
      00FF7E08H   LINE      CODE     ---       #571
      00FF7E08H   LINE      CODE     ---       #572
      00FF7E1DH   LINE      CODE     ---       #573
      00FF7E1FH   LINE      CODE     ---       #577
      00FF7E2CH   LINE      CODE     ---       #579
      00FF7E32H   LINE      CODE     ---       #580
      00FF7E36H   LINE      CODE     ---       #581
      00FF7E36H   LINE      CODE     ---       #583
      00FF7E3CH   LINE      CODE     ---       #584
      00FF7E4BH   LINE      CODE     ---       #586
      00FF7E4DH   LINE      CODE     ---       #587
      ---         BLOCKEND  ---      ---       LVL=0
      REG=7       REGSYM    ---      ---       str
      DR24        REGSYM    ---      DWORD     number
      R10         REGSYM    ---      BYTE      temp_bit

      00FF8389H   BLOCK     CODE     ---       LVL=0
      DR24        REGSYM    ---      DWORD     dat
      REG=7       REGSYM    ---      ---       p
      R10         REGSYM    ---      BYTE      neg_type
      00010B4FH   SYMBOL    XDATA    BYTE      radix
      00FF8391H   BLOCK     CODE     NEAR LAB  LVL=1
      DR20        REGSYM    ---      LONG      neg_dat
      DR24        REGSYM    ---      DWORD     pos_dat
      R14         REGSYM    ---      BYTE      temp_data
      R15         REGSYM    ---      BYTE      valid_num
      ---         BLOCKEND  ---      ---       LVL=1
      00FF8389H   LINE      CODE     ---       #647
      00FF8391H   LINE      CODE     ---       #648
      00FF8391H   LINE      CODE     ---       #651
      00FF8391H   LINE      CODE     ---       #652
      00FF8393H   LINE      CODE     ---       #654
      00FF8397H   LINE      CODE     ---       #656
      00FF8399H   LINE      CODE     ---       #657
      00FF839FH   LINE      CODE     ---       #659
      00FF83A9H   LINE      CODE     ---       #660
      00FF83A9H   LINE      CODE     ---       #661
      00FF83A9H   LINE      CODE     ---       #663
      00FF83C1H   LINE      CODE     ---       #664
      00FF83CAH   LINE      CODE     ---       #665
      00FF83CCH   LINE      CODE     ---       #667
      00FF83D2H   LINE      CODE     ---       #669
      00FF83D2H   LINE      CODE     ---       #670
      00FF83D2H   LINE      CODE     ---       #671
      00FF83D4H   LINE      CODE     ---       #672
      00FF83D6H   LINE      CODE     ---       #673
      00FF83D8H   LINE      CODE     ---       #676
      00FF83D8H   LINE      CODE     ---       #677
      00FF83D8H   LINE      CODE     ---       #679
      00FF83E9H   LINE      CODE     ---       #680
      00FF83EEH   LINE      CODE     ---       #682
      00FF83F1H   LINE      CODE     ---       #683
      00FF83F3H   LINE      CODE     ---       #686
      00FF83F6H   LINE      CODE     ---       #687
      00FF83F6H   LINE      CODE     ---       #689
      00FF83F9H   LINE      CODE     ---       #691
      00FF8402H   LINE      CODE     ---       #692
      00FF8404H   LINE      CODE     ---       #694
      00FF840AH   LINE      CODE     ---       #696
      00FF840AH   LINE      CODE     ---       #697
      00FF840AH   LINE      CODE     ---       #698
      00FF840CH   LINE      CODE     ---       #699
L251 LINKER/LOCATER V4.66.93.0                                                        02/28/2025  00:29:39  PAGE 41


      00FF840EH   LINE      CODE     ---       #700
      00FF840EH   LINE      CODE     ---       #701
      00FF8410H   LINE      CODE     ---       #702
      ---         BLOCKEND  ---      ---       LVL=0

      00FF919BH   BLOCK     CODE     ---       LVL=0
      REG=7       REGSYM    ---      ---       d_buff
      DR24        REGSYM    ---      DWORD     len
      00FF919FH   BLOCK     CODE     NEAR LAB  LVL=1
      DR4         REGSYM    ---      DWORD     i
      R3          REGSYM    ---      CHAR      temp_data
      ---         BLOCKEND  ---      ---       LVL=1
      00FF919BH   LINE      CODE     ---       #712
      00FF919FH   LINE      CODE     ---       #713
      00FF919FH   LINE      CODE     ---       #716
      00FF91A3H   LINE      CODE     ---       #718
      00FF91B2H   LINE      CODE     ---       #719
      00FF91C0H   LINE      CODE     ---       #720
      00FF91C7H   LINE      CODE     ---       #721
      00FF91D8H   LINE      CODE     ---       #722
      ---         BLOCKEND  ---      ---       LVL=0

      00FF4414H   BLOCK     CODE     ---       LVL=0
      REG=3       REGSYM    ---      ---       buff
      00010B18H   SYMBOL    XDATA    ---       format
      00FF4422H   BLOCK     CODE     NEAR LAB  LVL=1
      00010B1CH   SYMBOL    XDATA    DWORD     buff_len
      00010B20H   SYMBOL    XDATA    ---       arg
      00FF443CH   BLOCK     CODE     NEAR LAB  LVL=2
      00010B24H   SYMBOL    XDATA    CHAR      ret
      00FF4572H   BLOCK     CODE     NEAR LAB  LVL=3
      00010B25H   SYMBOL    XDATA    CHAR      ch
      ---         BLOCKEND  ---      ---       LVL=3
      00FF459CH   BLOCK     CODE     NEAR LAB  LVL=3
      00010B25H   SYMBOL    XDATA    ---       vstr
      00010B46H   SYMBOL    XDATA    LONG      ival
      00010B4AH   SYMBOL    XDATA    BYTE      vlen
      ---         BLOCKEND  ---      ---       LVL=3
      00FF463DH   BLOCK     CODE     NEAR LAB  LVL=3
      00010B25H   SYMBOL    XDATA    ---       vstr
      00010B46H   SYMBOL    XDATA    DOUBLE    ival
      00010B4EH   SYMBOL    XDATA    BYTE      vlen
      ---         BLOCKEND  ---      ---       LVL=3
      00FF482DH   BLOCK     CODE     NEAR LAB  LVL=3
      00010B25H   SYMBOL    XDATA    ---       vstr
      00010B46H   SYMBOL    XDATA    DWORD     ival
      00010B4AH   SYMBOL    XDATA    BYTE      vlen
      ---         BLOCKEND  ---      ---       LVL=3
      00FF489DH   BLOCK     CODE     NEAR LAB  LVL=3
      00010B25H   SYMBOL    XDATA    ---       vstr
      00010B46H   SYMBOL    XDATA    DWORD     ival
      00010B4AH   SYMBOL    XDATA    BYTE      vlen
      ---         BLOCKEND  ---      ---       LVL=3
      00FF490CH   BLOCK     CODE     NEAR LAB  LVL=3
      00010B25H   SYMBOL    XDATA    ---       vstr
      00010B46H   SYMBOL    XDATA    DWORD     ival
      00010B4AH   SYMBOL    XDATA    BYTE      vlen
      ---         BLOCKEND  ---      ---       LVL=3
      00FF4991H   BLOCK     CODE     NEAR LAB  LVL=3
      00010B25H   SYMBOL    XDATA    ---       pc
      ---         BLOCKEND  ---      ---       LVL=3
      00FF49FDH   BLOCK     CODE     NEAR LAB  LVL=3
      00010B25H   SYMBOL    XDATA    ---       vstr
      00010B46H   SYMBOL    XDATA    DWORD     ival
      ---         BLOCKEND  ---      ---       LVL=3
L251 LINKER/LOCATER V4.66.93.0                                                        02/28/2025  00:29:39  PAGE 42


      ---         BLOCKEND  ---      ---       LVL=2
      ---         BLOCKEND  ---      ---       LVL=1
      00FF4414H   LINE      CODE     ---       #733
      00FF4422H   LINE      CODE     ---       #734
      00FF4422H   LINE      CODE     ---       #735
      00FF442EH   LINE      CODE     ---       #737
      00FF4439H   LINE      CODE     ---       #739
      00FF443CH   LINE      CODE     ---       #740
      00FF443CH   LINE      CODE     ---       #741
      00FF444DH   LINE      CODE     ---       #742
      00FF4455H   LINE      CODE     ---       #744
      00FF4572H   LINE      CODE     ---       #746
      00FF4572H   LINE      CODE     ---       #749
      00FF4572H   LINE      CODE     ---       #751
      00FF4572H   LINE      CODE     ---       #752
      00FF4572H   LINE      CODE     ---       #753
      00FF4599H   LINE      CODE     ---       #754
      00FF4599H   LINE      CODE     ---       #755
      00FF4599H   LINE      CODE     ---       #756
      00FF4599H   LINE      CODE     ---       #758
      00FF459CH   LINE      CODE     ---       #760
      00FF459CH   LINE      CODE     ---       #761
      00FF459CH   LINE      CODE     ---       #762
      00FF459CH   LINE      CODE     ---       #764
      00FF45CAH   LINE      CODE     ---       #765
      00FF45E1H   LINE      CODE     ---       #767
      00FF45F1H   LINE      CODE     ---       #769
      00FF4606H   LINE      CODE     ---       #770
      00FF460DH   LINE      CODE     ---       #771
      00FF460DH   LINE      CODE     ---       #772
      00FF4620H   LINE      CODE     ---       #773
      00FF4637H   LINE      CODE     ---       #774
      00FF463AH   LINE      CODE     ---       #775
      00FF463AH   LINE      CODE     ---       #777
      00FF463DH   LINE      CODE     ---       #779
      00FF463DH   LINE      CODE     ---       #780
      00FF463DH   LINE      CODE     ---       #781
      00FF463DH   LINE      CODE     ---       #783
      00FF467DH   LINE      CODE     ---       #784
      00FF4697H   LINE      CODE     ---       #786
      00FF46B2H   LINE      CODE     ---       #788
      00FF46C7H   LINE      CODE     ---       #789
      00FF46CEH   LINE      CODE     ---       #790
      00FF46CEH   LINE      CODE     ---       #791
      00FF46E1H   LINE      CODE     ---       #792
      00FF46F8H   LINE      CODE     ---       #793
      00FF4700H   LINE      CODE     ---       #794
      00FF4717H   LINE      CODE     ---       #796
      00FF4769H   LINE      CODE     ---       #797
      00FF4787H   LINE      CODE     ---       #799
      00FF479DH   LINE      CODE     ---       #800
      00FF479FH   LINE      CODE     ---       #803
      00FF47B9H   LINE      CODE     ---       #804
      00FF47BFH   LINE      CODE     ---       #805
      00FF47BFH   LINE      CODE     ---       #807
      00FF47C4H   LINE      CODE     ---       #809
      00FF47D7H   LINE      CODE     ---       #810
      00FF47DCH   LINE      CODE     ---       #811
      00FF47E7H   LINE      CODE     ---       #813
      00FF47F6H   LINE      CODE     ---       #814
      00FF47FDH   LINE      CODE     ---       #816
      00FF4810H   LINE      CODE     ---       #817
      00FF4827H   LINE      CODE     ---       #818
      00FF482AH   LINE      CODE     ---       #819
      00FF482AH   LINE      CODE     ---       #821
L251 LINKER/LOCATER V4.66.93.0                                                        02/28/2025  00:29:39  PAGE 43


      00FF482DH   LINE      CODE     ---       #823
      00FF482DH   LINE      CODE     ---       #824
      00FF482DH   LINE      CODE     ---       #826
      00FF485BH   LINE      CODE     ---       #827
      00FF4871H   LINE      CODE     ---       #829
      00FF4880H   LINE      CODE     ---       #830
      00FF4897H   LINE      CODE     ---       #831
      00FF489AH   LINE      CODE     ---       #832
      00FF489AH   LINE      CODE     ---       #834
      00FF489DH   LINE      CODE     ---       #836
      00FF489DH   LINE      CODE     ---       #837
      00FF489DH   LINE      CODE     ---       #839
      00FF48CBH   LINE      CODE     ---       #840
      00FF48E1H   LINE      CODE     ---       #842
      00FF48F0H   LINE      CODE     ---       #843
      00FF4907H   LINE      CODE     ---       #844
      00FF490AH   LINE      CODE     ---       #845
      00FF490AH   LINE      CODE     ---       #848
      00FF490CH   LINE      CODE     ---       #850
      00FF490CH   LINE      CODE     ---       #851
      00FF490CH   LINE      CODE     ---       #852
      00FF490CH   LINE      CODE     ---       #854
      00FF493AH   LINE      CODE     ---       #855
      00FF4950H   LINE      CODE     ---       #857
      00FF495FH   LINE      CODE     ---       #858
      00FF4976H   LINE      CODE     ---       #859
      00FF497EH   LINE      CODE     ---       #860
      00FF498EH   LINE      CODE     ---       #862
      00FF4991H   LINE      CODE     ---       #864
      00FF4991H   LINE      CODE     ---       #865
      00FF4991H   LINE      CODE     ---       #866
      00FF49B8H   LINE      CODE     ---       #867
      00FF49BAH   LINE      CODE     ---       #869
      00FF49CAH   LINE      CODE     ---       #870
      00FF49CCH   LINE      CODE     ---       #871
      00FF49DFH   LINE      CODE     ---       #872
      00FF49EBH   LINE      CODE     ---       #873
      00FF49FAH   LINE      CODE     ---       #875
      00FF49FDH   LINE      CODE     ---       #877
      00FF49FDH   LINE      CODE     ---       #878
      00FF49FDH   LINE      CODE     ---       #880
      00FF4A2BH   LINE      CODE     ---       #882
      00FF4A3DH   LINE      CODE     ---       #883
      00FF4A4CH   LINE      CODE     ---       #884
      00FF4A61H   LINE      CODE     ---       #885
      00FF4A65H   LINE      CODE     ---       #886
      00FF4A73H   LINE      CODE     ---       #888
      00FF4A75H   LINE      CODE     ---       #890
      00FF4A75H   LINE      CODE     ---       #892
      00FF4A7AH   LINE      CODE     ---       #893
      00FF4A7CH   LINE      CODE     ---       #894
      00FF4A88H   LINE      CODE     ---       #896
      00FF4A8AH   LINE      CODE     ---       #898
      00FF4A8AH   LINE      CODE     ---       #899
      00FF4A8AH   LINE      CODE     ---       #900
      00FF4A8AH   LINE      CODE     ---       #901
      00FF4A8AH   LINE      CODE     ---       #904
      00FF4A9AH   LINE      CODE     ---       #905
      00FF4A9CH   LINE      CODE     ---       #906
      00FF4AAFH   LINE      CODE     ---       #907
      00FF4AAFH   LINE      CODE     ---       #908
      00FF4AC2H   LINE      CODE     ---       #909
      00FF4AD4H   LINE      CODE     ---       #912
      00FF4ADEH   LINE      CODE     ---       #913
      ---         BLOCKEND  ---      ---       LVL=0
L251 LINKER/LOCATER V4.66.93.0                                                        02/28/2025  00:29:39  PAGE 44



      ---         MODULE    ---      ---       zf_common_typedef
      00010D03H   PUBLIC    XDATA    ---       tim11_irq_handler
      00010D05H   PUBLIC    XDATA    ---       uart1_irq_handler
      00010D07H   PUBLIC    XDATA    ---       uart2_irq_handler
      00010D09H   PUBLIC    XDATA    ---       uart3_irq_handler
      00010D0BH   PUBLIC    XDATA    ---       uart4_irq_handler
      00010D0DH   PUBLIC    XDATA    ---       tim0_irq_handler
      00010D0FH   PUBLIC    XDATA    ---       int0_irq_handler
      00010D11H   PUBLIC    XDATA    ---       tim1_irq_handler
      00010D13H   PUBLIC    XDATA    ---       int1_irq_handler
      00010D15H   PUBLIC    XDATA    ---       tim2_irq_handler
      00010D17H   PUBLIC    XDATA    ---       int2_irq_handler
      00010D19H   PUBLIC    XDATA    ---       tim3_irq_handler
      00010D1BH   PUBLIC    XDATA    ---       int3_irq_handler
      00010D1DH   PUBLIC    XDATA    ---       tim4_irq_handler
      00010D1FH   PUBLIC    XDATA    ---       int4_irq_handler
      000000D0H   SFRSYM    DATA     BYTE      PSW
      0000009DH   SFRSYM    DATA     BYTE      IRCBAND
      00000097H   SFRSYM    DATA     BYTE      AUXR2
      000000EFH   SFRSYM    DATA     BYTE      AUXINTIF
      000000FDH   SFRSYM    DATA     BYTE      S4CON
      000000ACH   SFRSYM    DATA     BYTE      S3CON
      0000009AH   SFRSYM    DATA     BYTE      S2CON
      000000B7H   SFRSYM    DATA     BYTE      IPH
      000000CDH   SFRSYM    DATA     BYTE      SPSTAT
      000000DDH   SFRSYM    DATA     BYTE      T4T3M
      000000C1H   SFRSYM    DATA     BYTE      WDT_CONTR
      000000DFH   SFRSYM    DATA     BYTE      IP3
      000000F4H   SFRSYM    DATA     BYTE      USBCON
      000000B5H   SFRSYM    DATA     BYTE      IP2
      000000FFH   SFRSYM    DATA     BYTE      RSTCFG
      000000C7H   SFRSYM    DATA     BYTE      IAP_CONTR
      0000008EH   SFRSYM    DATA     BYTE      AUXR
      000000AFH   SFRSYM    DATA     BYTE      IE2
      00000088H   SFRSYM    DATA     BYTE      TCON
      00000089H   SFRSYM    DATA     BYTE      TMOD
      00000098H   SFRSYM    DATA     BYTE      SCON
      00000087H   SFRSYM    DATA     BYTE      PCON
      000000BCH   SFRSYM    DATA     BYTE      ADC_CONTR
      000000D1H   SFRSYM    DATA     BYTE      PSW1
      000000E7H   SFRSYM    DATA     BYTE      CMPCR2
      000000E6H   SFRSYM    DATA     BYTE      CMPCR1
      000000DEH   SFRSYM    DATA     BYTE      ADCCFG
      000000B8H   SFRSYM    DATA     BYTE      IP
      0000008FH   SFRSYM    DATA     BYTE      INTCLKO
      000000EEH   SFRSYM    DATA     BYTE      IP3H
      000000B6H   SFRSYM    DATA     BYTE      IP2H
      000000BFH   SFRSYM    DATA     BYTE      P_SW4
      000000A8H   SFRSYM    DATA     BYTE      IE
      000000BBH   SFRSYM    DATA     BYTE      P_SW3
      000000BAH   SFRSYM    DATA     BYTE      P_SW2
      000000A2H   SFRSYM    DATA     BYTE      P_SW1
      000000CEH   SFRSYM    DATA     BYTE      SPCTL
      000000F8H   SFRSYM    DATA     BYTE      P7
      000000E8H   SFRSYM    DATA     BYTE      P6
      000000C8H   SFRSYM    DATA     BYTE      P5
      000000C0H   SFRSYM    DATA     BYTE      P4
      000000ABH   SFRSYM    DATA     BYTE      WKTCH
      000000B0H   SFRSYM    DATA     BYTE      P3
      000000A0H   SFRSYM    DATA     BYTE      P2
      00000090H   SFRSYM    DATA     BYTE      P1
      00000080H   SFRSYM    DATA     BYTE      P0

      ---         MODULE    ---      ---       zf_common_interrupt
L251 LINKER/LOCATER V4.66.93.0                                                        02/28/2025  00:29:39  PAGE 45


      00FF001EH   PUBLIC    CODE     ---       interrupt_global_enable
      000000D0H   SFRSYM    DATA     BYTE      PSW
      0000009DH   SFRSYM    DATA     BYTE      IRCBAND
      00000097H   SFRSYM    DATA     BYTE      AUXR2
      000000EFH   SFRSYM    DATA     BYTE      AUXINTIF
      000000FDH   SFRSYM    DATA     BYTE      S4CON
      000000ACH   SFRSYM    DATA     BYTE      S3CON
      0000009AH   SFRSYM    DATA     BYTE      S2CON
      000000B7H   SFRSYM    DATA     BYTE      IPH
      000000CDH   SFRSYM    DATA     BYTE      SPSTAT
      000000DDH   SFRSYM    DATA     BYTE      T4T3M
      000000C1H   SFRSYM    DATA     BYTE      WDT_CONTR
      000000DFH   SFRSYM    DATA     BYTE      IP3
      000000F4H   SFRSYM    DATA     BYTE      USBCON
      000000B5H   SFRSYM    DATA     BYTE      IP2
      000000FFH   SFRSYM    DATA     BYTE      RSTCFG
      000000C7H   SFRSYM    DATA     BYTE      IAP_CONTR
      0000008EH   SFRSYM    DATA     BYTE      AUXR
      000000AFH   SFRSYM    DATA     BYTE      IE2
      00000088H   SFRSYM    DATA     BYTE      TCON
      00000089H   SFRSYM    DATA     BYTE      TMOD
      00000098H   SFRSYM    DATA     BYTE      SCON
      00000087H   SFRSYM    DATA     BYTE      PCON
      000000BCH   SFRSYM    DATA     BYTE      ADC_CONTR
      000000D1H   SFRSYM    DATA     BYTE      PSW1
      000000E7H   SFRSYM    DATA     BYTE      CMPCR2
      000000E6H   SFRSYM    DATA     BYTE      CMPCR1
      000000DEH   SFRSYM    DATA     BYTE      ADCCFG
      000000B8H   SFRSYM    DATA     BYTE      IP
      0000008FH   SFRSYM    DATA     BYTE      INTCLKO
      000000EEH   SFRSYM    DATA     BYTE      IP3H
      000000B6H   SFRSYM    DATA     BYTE      IP2H
      000000BFH   SFRSYM    DATA     BYTE      P_SW4
      000000A8H   SFRSYM    DATA     BYTE      IE
      000000BBH   SFRSYM    DATA     BYTE      P_SW3
      000000BAH   SFRSYM    DATA     BYTE      P_SW2
      000000A2H   SFRSYM    DATA     BYTE      P_SW1
      000000CEH   SFRSYM    DATA     BYTE      SPCTL
      000000F8H   SFRSYM    DATA     BYTE      P7
      000000A8H.7 SFRSYM    DATA     BIT       EA
      000000E8H   SFRSYM    DATA     BYTE      P6
      000000C8H   SFRSYM    DATA     BYTE      P5
      000000C0H   SFRSYM    DATA     BYTE      P4
      000000ABH   SFRSYM    DATA     BYTE      WKTCH
      000000B0H   SFRSYM    DATA     BYTE      P3
      000000A0H   SFRSYM    DATA     BYTE      P2
      00000090H   SFRSYM    DATA     BYTE      P1
      00000080H   SFRSYM    DATA     BYTE      P0
      WR4         REGSYM    ---      INT       irqn
      R3          REGSYM    ---      BYTE      priority

      00FF001EH   BLOCK     CODE     ---       LVL=0
      00FF001EH   LINE      CODE     ---       #88
      00FF001EH   LINE      CODE     ---       #90
      00FF0020H   LINE      CODE     ---       #91
      ---         BLOCKEND  ---      ---       LVL=0

      ---         MODULE    ---      ---       zf_driver_adc
      00FF9601H   PUBLIC    CODE     ---       adc_convert
      00FF893BH   PUBLIC    CODE     ---       adc_init
      00000094H   SFRSYM    DATA     BYTE      P0M0
      000000D0H   SFRSYM    DATA     BYTE      PSW
      0000009DH   SFRSYM    DATA     BYTE      IRCBAND
      00000097H   SFRSYM    DATA     BYTE      AUXR2
      000000EFH   SFRSYM    DATA     BYTE      AUXINTIF
L251 LINKER/LOCATER V4.66.93.0                                                        02/28/2025  00:29:39  PAGE 46


      000000FDH   SFRSYM    DATA     BYTE      S4CON
      000000ACH   SFRSYM    DATA     BYTE      S3CON
      0000009AH   SFRSYM    DATA     BYTE      S2CON
      000000B7H   SFRSYM    DATA     BYTE      IPH
      000000CDH   SFRSYM    DATA     BYTE      SPSTAT
      000000BEH   SFRSYM    DATA     BYTE      ADC_RESL
      000000DDH   SFRSYM    DATA     BYTE      T4T3M
      000000C1H   SFRSYM    DATA     BYTE      WDT_CONTR
      000000DFH   SFRSYM    DATA     BYTE      IP3
      000000F4H   SFRSYM    DATA     BYTE      USBCON
      000000B5H   SFRSYM    DATA     BYTE      IP2
      000000FFH   SFRSYM    DATA     BYTE      RSTCFG
      000000C7H   SFRSYM    DATA     BYTE      IAP_CONTR
      0000008EH   SFRSYM    DATA     BYTE      AUXR
      000000AFH   SFRSYM    DATA     BYTE      IE2
      00000088H   SFRSYM    DATA     BYTE      TCON
      00000089H   SFRSYM    DATA     BYTE      TMOD
      00000098H   SFRSYM    DATA     BYTE      SCON
      00000087H   SFRSYM    DATA     BYTE      PCON
      000000BCH   SFRSYM    DATA     BYTE      ADC_CONTR
      000000D1H   SFRSYM    DATA     BYTE      PSW1
      000000E7H   SFRSYM    DATA     BYTE      CMPCR2
      000000E6H   SFRSYM    DATA     BYTE      CMPCR1
      000000DEH   SFRSYM    DATA     BYTE      ADCCFG
      000000B8H   SFRSYM    DATA     BYTE      IP
      0000008FH   SFRSYM    DATA     BYTE      INTCLKO
      000000EEH   SFRSYM    DATA     BYTE      IP3H
      000000B6H   SFRSYM    DATA     BYTE      IP2H
      000000BDH   SFRSYM    DATA     BYTE      ADC_RES
      000000BFH   SFRSYM    DATA     BYTE      P_SW4
      000000A8H   SFRSYM    DATA     BYTE      IE
      000000BBH   SFRSYM    DATA     BYTE      P_SW3
      000000BAH   SFRSYM    DATA     BYTE      P_SW2
      000000A2H   SFRSYM    DATA     BYTE      P_SW1
      000000CEH   SFRSYM    DATA     BYTE      SPCTL
      000000F8H   SFRSYM    DATA     BYTE      P7
      000000E8H   SFRSYM    DATA     BYTE      P6
      000000C8H   SFRSYM    DATA     BYTE      P5
      000000C0H   SFRSYM    DATA     BYTE      P4
      000000ABH   SFRSYM    DATA     BYTE      WKTCH
      000000B0H   SFRSYM    DATA     BYTE      P3
      000000A0H   SFRSYM    DATA     BYTE      P2
      00000090H   SFRSYM    DATA     BYTE      P1
      00000080H   SFRSYM    DATA     BYTE      P0
      00000091H   SFRSYM    DATA     BYTE      P1M1
      00000092H   SFRSYM    DATA     BYTE      P1M0
      00000093H   SFRSYM    DATA     BYTE      P0M1
      00010E90H   SYMBOL    XDATA    BYTE      adc_resolution
      WR14        REGSYM    ---      INT       ch
      R13         REGSYM    ---      BYTE      count
      R12         REGSYM    ---      BYTE      i

      00FF9601H   BLOCK     CODE     ---       LVL=0
      WR6         REGSYM    ---      INT       ch
      WR6         REGSYM    ---      WORD      adc_value
      00FF9601H   LINE      CODE     ---       #75
      00FF9601H   LINE      CODE     ---       #76
      00FF9601H   LINE      CODE     ---       #79
      00FF9604H   LINE      CODE     ---       #80
      00FF9608H   LINE      CODE     ---       #82
      00FF960BH   LINE      CODE     ---       #84
      00FF9610H   LINE      CODE     ---       #86
      00FF9613H   LINE      CODE     ---       #88
      00FF9615H   LINE      CODE     ---       #89
      00FF9619H   LINE      CODE     ---       #90
L251 LINKER/LOCATER V4.66.93.0                                                        02/28/2025  00:29:39  PAGE 47


      00FF961FH   LINE      CODE     ---       #92
      00FF9622H   LINE      CODE     ---       #93
      00FF9625H   LINE      CODE     ---       #95
      00FF9630H   LINE      CODE     ---       #98
      00FF9630H   LINE      CODE     ---       #99
      ---         BLOCKEND  ---      ---       LVL=0

      00FF893BH   BLOCK     CODE     ---       LVL=0
      WR4         REGSYM    ---      INT       ch
      WR2         REGSYM    ---      INT       resolution
      00FF893BH   LINE      CODE     ---       #108
      00FF893FH   LINE      CODE     ---       #110
      00FF8942H   LINE      CODE     ---       #112
      00FF8945H   LINE      CODE     ---       #113
      00FF894BH   LINE      CODE     ---       #115
      00FF8957H   LINE      CODE     ---       #118
      00FF896CH   LINE      CODE     ---       #119
      00FF8970H   LINE      CODE     ---       #120
      00FF8972H   LINE      CODE     ---       #121
      00FF8976H   LINE      CODE     ---       #124
      00FF898BH   LINE      CODE     ---       #125
      00FF898FH   LINE      CODE     ---       #126
      00FF898FH   LINE      CODE     ---       #128
      00FF8992H   LINE      CODE     ---       #130
      00FF8995H   LINE      CODE     ---       #132
      00FF899BH   LINE      CODE     ---       #133
      ---         BLOCKEND  ---      ---       LVL=0

      ---         MODULE    ---      ---       zf_driver_delay
      00FF8DB3H   PUBLIC    CODE     ---       system_delay_init
      00FF8D12H   PUBLIC    CODE     ---       system_delay_ms
      000000D0H   SFRSYM    DATA     BYTE      PSW
      0000009DH   SFRSYM    DATA     BYTE      IRCBAND
      00000097H   SFRSYM    DATA     BYTE      AUXR2
      000000EFH   SFRSYM    DATA     BYTE      AUXINTIF
      000000FDH   SFRSYM    DATA     BYTE      S4CON
      000000ACH   SFRSYM    DATA     BYTE      S3CON
      0000009AH   SFRSYM    DATA     BYTE      S2CON
      000000B7H   SFRSYM    DATA     BYTE      IPH
      000000CDH   SFRSYM    DATA     BYTE      SPSTAT
      000000DDH   SFRSYM    DATA     BYTE      T4T3M
      000000C1H   SFRSYM    DATA     BYTE      WDT_CONTR
      000000DFH   SFRSYM    DATA     BYTE      IP3
      000000F4H   SFRSYM    DATA     BYTE      USBCON
      000000B5H   SFRSYM    DATA     BYTE      IP2
      000000FFH   SFRSYM    DATA     BYTE      RSTCFG
      000000C7H   SFRSYM    DATA     BYTE      IAP_CONTR
      0000008EH   SFRSYM    DATA     BYTE      AUXR
      000000AFH   SFRSYM    DATA     BYTE      IE2
      00000088H   SFRSYM    DATA     BYTE      TCON
      00000089H   SFRSYM    DATA     BYTE      TMOD
      00000098H   SFRSYM    DATA     BYTE      SCON
      00000087H   SFRSYM    DATA     BYTE      PCON
      000000BCH   SFRSYM    DATA     BYTE      ADC_CONTR
      000000D1H   SFRSYM    DATA     BYTE      PSW1
      000000E7H   SFRSYM    DATA     BYTE      CMPCR2
      000000E6H   SFRSYM    DATA     BYTE      CMPCR1
      000000DEH   SFRSYM    DATA     BYTE      ADCCFG
      000000B8H   SFRSYM    DATA     BYTE      IP
      0000008FH   SFRSYM    DATA     BYTE      INTCLKO
      000000EEH   SFRSYM    DATA     BYTE      IP3H
      000000B6H   SFRSYM    DATA     BYTE      IP2H
      000000BFH   SFRSYM    DATA     BYTE      P_SW4
      000000A8H   SFRSYM    DATA     BYTE      IE
      000000BBH   SFRSYM    DATA     BYTE      P_SW3
L251 LINKER/LOCATER V4.66.93.0                                                        02/28/2025  00:29:39  PAGE 48


      000000BAH   SFRSYM    DATA     BYTE      P_SW2
      000000A2H   SFRSYM    DATA     BYTE      P_SW1
      000000CEH   SFRSYM    DATA     BYTE      SPCTL
      000000F8H   SFRSYM    DATA     BYTE      P7
      000000E8H   SFRSYM    DATA     BYTE      P6
      000000C8H   SFRSYM    DATA     BYTE      P5
      000000C0H   SFRSYM    DATA     BYTE      P4
      000000ABH   SFRSYM    DATA     BYTE      WKTCH
      000000B0H   SFRSYM    DATA     BYTE      P3
      000000A0H   SFRSYM    DATA     BYTE      P2
      00000090H   SFRSYM    DATA     BYTE      P1
      00000080H   SFRSYM    DATA     BYTE      P0
      00010E77H   SYMBOL    XDATA    WORD      pca_delay_1ms
      00010E79H   SYMBOL    XDATA    WORD      pca_delay_1us

      00FF8DB3H   BLOCK     CODE     ---       LVL=0
      00FF8DB3H   LINE      CODE     ---       #48
      00FF8DB3H   LINE      CODE     ---       #50
      00FF8DCCH   LINE      CODE     ---       #51
      00FF8DDFH   LINE      CODE     ---       #53
      00FF8DECH   LINE      CODE     ---       #54
      00FF8DF5H   LINE      CODE     ---       #55
      00FF8E01H   LINE      CODE     ---       #57
      ---         BLOCKEND  ---      ---       LVL=0

      00FF8D12H   BLOCK     CODE     ---       LVL=0
      WR8         REGSYM    ---      WORD      ms
      00FF8D14H   BLOCK     CODE     NEAR LAB  LVL=1
      WR6         REGSYM    ---      WORD      temp
      ---         BLOCKEND  ---      ---       LVL=1
      00FF8D12H   LINE      CODE     ---       #65
      00FF8D14H   LINE      CODE     ---       #66
      00FF8D14H   LINE      CODE     ---       #69
      00FF8D16H   LINE      CODE     ---       #71
      00FF8D36H   LINE      CODE     ---       #73
      00FF8D3DH   LINE      CODE     ---       #74
      00FF8D44H   LINE      CODE     ---       #76
      00FF8D52H   LINE      CODE     ---       #77
      00FF8D5AH   LINE      CODE     ---       #78
      00FF8D62H   LINE      CODE     ---       #79
      ---         BLOCKEND  ---      ---       LVL=0
      WR8         REGSYM    ---      WORD      ms
      WR6         REGSYM    ---      WORD      temp

      ---         MODULE    ---      ---       zf_driver_eeprom
      00FF0190H   PUBLIC    CODE     ---       eeprom_trig
      000000D0H   SFRSYM    DATA     BYTE      PSW
      0000009DH   SFRSYM    DATA     BYTE      IRCBAND
      00000097H   SFRSYM    DATA     BYTE      AUXR2
      000000C6H   SFRSYM    DATA     BYTE      IAP_TRIG
      000000EFH   SFRSYM    DATA     BYTE      AUXINTIF
      000000FDH   SFRSYM    DATA     BYTE      S4CON
      000000ACH   SFRSYM    DATA     BYTE      S3CON
      0000009AH   SFRSYM    DATA     BYTE      S2CON
      000000B7H   SFRSYM    DATA     BYTE      IPH
      000000CDH   SFRSYM    DATA     BYTE      SPSTAT
      000000DDH   SFRSYM    DATA     BYTE      T4T3M
      000000C1H   SFRSYM    DATA     BYTE      WDT_CONTR
      000000C2H   SFRSYM    DATA     BYTE      IAP_DATA
      000000DFH   SFRSYM    DATA     BYTE      IP3
      000000F4H   SFRSYM    DATA     BYTE      USBCON
      000000B5H   SFRSYM    DATA     BYTE      IP2
      000000FFH   SFRSYM    DATA     BYTE      RSTCFG
      000000C7H   SFRSYM    DATA     BYTE      IAP_CONTR
      0000008EH   SFRSYM    DATA     BYTE      AUXR
L251 LINKER/LOCATER V4.66.93.0                                                        02/28/2025  00:29:39  PAGE 49


      000000AFH   SFRSYM    DATA     BYTE      IE2
      00000088H   SFRSYM    DATA     BYTE      TCON
      00000089H   SFRSYM    DATA     BYTE      TMOD
      00000098H   SFRSYM    DATA     BYTE      SCON
      000000F5H   SFRSYM    DATA     BYTE      IAP_TPS
      00000087H   SFRSYM    DATA     BYTE      PCON
      000000BCH   SFRSYM    DATA     BYTE      ADC_CONTR
      000000D1H   SFRSYM    DATA     BYTE      PSW1
      000000E7H   SFRSYM    DATA     BYTE      CMPCR2
      000000E6H   SFRSYM    DATA     BYTE      CMPCR1
      000000C4H   SFRSYM    DATA     BYTE      IAP_ADDRL
      000000C3H   SFRSYM    DATA     BYTE      IAP_ADDRH
      000000F6H   SFRSYM    DATA     BYTE      IAP_ADDRE
      000000DEH   SFRSYM    DATA     BYTE      ADCCFG
      000000B8H   SFRSYM    DATA     BYTE      IP
      0000008FH   SFRSYM    DATA     BYTE      INTCLKO
      000000EEH   SFRSYM    DATA     BYTE      IP3H
      000000B6H   SFRSYM    DATA     BYTE      IP2H
      000000C5H   SFRSYM    DATA     BYTE      IAP_CMD
      000000BFH   SFRSYM    DATA     BYTE      P_SW4
      000000A8H   SFRSYM    DATA     BYTE      IE
      000000BBH   SFRSYM    DATA     BYTE      P_SW3
      000000BAH   SFRSYM    DATA     BYTE      P_SW2
      000000A2H   SFRSYM    DATA     BYTE      P_SW1
      000000CEH   SFRSYM    DATA     BYTE      SPCTL
      000000F8H   SFRSYM    DATA     BYTE      P7
      000000A8H.7 SFRSYM    DATA     BIT       EA
      000000E8H   SFRSYM    DATA     BYTE      P6
      000000C8H   SFRSYM    DATA     BYTE      P5
      000000C0H   SFRSYM    DATA     BYTE      P4
      000000ABH   SFRSYM    DATA     BYTE      WKTCH
      000000B0H   SFRSYM    DATA     BYTE      P3
      000000A0H   SFRSYM    DATA     BYTE      P2
      00000090H   SFRSYM    DATA     BYTE      P1
      00000080H   SFRSYM    DATA     BYTE      P0
      00FF9D32H   SYMBOL    HCONST   ---       ?tpl?0001

      00FF0190H   BLOCK     CODE     ---       LVL=0
      00FF0190H   LINE      CODE     ---       #46
      00FF0190H   LINE      CODE     ---       #49
      00FF0193H   LINE      CODE     ---       #50
      00FF0196H   LINE      CODE     ---       #53
      00FF0197H   LINE      CODE     ---       #54
      00FF0198H   LINE      CODE     ---       #55
      00FF0199H   LINE      CODE     ---       #56
      00FF019AH   LINE      CODE     ---       #58
      ---         BLOCKEND  ---      ---       LVL=0
      R7          REGSYM    ---      BYTE      write_time
      DR4         REGSYM    ---      DWORD     addr
      R11         REGSYM    ---      BYTE      temp
      DR4         REGSYM    ---      DWORD     addr
      R15         REGSYM    ---      BYTE      byte
      REG=3       REGSYM    ---      ---       buf
      REG=3       REGSYM    ---      ---       buf
      DR0         REGSYM    ---      DWORD     addr
      REG=3       REGSYM    ---      ---       buf

      ---         MODULE    ---      ---       zf_driver_encoder
      00FF81DDH   PUBLIC    CODE     ---       encoder_get_count
      00FF7B9FH   PUBLIC    CODE     ---       encoder_dir_init
      00FF8520H   PUBLIC    CODE     ---       encoder_clear_count
      000000D0H   SFRSYM    DATA     BYTE      PSW
      0000009DH   SFRSYM    DATA     BYTE      IRCBAND
      00000097H   SFRSYM    DATA     BYTE      AUXR2
      000000EFH   SFRSYM    DATA     BYTE      AUXINTIF
L251 LINKER/LOCATER V4.66.93.0                                                        02/28/2025  00:29:39  PAGE 50


      000000FDH   SFRSYM    DATA     BYTE      S4CON
      000000ACH   SFRSYM    DATA     BYTE      S3CON
      0000009AH   SFRSYM    DATA     BYTE      S2CON
      000000B7H   SFRSYM    DATA     BYTE      IPH
      000000CDH   SFRSYM    DATA     BYTE      SPSTAT
      000000DDH   SFRSYM    DATA     BYTE      T4T3M
      000000C1H   SFRSYM    DATA     BYTE      WDT_CONTR
      00000088H.6 SFRSYM    DATA     BIT       TR1
      00000088H.4 SFRSYM    DATA     BIT       TR0
      000000D3H   SFRSYM    DATA     BYTE      T4L
      000000D5H   SFRSYM    DATA     BYTE      T3L
      000000D7H   SFRSYM    DATA     BYTE      T2L
      0000008BH   SFRSYM    DATA     BYTE      TL1
      0000008AH   SFRSYM    DATA     BYTE      TL0
      000000D2H   SFRSYM    DATA     BYTE      T4H
      000000D4H   SFRSYM    DATA     BYTE      T3H
      000000D6H   SFRSYM    DATA     BYTE      T2H
      0000008DH   SFRSYM    DATA     BYTE      TH1
      0000008CH   SFRSYM    DATA     BYTE      TH0
      000000DFH   SFRSYM    DATA     BYTE      IP3
      000000F4H   SFRSYM    DATA     BYTE      USBCON
      000000B5H   SFRSYM    DATA     BYTE      IP2
      000000FFH   SFRSYM    DATA     BYTE      RSTCFG
      000000C7H   SFRSYM    DATA     BYTE      IAP_CONTR
      0000008EH   SFRSYM    DATA     BYTE      AUXR
      000000AFH   SFRSYM    DATA     BYTE      IE2
      00000088H   SFRSYM    DATA     BYTE      TCON
      00000089H   SFRSYM    DATA     BYTE      TMOD
      00000098H   SFRSYM    DATA     BYTE      SCON
      00000087H   SFRSYM    DATA     BYTE      PCON
      000000BCH   SFRSYM    DATA     BYTE      ADC_CONTR
      000000D1H   SFRSYM    DATA     BYTE      PSW1
      000000E7H   SFRSYM    DATA     BYTE      CMPCR2
      000000E6H   SFRSYM    DATA     BYTE      CMPCR1
      000000DEH   SFRSYM    DATA     BYTE      ADCCFG
      000000B8H   SFRSYM    DATA     BYTE      IP
      0000008FH   SFRSYM    DATA     BYTE      INTCLKO
      000000EEH   SFRSYM    DATA     BYTE      IP3H
      000000B6H   SFRSYM    DATA     BYTE      IP2H
      000000BFH   SFRSYM    DATA     BYTE      P_SW4
      000000A8H   SFRSYM    DATA     BYTE      IE
      000000BBH   SFRSYM    DATA     BYTE      P_SW3
      000000BAH   SFRSYM    DATA     BYTE      P_SW2
      000000A2H   SFRSYM    DATA     BYTE      P_SW1
      000000CEH   SFRSYM    DATA     BYTE      SPCTL
      000000F8H   SFRSYM    DATA     BYTE      P7
      000000E8H   SFRSYM    DATA     BYTE      P6
      000000C8H   SFRSYM    DATA     BYTE      P5
      000000C0H   SFRSYM    DATA     BYTE      P4
      000000ABH   SFRSYM    DATA     BYTE      WKTCH
      000000B0H   SFRSYM    DATA     BYTE      P3
      000000A0H   SFRSYM    DATA     BYTE      P2
      00000090H   SFRSYM    DATA     BYTE      P1
      00000080H   SFRSYM    DATA     BYTE      P0
      00010E6DH   SYMBOL    XDATA    ---       encoder_dir_pin

      00FF81DDH   BLOCK     CODE     ---       LVL=0
      WR2         REGSYM    ---      INT       encoder_n
      00FF81E1H   BLOCK     CODE     NEAR LAB  LVL=1
      WR14        REGSYM    ---      INT       dat
      ---         BLOCKEND  ---      ---       LVL=1
      00FF81DDH   LINE      CODE     ---       #48
      00FF81E1H   LINE      CODE     ---       #49
      00FF81E1H   LINE      CODE     ---       #50
      00FF81E3H   LINE      CODE     ---       #52
L251 LINKER/LOCATER V4.66.93.0                                                        02/28/2025  00:29:39  PAGE 51


      00FF81FDH   LINE      CODE     ---       #54
      00FF81FDH   LINE      CODE     ---       #56
      00FF8203H   LINE      CODE     ---       #57
      00FF8205H   LINE      CODE     ---       #58
      00FF8207H   LINE      CODE     ---       #61
      00FF8207H   LINE      CODE     ---       #63
      00FF820DH   LINE      CODE     ---       #64
      00FF820FH   LINE      CODE     ---       #65
      00FF8211H   LINE      CODE     ---       #68
      00FF8211H   LINE      CODE     ---       #70
      00FF8217H   LINE      CODE     ---       #71
      00FF8219H   LINE      CODE     ---       #72
      00FF821BH   LINE      CODE     ---       #75
      00FF821BH   LINE      CODE     ---       #77
      00FF8221H   LINE      CODE     ---       #78
      00FF8223H   LINE      CODE     ---       #79
      00FF8225H   LINE      CODE     ---       #82
      00FF8225H   LINE      CODE     ---       #84
      00FF822BH   LINE      CODE     ---       #85
      00FF8231H   LINE      CODE     ---       #86
      00FF8233H   LINE      CODE     ---       #89
      00FF8233H   LINE      CODE     ---       #91
      00FF8242H   LINE      CODE     ---       #92
      00FF824DH   LINE      CODE     ---       #93
      00FF824DH   LINE      CODE     ---       #96
      00FF824DH   LINE      CODE     ---       #98
      00FF8261H   LINE      CODE     ---       #100
      00FF8267H   LINE      CODE     ---       #101
      00FF8267H   LINE      CODE     ---       #103
      00FF8269H   LINE      CODE     ---       #104
      ---         BLOCKEND  ---      ---       LVL=0

      00FF8520H   BLOCK     CODE     ---       LVL=0
      WR6         REGSYM    ---      INT       encoder_n
      00FF8520H   LINE      CODE     ---       #113
      00FF8520H   LINE      CODE     ---       #115
      00FF853AH   LINE      CODE     ---       #117
      00FF853AH   LINE      CODE     ---       #119
      00FF853CH   LINE      CODE     ---       #120
      00FF853FH   LINE      CODE     ---       #121
      00FF8542H   LINE      CODE     ---       #122
      00FF8544H   LINE      CODE     ---       #123
      00FF8545H   LINE      CODE     ---       #126
      00FF8545H   LINE      CODE     ---       #128
      00FF8547H   LINE      CODE     ---       #129
      00FF854AH   LINE      CODE     ---       #130
      00FF854DH   LINE      CODE     ---       #131
      00FF854FH   LINE      CODE     ---       #132
      00FF8550H   LINE      CODE     ---       #135
      00FF8550H   LINE      CODE     ---       #137
      00FF8553H   LINE      CODE     ---       #138
      00FF8556H   LINE      CODE     ---       #139
      00FF8559H   LINE      CODE     ---       #140
      00FF855CH   LINE      CODE     ---       #141
      00FF855DH   LINE      CODE     ---       #144
      00FF855DH   LINE      CODE     ---       #146
      00FF8560H   LINE      CODE     ---       #147
      00FF8563H   LINE      CODE     ---       #148
      00FF8566H   LINE      CODE     ---       #149
      00FF8569H   LINE      CODE     ---       #150
      00FF856AH   LINE      CODE     ---       #153
      00FF856AH   LINE      CODE     ---       #155
      00FF856DH   LINE      CODE     ---       #156
      00FF8570H   LINE      CODE     ---       #157
      00FF8573H   LINE      CODE     ---       #158
L251 LINKER/LOCATER V4.66.93.0                                                        02/28/2025  00:29:39  PAGE 52


      00FF8576H   LINE      CODE     ---       #159
      00FF8577H   LINE      CODE     ---       #162
      00FF8577H   LINE      CODE     ---       #164
      00FF8587H   LINE      CODE     ---       #165
      00FF8593H   LINE      CODE     ---       #166
      00FF859AH   LINE      CODE     ---       #167
      00FF85A2H   LINE      CODE     ---       #168
      00FF85A2H   LINE      CODE     ---       #170
      00FF85A2H   LINE      CODE     ---       #171
      ---         BLOCKEND  ---      ---       LVL=0

      00FF7B9FH   BLOCK     CODE     ---       LVL=0
      WR12        REGSYM    ---      INT       encoder_n
      WR14        REGSYM    ---      INT       dir_pin
      00010ABBH   SYMBOL    XDATA    INT       lsb_pin
      00FF7B9FH   LINE      CODE     ---       #183
      00FF7BABH   LINE      CODE     ---       #194
      00FF7BB7H   LINE      CODE     ---       #196
      00FF7BC9H   LINE      CODE     ---       #198
      00FF7BD8H   LINE      CODE     ---       #200
      00FF7BF2H   LINE      CODE     ---       #202
      00FF7BF2H   LINE      CODE     ---       #204
      00FF7BF5H   LINE      CODE     ---       #205
      00FF7BF8H   LINE      CODE     ---       #206
      00FF7BFBH   LINE      CODE     ---       #207
      00FF7BFDH   LINE      CODE     ---       #208
      00FF7BFFH   LINE      CODE     ---       #211
      00FF7BFFH   LINE      CODE     ---       #213
      00FF7C02H   LINE      CODE     ---       #214
      00FF7C05H   LINE      CODE     ---       #215
      00FF7C08H   LINE      CODE     ---       #216
      00FF7C0AH   LINE      CODE     ---       #217
      00FF7C0CH   LINE      CODE     ---       #220
      00FF7C0CH   LINE      CODE     ---       #222
      00FF7C0FH   LINE      CODE     ---       #223
      00FF7C12H   LINE      CODE     ---       #224
      00FF7C15H   LINE      CODE     ---       #225
      00FF7C17H   LINE      CODE     ---       #228
      00FF7C17H   LINE      CODE     ---       #230
      00FF7C1AH   LINE      CODE     ---       #231
      00FF7C1DH   LINE      CODE     ---       #232
      00FF7C20H   LINE      CODE     ---       #233
      00FF7C22H   LINE      CODE     ---       #236
      00FF7C22H   LINE      CODE     ---       #238
      00FF7C25H   LINE      CODE     ---       #239
      00FF7C28H   LINE      CODE     ---       #240
      00FF7C2BH   LINE      CODE     ---       #241
      00FF7C2DH   LINE      CODE     ---       #244
      00FF7C2DH   LINE      CODE     ---       #246
      00FF7C39H   LINE      CODE     ---       #247
      00FF7C40H   LINE      CODE     ---       #248
      00FF7C4CH   LINE      CODE     ---       #249
      00FF7C4CH   LINE      CODE     ---       #251
      00FF7C4CH   LINE      CODE     ---       #252
      ---         BLOCKEND  ---      ---       LVL=0

      ---         MODULE    ---      ---       zf_driver_exti
      000000D0H   SFRSYM    DATA     BYTE      PSW
      0000009DH   SFRSYM    DATA     BYTE      IRCBAND
      00000097H   SFRSYM    DATA     BYTE      AUXR2
      000000EFH   SFRSYM    DATA     BYTE      AUXINTIF
      000000FDH   SFRSYM    DATA     BYTE      S4CON
      000000ACH   SFRSYM    DATA     BYTE      S3CON
      0000009AH   SFRSYM    DATA     BYTE      S2CON
      000000B7H   SFRSYM    DATA     BYTE      IPH
L251 LINKER/LOCATER V4.66.93.0                                                        02/28/2025  00:29:39  PAGE 53


      000000CDH   SFRSYM    DATA     BYTE      SPSTAT
      000000DDH   SFRSYM    DATA     BYTE      T4T3M
      000000C1H   SFRSYM    DATA     BYTE      WDT_CONTR
      000000DFH   SFRSYM    DATA     BYTE      IP3
      000000F4H   SFRSYM    DATA     BYTE      USBCON
      000000B5H   SFRSYM    DATA     BYTE      IP2
      000000FFH   SFRSYM    DATA     BYTE      RSTCFG
      000000C7H   SFRSYM    DATA     BYTE      IAP_CONTR
      0000008EH   SFRSYM    DATA     BYTE      AUXR
      000000AFH   SFRSYM    DATA     BYTE      IE2
      00000088H   SFRSYM    DATA     BYTE      TCON
      00000089H   SFRSYM    DATA     BYTE      TMOD
      00000098H   SFRSYM    DATA     BYTE      SCON
      00000087H   SFRSYM    DATA     BYTE      PCON
      000000BCH   SFRSYM    DATA     BYTE      ADC_CONTR
      000000D1H   SFRSYM    DATA     BYTE      PSW1
      000000E7H   SFRSYM    DATA     BYTE      CMPCR2
      000000E6H   SFRSYM    DATA     BYTE      CMPCR1
      000000DEH   SFRSYM    DATA     BYTE      ADCCFG
      000000B8H   SFRSYM    DATA     BYTE      IP
      0000008FH   SFRSYM    DATA     BYTE      INTCLKO
      000000EEH   SFRSYM    DATA     BYTE      IP3H
      000000B6H   SFRSYM    DATA     BYTE      IP2H
      000000BFH   SFRSYM    DATA     BYTE      P_SW4
      000000A8H   SFRSYM    DATA     BYTE      IE
      000000BBH   SFRSYM    DATA     BYTE      P_SW3
      000000BAH   SFRSYM    DATA     BYTE      P_SW2
      000000A2H   SFRSYM    DATA     BYTE      P_SW1
      000000CEH   SFRSYM    DATA     BYTE      SPCTL
      000000F8H   SFRSYM    DATA     BYTE      P7
      000000E8H   SFRSYM    DATA     BYTE      P6
      000000C8H   SFRSYM    DATA     BYTE      P5
      000000C0H   SFRSYM    DATA     BYTE      P4
      000000ABH   SFRSYM    DATA     BYTE      WKTCH
      000000B0H   SFRSYM    DATA     BYTE      P3
      000000A0H   SFRSYM    DATA     BYTE      P2
      00000090H   SFRSYM    DATA     BYTE      P1
      00000080H   SFRSYM    DATA     BYTE      P0

      ---         MODULE    ---      ---       zf_driver_gpio
      00FF8869H   PUBLIC    CODE     ---       gpio_init
      00FF77D3H   PUBLIC    CODE     ---       gpio_get_level
      00FF6763H   PUBLIC    CODE     ---       gpio_set_level_speed
      00FF70CAH   PUBLIC    CODE     ---       gpio_set_level
      00FF7A28H   PUBLIC    CODE     ---       gpio_set_impedance
      00000094H   SFRSYM    DATA     BYTE      P0M0
      000000D0H   SFRSYM    DATA     BYTE      PSW
      0000009DH   SFRSYM    DATA     BYTE      IRCBAND
      00000097H   SFRSYM    DATA     BYTE      AUXR2
      000000EFH   SFRSYM    DATA     BYTE      AUXINTIF
      000000FDH   SFRSYM    DATA     BYTE      S4CON
      000000ACH   SFRSYM    DATA     BYTE      S3CON
      0000009AH   SFRSYM    DATA     BYTE      S2CON
      000000B7H   SFRSYM    DATA     BYTE      IPH
      000000CDH   SFRSYM    DATA     BYTE      SPSTAT
      000000DDH   SFRSYM    DATA     BYTE      T4T3M
      000000C1H   SFRSYM    DATA     BYTE      WDT_CONTR
      000000DFH   SFRSYM    DATA     BYTE      IP3
      000000F4H   SFRSYM    DATA     BYTE      USBCON
      000000B5H   SFRSYM    DATA     BYTE      IP2
      000000FFH   SFRSYM    DATA     BYTE      RSTCFG
      000000C7H   SFRSYM    DATA     BYTE      IAP_CONTR
      0000008EH   SFRSYM    DATA     BYTE      AUXR
      000000AFH   SFRSYM    DATA     BYTE      IE2
      00000088H   SFRSYM    DATA     BYTE      TCON
L251 LINKER/LOCATER V4.66.93.0                                                        02/28/2025  00:29:39  PAGE 54


      00000089H   SFRSYM    DATA     BYTE      TMOD
      00000098H   SFRSYM    DATA     BYTE      SCON
      00000087H   SFRSYM    DATA     BYTE      PCON
      000000BCH   SFRSYM    DATA     BYTE      ADC_CONTR
      000000D1H   SFRSYM    DATA     BYTE      PSW1
      000000E7H   SFRSYM    DATA     BYTE      CMPCR2
      000000E6H   SFRSYM    DATA     BYTE      CMPCR1
      000000DEH   SFRSYM    DATA     BYTE      ADCCFG
      000000B8H   SFRSYM    DATA     BYTE      IP
      0000008FH   SFRSYM    DATA     BYTE      INTCLKO
      000000EEH   SFRSYM    DATA     BYTE      IP3H
      000000B6H   SFRSYM    DATA     BYTE      IP2H
      000000BFH   SFRSYM    DATA     BYTE      P_SW4
      000000A8H   SFRSYM    DATA     BYTE      IE
      000000BBH   SFRSYM    DATA     BYTE      P_SW3
      000000BAH   SFRSYM    DATA     BYTE      P_SW2
      000000A2H   SFRSYM    DATA     BYTE      P_SW1
      000000CEH   SFRSYM    DATA     BYTE      SPCTL
      000000F8H   SFRSYM    DATA     BYTE      P7
      000000E8H   SFRSYM    DATA     BYTE      P6
      000000C8H   SFRSYM    DATA     BYTE      P5
      000000C0H   SFRSYM    DATA     BYTE      P4
      000000C9H   SFRSYM    DATA     BYTE      P5M1
      000000ABH   SFRSYM    DATA     BYTE      WKTCH
      000000B0H   SFRSYM    DATA     BYTE      P3
      000000B3H   SFRSYM    DATA     BYTE      P4M1
      000000CAH   SFRSYM    DATA     BYTE      P5M0
      000000A0H   SFRSYM    DATA     BYTE      P2
      000000B1H   SFRSYM    DATA     BYTE      P3M1
      000000B4H   SFRSYM    DATA     BYTE      P4M0
      00000090H   SFRSYM    DATA     BYTE      P1
      00000095H   SFRSYM    DATA     BYTE      P2M1
      000000B2H   SFRSYM    DATA     BYTE      P3M0
      00000080H   SFRSYM    DATA     BYTE      P0
      00000091H   SFRSYM    DATA     BYTE      P1M1
      00000096H   SFRSYM    DATA     BYTE      P2M0
      00000092H   SFRSYM    DATA     BYTE      P1M0
      00000093H   SFRSYM    DATA     BYTE      P0M1
      00FF5EC0H   SYMBOL    CODE     ---       gpio_set_dir
      00FF6DFAH   SYMBOL    CODE     ---       gpio_set_mode

      00FF6DFAH   BLOCK     CODE     ---       LVL=0
      WR4         REGSYM    ---      INT       pin
      WR2         REGSYM    ---      INT       mode
      00FF6DFAH   LINE      CODE     ---       #45
      00FF6DFEH   LINE      CODE     ---       #51
      00FF6E0AH   LINE      CODE     ---       #53
      00FF6E3BH   LINE      CODE     ---       #54
      00FF6E48H   LINE      CODE     ---       #55
      00FF6E4AH   LINE      CODE     ---       #56
      00FF6E50H   LINE      CODE     ---       #58
      00FF6E7AH   LINE      CODE     ---       #59
      00FF6E7CH   LINE      CODE     ---       #60
      00FF6E88H   LINE      CODE     ---       #62
      00FF6EB5H   LINE      CODE     ---       #63
      00FF6EB6H   LINE      CODE     ---       #64
      00FF6EBFH   LINE      CODE     ---       #66
      00FF6EECH   LINE      CODE     ---       #68
      00FF6EECH   LINE      CODE     ---       #70
      00FF6EFFH   LINE      CODE     ---       #71
      00FF6F01H   LINE      CODE     ---       #73
      00FF6F02H   LINE      CODE     ---       #75
      00FF6F02H   LINE      CODE     ---       #77
      00FF6F15H   LINE      CODE     ---       #78
      00FF6F17H   LINE      CODE     ---       #80
L251 LINKER/LOCATER V4.66.93.0                                                        02/28/2025  00:29:39  PAGE 55


      00FF6F18H   LINE      CODE     ---       #82
      00FF6F18H   LINE      CODE     ---       #84
      00FF6F2BH   LINE      CODE     ---       #85
      00FF6F2DH   LINE      CODE     ---       #87
      00FF6F2EH   LINE      CODE     ---       #89
      00FF6F2EH   LINE      CODE     ---       #91
      00FF6F41H   LINE      CODE     ---       #92
      00FF6F43H   LINE      CODE     ---       #94
      00FF6F44H   LINE      CODE     ---       #96
      00FF6F44H   LINE      CODE     ---       #98
      00FF6F57H   LINE      CODE     ---       #99
      00FF6F59H   LINE      CODE     ---       #101
      00FF6F5AH   LINE      CODE     ---       #103
      00FF6F5AH   LINE      CODE     ---       #105
      00FF6F6DH   LINE      CODE     ---       #106
      00FF6F6FH   LINE      CODE     ---       #108
      00FF6F6FH   LINE      CODE     ---       #109
      00FF6F6FH   LINE      CODE     ---       #112
      00FF6F6FH   LINE      CODE     ---       #113
      00FF6F6FH   LINE      CODE     ---       #114
      00FF6F6FH   LINE      CODE     ---       #119
      00FF6F6FH   LINE      CODE     ---       #120
      ---         BLOCKEND  ---      ---       LVL=0

      00FF6763H   BLOCK     CODE     ---       LVL=0
      WR4         REGSYM    ---      INT       pin
      WR2         REGSYM    ---      INT       speed
      00FF6763H   LINE      CODE     ---       #123
      00FF6767H   LINE      CODE     ---       #125
      00FF679EH   LINE      CODE     ---       #127
      00FF679EH   LINE      CODE     ---       #129
      00FF67A2H   LINE      CODE     ---       #131
      00FF67B9H   LINE      CODE     ---       #132
      00FF67BCH   LINE      CODE     ---       #133
      00FF67C5H   LINE      CODE     ---       #135
      00FF67DAH   LINE      CODE     ---       #136
      00FF67DDH   LINE      CODE     ---       #141
      00FF67DDH   LINE      CODE     ---       #143
      00FF67DDH   LINE      CODE     ---       #145
      00FF67DDH   LINE      CODE     ---       #147
      00FF67E1H   LINE      CODE     ---       #149
      00FF67F8H   LINE      CODE     ---       #150
      00FF67FBH   LINE      CODE     ---       #151
      00FF6804H   LINE      CODE     ---       #153
      00FF6819H   LINE      CODE     ---       #154
      00FF681CH   LINE      CODE     ---       #159
      00FF681CH   LINE      CODE     ---       #161
      00FF681CH   LINE      CODE     ---       #163
      00FF681CH   LINE      CODE     ---       #165
      00FF6820H   LINE      CODE     ---       #167
      00FF6837H   LINE      CODE     ---       #168
      00FF683AH   LINE      CODE     ---       #169
      00FF6843H   LINE      CODE     ---       #171
      00FF6858H   LINE      CODE     ---       #172
      00FF685BH   LINE      CODE     ---       #177
      00FF685BH   LINE      CODE     ---       #179
      00FF685BH   LINE      CODE     ---       #181
      00FF685BH   LINE      CODE     ---       #183
      00FF685FH   LINE      CODE     ---       #185
      00FF6876H   LINE      CODE     ---       #186
      00FF6878H   LINE      CODE     ---       #187
      00FF6881H   LINE      CODE     ---       #189
      00FF6896H   LINE      CODE     ---       #190
      00FF6898H   LINE      CODE     ---       #195
      00FF6898H   LINE      CODE     ---       #197
L251 LINKER/LOCATER V4.66.93.0                                                        02/28/2025  00:29:39  PAGE 56


      00FF6898H   LINE      CODE     ---       #199
      00FF6898H   LINE      CODE     ---       #201
      00FF689CH   LINE      CODE     ---       #203
      00FF68B3H   LINE      CODE     ---       #204
      00FF68B5H   LINE      CODE     ---       #205
      00FF68BBH   LINE      CODE     ---       #207
      00FF68D0H   LINE      CODE     ---       #208
      00FF68D2H   LINE      CODE     ---       #213
      00FF68D2H   LINE      CODE     ---       #215
      00FF68D2H   LINE      CODE     ---       #217
      00FF68D2H   LINE      CODE     ---       #219
      00FF68D6H   LINE      CODE     ---       #221
      00FF68F6H   LINE      CODE     ---       #222
      00FF68F8H   LINE      CODE     ---       #223
      00FF68FEH   LINE      CODE     ---       #225
      00FF691FH   LINE      CODE     ---       #226
      00FF691FH   LINE      CODE     ---       #231
      00FF691FH   LINE      CODE     ---       #233
      00FF691FH   LINE      CODE     ---       #235
      00FF691FH   LINE      CODE     ---       #239
      00FF691FH   LINE      CODE     ---       #240
      00FF691FH   LINE      CODE     ---       #241
      ---         BLOCKEND  ---      ---       LVL=0

      00FF5EC0H   BLOCK     CODE     ---       LVL=0
      WR4         REGSYM    ---      INT       pin
      WR2         REGSYM    ---      INT       dir
      00FF5EC0H   LINE      CODE     ---       #245
      00FF5EC4H   LINE      CODE     ---       #247
      00FF5EFEH   LINE      CODE     ---       #249
      00FF5EFEH   LINE      CODE     ---       #251
      00FF5F04H   LINE      CODE     ---       #253
      00FF5F1CH   LINE      CODE     ---       #254
      00FF5F1EH   LINE      CODE     ---       #255
      00FF5F1FH   LINE      CODE     ---       #261
      00FF5F25H   LINE      CODE     ---       #263
      00FF5F3AH   LINE      CODE     ---       #264
      00FF5F3EH   LINE      CODE     ---       #265
      00FF5F3FH   LINE      CODE     ---       #266
      00FF5F46H   LINE      CODE     ---       #268
      00FF5F59H   LINE      CODE     ---       #269
      00FF5F5DH   LINE      CODE     ---       #270
      00FF5F5DH   LINE      CODE     ---       #272
      00FF5F5EH   LINE      CODE     ---       #274
      00FF5F5EH   LINE      CODE     ---       #276
      00FF5F64H   LINE      CODE     ---       #278
      00FF5F7CH   LINE      CODE     ---       #279
      00FF5F7EH   LINE      CODE     ---       #280
      00FF5F7FH   LINE      CODE     ---       #286
      00FF5F85H   LINE      CODE     ---       #288
      00FF5F9AH   LINE      CODE     ---       #289
      00FF5F9EH   LINE      CODE     ---       #290
      00FF5F9FH   LINE      CODE     ---       #291
      00FF5FA6H   LINE      CODE     ---       #293
      00FF5FB9H   LINE      CODE     ---       #294
      00FF5FBDH   LINE      CODE     ---       #295
      00FF5FBDH   LINE      CODE     ---       #297
      00FF5FBEH   LINE      CODE     ---       #299
      00FF5FBEH   LINE      CODE     ---       #301
      00FF5FC4H   LINE      CODE     ---       #303
      00FF5FDCH   LINE      CODE     ---       #304
      00FF5FDEH   LINE      CODE     ---       #305
      00FF5FDFH   LINE      CODE     ---       #311
      00FF5FE5H   LINE      CODE     ---       #313
      00FF5FFAH   LINE      CODE     ---       #314
L251 LINKER/LOCATER V4.66.93.0                                                        02/28/2025  00:29:39  PAGE 57


      00FF5FFEH   LINE      CODE     ---       #315
      00FF5FFFH   LINE      CODE     ---       #316
      00FF6006H   LINE      CODE     ---       #318
      00FF6019H   LINE      CODE     ---       #319
      00FF601DH   LINE      CODE     ---       #320
      00FF601DH   LINE      CODE     ---       #322
      00FF601EH   LINE      CODE     ---       #324
      00FF601EH   LINE      CODE     ---       #326
      00FF6024H   LINE      CODE     ---       #328
      00FF603CH   LINE      CODE     ---       #329
      00FF603EH   LINE      CODE     ---       #330
      00FF603FH   LINE      CODE     ---       #336
      00FF6045H   LINE      CODE     ---       #338
      00FF605AH   LINE      CODE     ---       #339
      00FF605EH   LINE      CODE     ---       #340
      00FF605FH   LINE      CODE     ---       #341
      00FF6066H   LINE      CODE     ---       #343
      00FF6079H   LINE      CODE     ---       #344
      00FF607DH   LINE      CODE     ---       #345
      00FF607DH   LINE      CODE     ---       #347
      00FF607EH   LINE      CODE     ---       #349
      00FF607EH   LINE      CODE     ---       #351
      00FF6084H   LINE      CODE     ---       #353
      00FF609CH   LINE      CODE     ---       #354
      00FF609EH   LINE      CODE     ---       #355
      00FF609FH   LINE      CODE     ---       #361
      00FF60A5H   LINE      CODE     ---       #363
      00FF60BAH   LINE      CODE     ---       #364
      00FF60BEH   LINE      CODE     ---       #365
      00FF60BFH   LINE      CODE     ---       #366
      00FF60C3H   LINE      CODE     ---       #368
      00FF60D6H   LINE      CODE     ---       #369
      00FF60DAH   LINE      CODE     ---       #370
      00FF60DAH   LINE      CODE     ---       #372
      00FF60DBH   LINE      CODE     ---       #374
      00FF60DBH   LINE      CODE     ---       #376
      00FF60E1H   LINE      CODE     ---       #378
      00FF60F9H   LINE      CODE     ---       #379
      00FF60FBH   LINE      CODE     ---       #380
      00FF60FCH   LINE      CODE     ---       #386
      00FF6102H   LINE      CODE     ---       #388
      00FF6117H   LINE      CODE     ---       #389
      00FF611BH   LINE      CODE     ---       #390
      00FF611CH   LINE      CODE     ---       #391
      00FF6120H   LINE      CODE     ---       #393
      00FF6133H   LINE      CODE     ---       #394
      00FF6137H   LINE      CODE     ---       #395
      00FF6137H   LINE      CODE     ---       #397
      00FF6137H   LINE      CODE     ---       #399
      00FF6137H   LINE      CODE     ---       #403
      00FF6137H   LINE      CODE     ---       #404
      00FF6137H   LINE      CODE     ---       #405
      ---         BLOCKEND  ---      ---       LVL=0

      00FF77D3H   BLOCK     CODE     ---       LVL=0
      WR4         REGSYM    ---      INT       pin
      00FF77D5H   BLOCK     CODE     NEAR LAB  LVL=1
      R10         REGSYM    ---      BYTE      status
      ---         BLOCKEND  ---      ---       LVL=1
      00FF77D3H   LINE      CODE     ---       #413
      00FF77D5H   LINE      CODE     ---       #414
      00FF77D5H   LINE      CODE     ---       #415
      00FF77D7H   LINE      CODE     ---       #417
      00FF7805H   LINE      CODE     ---       #419
      00FF7805H   LINE      CODE     ---       #421
L251 LINKER/LOCATER V4.66.93.0                                                        02/28/2025  00:29:39  PAGE 58


      00FF781BH   LINE      CODE     ---       #423
      00FF781DH   LINE      CODE     ---       #425
      00FF781DH   LINE      CODE     ---       #427
      00FF7833H   LINE      CODE     ---       #429
      00FF7835H   LINE      CODE     ---       #431
      00FF7835H   LINE      CODE     ---       #433
      00FF784BH   LINE      CODE     ---       #435
      00FF784DH   LINE      CODE     ---       #437
      00FF784DH   LINE      CODE     ---       #439
      00FF7863H   LINE      CODE     ---       #441
      00FF7865H   LINE      CODE     ---       #443
      00FF7865H   LINE      CODE     ---       #445
      00FF787BH   LINE      CODE     ---       #447
      00FF787DH   LINE      CODE     ---       #449
      00FF787DH   LINE      CODE     ---       #451
      00FF7893H   LINE      CODE     ---       #453
      00FF7893H   LINE      CODE     ---       #455
      00FF7893H   LINE      CODE     ---       #459
      00FF7893H   LINE      CODE     ---       #460
      00FF7893H   LINE      CODE     ---       #462
      00FF789BH   LINE      CODE     ---       #463
      ---         BLOCKEND  ---      ---       LVL=0

      00FF70CAH   BLOCK     CODE     ---       LVL=0
      WR4         REGSYM    ---      INT       pin
      R3          REGSYM    ---      BYTE      dat
      00FF70CAH   LINE      CODE     ---       #472
      00FF70CEH   LINE      CODE     ---       #474
      00FF7105H   LINE      CODE     ---       #476
      00FF7105H   LINE      CODE     ---       #478
      00FF7109H   LINE      CODE     ---       #480
      00FF711CH   LINE      CODE     ---       #481
      00FF711DH   LINE      CODE     ---       #484
      00FF7132H   LINE      CODE     ---       #485
      00FF7132H   LINE      CODE     ---       #487
      00FF7133H   LINE      CODE     ---       #489
      00FF7133H   LINE      CODE     ---       #491
      00FF7137H   LINE      CODE     ---       #493
      00FF714AH   LINE      CODE     ---       #494
      00FF714BH   LINE      CODE     ---       #497
      00FF7160H   LINE      CODE     ---       #498
      00FF7160H   LINE      CODE     ---       #500
      00FF7161H   LINE      CODE     ---       #502
      00FF7161H   LINE      CODE     ---       #504
      00FF7165H   LINE      CODE     ---       #506
      00FF7178H   LINE      CODE     ---       #507
      00FF7179H   LINE      CODE     ---       #510
      00FF718EH   LINE      CODE     ---       #511
      00FF718EH   LINE      CODE     ---       #513
      00FF718FH   LINE      CODE     ---       #515
      00FF718FH   LINE      CODE     ---       #517
      00FF7193H   LINE      CODE     ---       #519
      00FF71A6H   LINE      CODE     ---       #520
      00FF71A7H   LINE      CODE     ---       #523
      00FF71BCH   LINE      CODE     ---       #524
      00FF71BCH   LINE      CODE     ---       #526
      00FF71BDH   LINE      CODE     ---       #528
      00FF71BDH   LINE      CODE     ---       #530
      00FF71C1H   LINE      CODE     ---       #532
      00FF71D4H   LINE      CODE     ---       #533
      00FF71D5H   LINE      CODE     ---       #536
      00FF71EAH   LINE      CODE     ---       #537
      00FF71EAH   LINE      CODE     ---       #539
      00FF71EBH   LINE      CODE     ---       #541
      00FF71EBH   LINE      CODE     ---       #543
L251 LINKER/LOCATER V4.66.93.0                                                        02/28/2025  00:29:39  PAGE 59


      00FF71EFH   LINE      CODE     ---       #545
      00FF7202H   LINE      CODE     ---       #546
      00FF7203H   LINE      CODE     ---       #549
      00FF7218H   LINE      CODE     ---       #550
      00FF7218H   LINE      CODE     ---       #552
      00FF7218H   LINE      CODE     ---       #554
      00FF7218H   LINE      CODE     ---       #558
      00FF7218H   LINE      CODE     ---       #559
      00FF7218H   LINE      CODE     ---       #560
      ---         BLOCKEND  ---      ---       LVL=0
      WR14        REGSYM    ---      INT       pin

      00FF7A28H   BLOCK     CODE     ---       LVL=0
      WR4         REGSYM    ---      INT       pin
      00FF7A28H   LINE      CODE     ---       #587
      00FF7A2AH   LINE      CODE     ---       #589
      00FF7A58H   LINE      CODE     ---       #591
      00FF7A58H   LINE      CODE     ---       #593
      00FF7A6BH   LINE      CODE     ---       #594
      00FF7A6FH   LINE      CODE     ---       #596
      00FF7A70H   LINE      CODE     ---       #598
      00FF7A70H   LINE      CODE     ---       #600
      00FF7A83H   LINE      CODE     ---       #601
      00FF7A87H   LINE      CODE     ---       #603
      00FF7A88H   LINE      CODE     ---       #605
      00FF7A88H   LINE      CODE     ---       #607
      00FF7A9BH   LINE      CODE     ---       #608
      00FF7A9FH   LINE      CODE     ---       #610
      00FF7AA0H   LINE      CODE     ---       #612
      00FF7AA0H   LINE      CODE     ---       #614
      00FF7AB3H   LINE      CODE     ---       #615
      00FF7AB7H   LINE      CODE     ---       #617
      00FF7AB8H   LINE      CODE     ---       #619
      00FF7AB8H   LINE      CODE     ---       #621
      00FF7ACBH   LINE      CODE     ---       #622
      00FF7ACFH   LINE      CODE     ---       #624
      00FF7AD0H   LINE      CODE     ---       #626
      00FF7AD0H   LINE      CODE     ---       #628
      00FF7AE3H   LINE      CODE     ---       #629
      00FF7AE7H   LINE      CODE     ---       #631
      00FF7AE7H   LINE      CODE     ---       #633
      00FF7AE7H   LINE      CODE     ---       #637
      00FF7AE7H   LINE      CODE     ---       #638
      00FF7AE7H   LINE      CODE     ---       #639
      ---         BLOCKEND  ---      ---       LVL=0

      00FF8869H   BLOCK     CODE     ---       LVL=0
      WR14        REGSYM    ---      INT       pin
      WR4         REGSYM    ---      INT       dir
      00010B56H   SYMBOL    XDATA    BYTE      dat
      WR12        REGSYM    ---      INT       mode
      00FF8869H   LINE      CODE     ---       #650
      00FF8873H   LINE      CODE     ---       #654
      00FF8879H   LINE      CODE     ---       #656
      00FF887FH   LINE      CODE     ---       #657
      00FF887FH   LINE      CODE     ---       #658
      00FF8881H   LINE      CODE     ---       #659
      00FF8885H   LINE      CODE     ---       #661
      00FF8889H   LINE      CODE     ---       #663
      00FF888EH   LINE      CODE     ---       #664
      00FF8890H   LINE      CODE     ---       #667
      00FF8897H   LINE      CODE     ---       #668
      00FF889BH   LINE      CODE     ---       #669
      00FF889BH   LINE      CODE     ---       #670
      00FF889DH   LINE      CODE     ---       #671
L251 LINKER/LOCATER V4.66.93.0                                                        02/28/2025  00:29:39  PAGE 60


      00FF88A3H   LINE      CODE     ---       #673
      00FF88A9H   LINE      CODE     ---       #675
      00FF88B2H   LINE      CODE     ---       #676
      00FF88B8H   LINE      CODE     ---       #677
      00FF88BAH   LINE      CODE     ---       #678
      00FF88C0H   LINE      CODE     ---       #680
      00FF88C9H   LINE      CODE     ---       #681
      00FF88C9H   LINE      CODE     ---       #683
      00FF88D2H   LINE      CODE     ---       #684
      ---         BLOCKEND  ---      ---       LVL=0

      ---         MODULE    ---      ---       zf_driver_pit
      00FF6920H   PUBLIC    CODE     ---       pit_init
      000000D0H   SFRSYM    DATA     BYTE      PSW
      0000009DH   SFRSYM    DATA     BYTE      IRCBAND
      00000097H   SFRSYM    DATA     BYTE      AUXR2
      000000EFH   SFRSYM    DATA     BYTE      AUXINTIF
      000000FDH   SFRSYM    DATA     BYTE      S4CON
      000000ACH   SFRSYM    DATA     BYTE      S3CON
      0000009AH   SFRSYM    DATA     BYTE      S2CON
      000000B7H   SFRSYM    DATA     BYTE      IPH
      000000CDH   SFRSYM    DATA     BYTE      SPSTAT
      000000DDH   SFRSYM    DATA     BYTE      T4T3M
      000000C1H   SFRSYM    DATA     BYTE      WDT_CONTR
      00000088H.6 SFRSYM    DATA     BIT       TR1
      00000088H.4 SFRSYM    DATA     BIT       TR0
      000000D3H   SFRSYM    DATA     BYTE      T4L
      000000D5H   SFRSYM    DATA     BYTE      T3L
      000000D7H   SFRSYM    DATA     BYTE      T2L
      0000008BH   SFRSYM    DATA     BYTE      TL1
      0000008AH   SFRSYM    DATA     BYTE      TL0
      000000D2H   SFRSYM    DATA     BYTE      T4H
      000000D4H   SFRSYM    DATA     BYTE      T3H
      000000D6H   SFRSYM    DATA     BYTE      T2H
      0000008DH   SFRSYM    DATA     BYTE      TH1
      0000008CH   SFRSYM    DATA     BYTE      TH0
      000000DFH   SFRSYM    DATA     BYTE      IP3
      000000F4H   SFRSYM    DATA     BYTE      USBCON
      000000B5H   SFRSYM    DATA     BYTE      IP2
      000000FFH   SFRSYM    DATA     BYTE      RSTCFG
      000000A8H.3 SFRSYM    DATA     BIT       ET1
      000000A8H.1 SFRSYM    DATA     BIT       ET0
      000000C7H   SFRSYM    DATA     BYTE      IAP_CONTR
      0000008EH   SFRSYM    DATA     BYTE      AUXR
      000000AFH   SFRSYM    DATA     BYTE      IE2
      00000088H   SFRSYM    DATA     BYTE      TCON
      00000089H   SFRSYM    DATA     BYTE      TMOD
      00000098H   SFRSYM    DATA     BYTE      SCON
      00000087H   SFRSYM    DATA     BYTE      PCON
      000000BCH   SFRSYM    DATA     BYTE      ADC_CONTR
      000000D1H   SFRSYM    DATA     BYTE      PSW1
      000000E7H   SFRSYM    DATA     BYTE      CMPCR2
      000000E6H   SFRSYM    DATA     BYTE      CMPCR1
      000000DEH   SFRSYM    DATA     BYTE      ADCCFG
      000000B8H   SFRSYM    DATA     BYTE      IP
      0000008FH   SFRSYM    DATA     BYTE      INTCLKO
      000000EEH   SFRSYM    DATA     BYTE      IP3H
      000000B6H   SFRSYM    DATA     BYTE      IP2H
      000000BFH   SFRSYM    DATA     BYTE      P_SW4
      000000A8H   SFRSYM    DATA     BYTE      IE
      000000BBH   SFRSYM    DATA     BYTE      P_SW3
      000000BAH   SFRSYM    DATA     BYTE      P_SW2
      000000A2H   SFRSYM    DATA     BYTE      P_SW1
      000000CEH   SFRSYM    DATA     BYTE      SPCTL
      000000F8H   SFRSYM    DATA     BYTE      P7
L251 LINKER/LOCATER V4.66.93.0                                                        02/28/2025  00:29:39  PAGE 61


      000000E8H   SFRSYM    DATA     BYTE      P6
      000000C8H   SFRSYM    DATA     BYTE      P5
      000000C0H   SFRSYM    DATA     BYTE      P4
      000000ABH   SFRSYM    DATA     BYTE      WKTCH
      000000B0H   SFRSYM    DATA     BYTE      P3
      000000A0H   SFRSYM    DATA     BYTE      P2
      00000090H   SFRSYM    DATA     BYTE      P1
      00000080H   SFRSYM    DATA     BYTE      P0

      00FF6920H   BLOCK     CODE     ---       LVL=0
      WR30        REGSYM    ---      INT       pit_n
      DR24        REGSYM    ---      DWORD     period
      00FF6926H   BLOCK     CODE     NEAR LAB  LVL=1
      R15         REGSYM    ---      BYTE      freq_div
      WR28        REGSYM    ---      WORD      period_temp
      WR28        REGSYM    ---      WORD      temp
      ---         BLOCKEND  ---      ---       LVL=1
      00FF6920H   LINE      CODE     ---       #50
      00FF6926H   LINE      CODE     ---       #51
      00FF6926H   LINE      CODE     ---       #52
      00FF6926H   LINE      CODE     ---       #53
      00FF6926H   LINE      CODE     ---       #54
      00FF6926H   LINE      CODE     ---       #57
      00FF6932H   LINE      CODE     ---       #60
      00FF693DH   LINE      CODE     ---       #62
      00FF6941H   LINE      CODE     ---       #64
      00FF6944H   LINE      CODE     ---       #65
      00FF6947H   LINE      CODE     ---       #66
      00FF694DH   LINE      CODE     ---       #68
      00FF6950H   LINE      CODE     ---       #69
      00FF6953H   LINE      CODE     ---       #70
      00FF6959H   LINE      CODE     ---       #72
      00FF695CH   LINE      CODE     ---       #73
      00FF695EH   LINE      CODE     ---       #74
      00FF6964H   LINE      CODE     ---       #76
      00FF6967H   LINE      CODE     ---       #77
      00FF6969H   LINE      CODE     ---       #78
      00FF696FH   LINE      CODE     ---       #80
      00FF6972H   LINE      CODE     ---       #81
      00FF6974H   LINE      CODE     ---       #82
      00FF697AH   LINE      CODE     ---       #84
      00FF6987H   LINE      CODE     ---       #85
      00FF6989H   LINE      CODE     ---       #91
      00FF698DH   LINE      CODE     ---       #93
      00FF6990H   LINE      CODE     ---       #94
      00FF6992H   LINE      CODE     ---       #95
      00FF6998H   LINE      CODE     ---       #97
      00FF699BH   LINE      CODE     ---       #98
      00FF699DH   LINE      CODE     ---       #99
      00FF69A3H   LINE      CODE     ---       #101
      00FF69A6H   LINE      CODE     ---       #102
      00FF69A8H   LINE      CODE     ---       #103
      00FF69AEH   LINE      CODE     ---       #105
      00FF69B1H   LINE      CODE     ---       #106
      00FF69B3H   LINE      CODE     ---       #107
      00FF69B9H   LINE      CODE     ---       #109
      00FF69BCH   LINE      CODE     ---       #110
      00FF69BEH   LINE      CODE     ---       #111
      00FF69C4H   LINE      CODE     ---       #113
      00FF69D4H   LINE      CODE     ---       #114
      00FF69D4H   LINE      CODE     ---       #118
      00FF69E4H   LINE      CODE     ---       #119
      00FF69F1H   LINE      CODE     ---       #121
      00FF69F7H   LINE      CODE     ---       #123
      00FF69FBH   LINE      CODE     ---       #125
L251 LINKER/LOCATER V4.66.93.0                                                        02/28/2025  00:29:39  PAGE 62


      00FF6A06H   LINE      CODE     ---       #126
      00FF6A0AH   LINE      CODE     ---       #127
      00FF6A10H   LINE      CODE     ---       #128
      00FF6A14H   LINE      CODE     ---       #129
      00FF6A16H   LINE      CODE     ---       #130
      00FF6A18H   LINE      CODE     ---       #131
      00FF6A1BH   LINE      CODE     ---       #132
      00FF6A21H   LINE      CODE     ---       #134
      00FF6A2CH   LINE      CODE     ---       #135
      00FF6A30H   LINE      CODE     ---       #136
      00FF6A36H   LINE      CODE     ---       #137
      00FF6A3AH   LINE      CODE     ---       #138
      00FF6A3CH   LINE      CODE     ---       #139
      00FF6A3EH   LINE      CODE     ---       #140
      00FF6A41H   LINE      CODE     ---       #141
      00FF6A47H   LINE      CODE     ---       #143
      00FF6A52H   LINE      CODE     ---       #144
      00FF6A58H   LINE      CODE     ---       #145
      00FF6A5CH   LINE      CODE     ---       #146
      00FF6A5FH   LINE      CODE     ---       #147
      00FF6A62H   LINE      CODE     ---       #148
      00FF6A64H   LINE      CODE     ---       #149
      00FF6A6AH   LINE      CODE     ---       #151
      00FF6A75H   LINE      CODE     ---       #152
      00FF6A7BH   LINE      CODE     ---       #153
      00FF6A7FH   LINE      CODE     ---       #154
      00FF6A82H   LINE      CODE     ---       #155
      00FF6A85H   LINE      CODE     ---       #156
      00FF6A87H   LINE      CODE     ---       #157
      00FF6A8DH   LINE      CODE     ---       #159
      00FF6A98H   LINE      CODE     ---       #160
      00FF6A9EH   LINE      CODE     ---       #161
      00FF6AA2H   LINE      CODE     ---       #162
      00FF6AA5H   LINE      CODE     ---       #163
      00FF6AA8H   LINE      CODE     ---       #164
      00FF6AAAH   LINE      CODE     ---       #165
      00FF6AB0H   LINE      CODE     ---       #167
      00FF6ABBH   LINE      CODE     ---       #168
      00FF6AC6H   LINE      CODE     ---       #169
      00FF6AD1H   LINE      CODE     ---       #170
      00FF6ADAH   LINE      CODE     ---       #172
      ---         BLOCKEND  ---      ---       LVL=0

      ---         MODULE    ---      ---       zf_driver_pwm
      00FF4E99H   PUBLIC    CODE     ---       pwm_init
      00FFA54CH   PUBLIC    HCONST   ---       PWM_PSCR_ADDR
      00FFA554H   PUBLIC    HCONST   ---       PWM_CCR_ADDR
      00FFA574H   PUBLIC    HCONST   ---       PWM_ARR_ADDR
      00FFA57CH   PUBLIC    HCONST   ---       PWM_CCER_ADDR
      00FFA58CH   PUBLIC    HCONST   ---       PWM_CCMR_ADDR
      00010AB9H   PUBLIC    XDATA    BYTE      ?pwm_init?BYTE
      000000D0H   SFRSYM    DATA     BYTE      PSW
      0000009DH   SFRSYM    DATA     BYTE      IRCBAND
      00000097H   SFRSYM    DATA     BYTE      AUXR2
      000000EFH   SFRSYM    DATA     BYTE      AUXINTIF
      000000FDH   SFRSYM    DATA     BYTE      S4CON
      000000ACH   SFRSYM    DATA     BYTE      S3CON
      0000009AH   SFRSYM    DATA     BYTE      S2CON
      000000B7H   SFRSYM    DATA     BYTE      IPH
      000000CDH   SFRSYM    DATA     BYTE      SPSTAT
      000000DDH   SFRSYM    DATA     BYTE      T4T3M
      000000C1H   SFRSYM    DATA     BYTE      WDT_CONTR
      000000DFH   SFRSYM    DATA     BYTE      IP3
      000000F4H   SFRSYM    DATA     BYTE      USBCON
      000000B5H   SFRSYM    DATA     BYTE      IP2
L251 LINKER/LOCATER V4.66.93.0                                                        02/28/2025  00:29:39  PAGE 63


      000000FFH   SFRSYM    DATA     BYTE      RSTCFG
      000000C7H   SFRSYM    DATA     BYTE      IAP_CONTR
      0000008EH   SFRSYM    DATA     BYTE      AUXR
      000000AFH   SFRSYM    DATA     BYTE      IE2
      00000088H   SFRSYM    DATA     BYTE      TCON
      00000089H   SFRSYM    DATA     BYTE      TMOD
      00000098H   SFRSYM    DATA     BYTE      SCON
      00000087H   SFRSYM    DATA     BYTE      PCON
      000000BCH   SFRSYM    DATA     BYTE      ADC_CONTR
      000000D1H   SFRSYM    DATA     BYTE      PSW1
      000000E7H   SFRSYM    DATA     BYTE      CMPCR2
      000000E6H   SFRSYM    DATA     BYTE      CMPCR1
      000000DEH   SFRSYM    DATA     BYTE      ADCCFG
      000000B8H   SFRSYM    DATA     BYTE      IP
      0000008FH   SFRSYM    DATA     BYTE      INTCLKO
      000000EEH   SFRSYM    DATA     BYTE      IP3H
      000000B6H   SFRSYM    DATA     BYTE      IP2H
      000000BFH   SFRSYM    DATA     BYTE      P_SW4
      000000A8H   SFRSYM    DATA     BYTE      IE
      000000BBH   SFRSYM    DATA     BYTE      P_SW3
      000000BAH   SFRSYM    DATA     BYTE      P_SW2
      000000A2H   SFRSYM    DATA     BYTE      P_SW1
      000000CEH   SFRSYM    DATA     BYTE      SPCTL
      000000F8H   SFRSYM    DATA     BYTE      P7
      000000E8H   SFRSYM    DATA     BYTE      P6
      000000C8H   SFRSYM    DATA     BYTE      P5
      000000C0H   SFRSYM    DATA     BYTE      P4
      000000ABH   SFRSYM    DATA     BYTE      WKTCH
      000000B0H   SFRSYM    DATA     BYTE      P3
      000000A0H   SFRSYM    DATA     BYTE      P2
      00000090H   SFRSYM    DATA     BYTE      P1
      00000080H   SFRSYM    DATA     BYTE      P0
      WR30        REGSYM    ---      INT       pin
      DR0         REGSYM    ---      DWORD     freq
      DR20        REGSYM    ---      DWORD     match_temp
      DR16        REGSYM    ---      DWORD     period_temp
      WR28        REGSYM    ---      WORD      freq_div
      WR30        REGSYM    ---      INT       pin
      DR24        REGSYM    ---      DWORD     duty
      DR20        REGSYM    ---      DWORD     match_temp
      DR16        REGSYM    ---      DWORD     arr

      00FF4E99H   BLOCK     CODE     ---       LVL=0
      WR14        REGSYM    ---      INT       pin
      00010ABBH   SYMBOL    XDATA    DWORD     freq
      00010ABFH   SYMBOL    XDATA    DWORD     duty
      00FF4EA7H   BLOCK     CODE     NEAR LAB  LVL=1
      00010AC3H   SYMBOL    XDATA    WORD      match_temp
      00010AC5H   SYMBOL    XDATA    DWORD     period_temp
      WR12        REGSYM    ---      WORD      freq_div
      ---         BLOCKEND  ---      ---       LVL=1
      00FF4E99H   LINE      CODE     ---       #164
      00FF4EA7H   LINE      CODE     ---       #165
      00FF4EA7H   LINE      CODE     ---       #167
      00FF4EAFH   LINE      CODE     ---       #168
      00FF4EBBH   LINE      CODE     ---       #169
      00FF4EBBH   LINE      CODE     ---       #174
      00FF4ECCH   LINE      CODE     ---       #178
      00FF4EE9H   LINE      CODE     ---       #179
      00FF4EF3H   LINE      CODE     ---       #180
      00FF4F04H   LINE      CODE     ---       #182
      00FF4F14H   LINE      CODE     ---       #184
      00FF4F39H   LINE      CODE     ---       #185
      00FF4F3BH   LINE      CODE     ---       #188
      00FF4F4AH   LINE      CODE     ---       #189
L251 LINKER/LOCATER V4.66.93.0                                                        02/28/2025  00:29:39  PAGE 64


      00FF4F4AH   LINE      CODE     ---       #191
      00FF4F6EH   LINE      CODE     ---       #192
      00FF4F7AH   LINE      CODE     ---       #194
      00FF4FA5H   LINE      CODE     ---       #195
      00FF4FB1H   LINE      CODE     ---       #197
      00FF4FF5H   LINE      CODE     ---       #198
      00FF5001H   LINE      CODE     ---       #200
      00FF500EH   LINE      CODE     ---       #202
      00FF504DH   LINE      CODE     ---       #203
      00FF507EH   LINE      CODE     ---       #204
      00FF50E4H   LINE      CODE     ---       #206
      00FF50F1H   LINE      CODE     ---       #207
      00FF50F7H   LINE      CODE     ---       #208
      00FF50FAH   LINE      CODE     ---       #209
      00FF510BH   LINE      CODE     ---       #211
      00FF5148H   LINE      CODE     ---       #212
      00FF5179H   LINE      CODE     ---       #213
      00FF51D7H   LINE      CODE     ---       #215
      00FF51E4H   LINE      CODE     ---       #216
      00FF51F1H   LINE      CODE     ---       #217
      00FF51F1H   LINE      CODE     ---       #219
      00FF5234H   LINE      CODE     ---       #220
      00FF5243H   LINE      CODE     ---       #221
      ---         BLOCKEND  ---      ---       LVL=0

      ---         MODULE    ---      ---       zf_driver_soft_iic
      00FF8A5AH   PUBLIC    CODE     ---       soft_iic_wait_ack
      00FF8F34H   PUBLIC    CODE     ---       soft_iic_stop
      00FF9597H   PUBLIC    CODE     ---       soft_iic_write_8bit_register
      00FF8B6AH   PUBLIC    CODE     ---       soft_iic_write_8bit_array
      00FF9528H   PUBLIC    CODE     ---       soft_iic_delay
      00FF7EEDH   PUBLIC    CODE     ---       soft_iic_read_data
      00FF8786H   PUBLIC    CODE     ---       soft_iic_send_data
      00FF934DH   PUBLIC    CODE     ---       soft_iic_start
      00FF826CH   PUBLIC    CODE     ---       soft_iic_read_8bit_registers
      00FF8C18H   PUBLIC    CODE     ---       soft_iic_send_ack
      00010E41H   PUBLIC    XDATA    BYTE      ?soft_iic_write_8bit_array?BYTE
      00010E27H   PUBLIC    XDATA    BYTE      ?soft_iic_read_8bit_registers?BYTE
      000000D0H   SFRSYM    DATA     BYTE      PSW
      0000009DH   SFRSYM    DATA     BYTE      IRCBAND
      00000097H   SFRSYM    DATA     BYTE      AUXR2
      000000EFH   SFRSYM    DATA     BYTE      AUXINTIF
      000000FDH   SFRSYM    DATA     BYTE      S4CON
      000000ACH   SFRSYM    DATA     BYTE      S3CON
      0000009AH   SFRSYM    DATA     BYTE      S2CON
      000000B7H   SFRSYM    DATA     BYTE      IPH
      000000CDH   SFRSYM    DATA     BYTE      SPSTAT
      000000DDH   SFRSYM    DATA     BYTE      T4T3M
      000000C1H   SFRSYM    DATA     BYTE      WDT_CONTR
      000000DFH   SFRSYM    DATA     BYTE      IP3
      000000F4H   SFRSYM    DATA     BYTE      USBCON
      000000B5H   SFRSYM    DATA     BYTE      IP2
      000000FFH   SFRSYM    DATA     BYTE      RSTCFG
      000000C7H   SFRSYM    DATA     BYTE      IAP_CONTR
      0000008EH   SFRSYM    DATA     BYTE      AUXR
      000000AFH   SFRSYM    DATA     BYTE      IE2
      00000088H   SFRSYM    DATA     BYTE      TCON
      00000089H   SFRSYM    DATA     BYTE      TMOD
      00000098H   SFRSYM    DATA     BYTE      SCON
      00000087H   SFRSYM    DATA     BYTE      PCON
      000000BCH   SFRSYM    DATA     BYTE      ADC_CONTR
      000000D1H   SFRSYM    DATA     BYTE      PSW1
      000000E7H   SFRSYM    DATA     BYTE      CMPCR2
      000000E6H   SFRSYM    DATA     BYTE      CMPCR1
      000000DEH   SFRSYM    DATA     BYTE      ADCCFG
L251 LINKER/LOCATER V4.66.93.0                                                        02/28/2025  00:29:39  PAGE 65


      000000B8H   SFRSYM    DATA     BYTE      IP
      0000008FH   SFRSYM    DATA     BYTE      INTCLKO
      000000EEH   SFRSYM    DATA     BYTE      IP3H
      000000B6H   SFRSYM    DATA     BYTE      IP2H
      000000BFH   SFRSYM    DATA     BYTE      P_SW4
      000000A8H   SFRSYM    DATA     BYTE      IE
      000000BBH   SFRSYM    DATA     BYTE      P_SW3
      000000BAH   SFRSYM    DATA     BYTE      P_SW2
      000000A2H   SFRSYM    DATA     BYTE      P_SW1
      000000CEH   SFRSYM    DATA     BYTE      SPCTL
      000000F8H   SFRSYM    DATA     BYTE      P7
      000000E8H   SFRSYM    DATA     BYTE      P6
      000000C8H   SFRSYM    DATA     BYTE      P5
      000000C0H   SFRSYM    DATA     BYTE      P4
      000000ABH   SFRSYM    DATA     BYTE      WKTCH
      000000B0H   SFRSYM    DATA     BYTE      P3
      000000A0H   SFRSYM    DATA     BYTE      P2
      00000090H   SFRSYM    DATA     BYTE      P1
      00000080H   SFRSYM    DATA     BYTE      P0

      00FF9528H   BLOCK     CODE     ---       LVL=0
      00010E3DH   SYMBOL    XDATA    DWORD     delay
      00FF9532H   BLOCK     CODE     NEAR LAB  LVL=1
      00010E41H   SYMBOL    XDATA    DWORD     count
      ---         BLOCKEND  ---      ---       LVL=1
      00FF9528H   LINE      CODE     ---       #53
      00FF9532H   LINE      CODE     ---       #54
      00FF9532H   LINE      CODE     ---       #55
      00FF9546H   LINE      CODE     ---       #56
      00FF955FH   LINE      CODE     ---       #57
      ---         BLOCKEND  ---      ---       LVL=0

      00FF934DH   BLOCK     CODE     ---       LVL=0
      REG=3       REGSYM    ---      ---       soft_iic_obj
      00FF934DH   LINE      CODE     ---       #67
      00FF9351H   LINE      CODE     ---       #70
      00FF9359H   LINE      CODE     ---       #71
      00FF9362H   LINE      CODE     ---       #73
      00FF936DH   LINE      CODE     ---       #74
      00FF9375H   LINE      CODE     ---       #75
      00FF9380H   LINE      CODE     ---       #76
      00FF9387H   LINE      CODE     ---       #77
      ---         BLOCKEND  ---      ---       LVL=0

      00FF8F34H   BLOCK     CODE     ---       LVL=0
      REG=3       REGSYM    ---      ---       soft_iic_obj
      00FF8F34H   LINE      CODE     ---       #86
      00FF8F38H   LINE      CODE     ---       #89
      00FF8F40H   LINE      CODE     ---       #90
      00FF8F47H   LINE      CODE     ---       #92
      00FF8F52H   LINE      CODE     ---       #93
      00FF8F5AH   LINE      CODE     ---       #94
      00FF8F65H   LINE      CODE     ---       #95
      00FF8F6EH   LINE      CODE     ---       #96
      00FF8F79H   LINE      CODE     ---       #97
      ---         BLOCKEND  ---      ---       LVL=0

      00FF8C18H   BLOCK     CODE     ---       LVL=0
      REG=3       REGSYM    ---      ---       soft_iic_obj
      00010E91H   SYMBOL    XDATA    BYTE      ack
      00FF8C18H   LINE      CODE     ---       #107
      00FF8C20H   LINE      CODE     ---       #110
      00FF8C27H   LINE      CODE     ---       #112
      00FF8C2DH   LINE      CODE     ---       #114
      00FF8C33H   LINE      CODE     ---       #115
L251 LINKER/LOCATER V4.66.93.0                                                        02/28/2025  00:29:39  PAGE 66


      00FF8C35H   LINE      CODE     ---       #118
      00FF8C3DH   LINE      CODE     ---       #119
      00FF8C3DH   LINE      CODE     ---       #121
      00FF8C48H   LINE      CODE     ---       #122
      00FF8C50H   LINE      CODE     ---       #123
      00FF8C5BH   LINE      CODE     ---       #124
      00FF8C62H   LINE      CODE     ---       #125
      00FF8C6BH   LINE      CODE     ---       #126
      ---         BLOCKEND  ---      ---       LVL=0

      00FF8A5AH   BLOCK     CODE     ---       LVL=0
      REG=3       REGSYM    ---      ---       soft_iic_obj
      00FF8A5EH   BLOCK     CODE     NEAR LAB  LVL=1
      00010E92H   SYMBOL    XDATA    BYTE      temp
      ---         BLOCKEND  ---      ---       LVL=1
      00FF8A5AH   LINE      CODE     ---       #135
      00FF8A5EH   LINE      CODE     ---       #136
      00FF8A5EH   LINE      CODE     ---       #137
      00FF8A63H   LINE      CODE     ---       #140
      00FF8A69H   LINE      CODE     ---       #141
      00FF8A72H   LINE      CODE     ---       #145
      00FF8A7DH   LINE      CODE     ---       #147
      00FF8A85H   LINE      CODE     ---       #148
      00FF8A90H   LINE      CODE     ---       #150
      00FF8A99H   LINE      CODE     ---       #152
      00FF8A9FH   LINE      CODE     ---       #153
      00FF8A9FH   LINE      CODE     ---       #154
      00FF8AA6H   LINE      CODE     ---       #158
      00FF8AB1H   LINE      CODE     ---       #160
      00FF8AB5H   LINE      CODE     ---       #161
      ---         BLOCKEND  ---      ---       LVL=0

      00FF8786H   BLOCK     CODE     ---       LVL=0
      REG=3       REGSYM    ---      ---       soft_iic_obj
      00010E8CH   SYMBOL    XDATA    BYTE      dat
      00FF878EH   BLOCK     CODE     NEAR LAB  LVL=1
      00010E8DH   SYMBOL    XDATA    BYTE      temp
      ---         BLOCKEND  ---      ---       LVL=1
      00FF8786H   LINE      CODE     ---       #170
      00FF878EH   LINE      CODE     ---       #171
      00FF878EH   LINE      CODE     ---       #172
      00FF8794H   LINE      CODE     ---       #176
      00FF8794H   LINE      CODE     ---       #179
      00FF87B6H   LINE      CODE     ---       #180
      00FF87BDH   LINE      CODE     ---       #182
      00FF87C8H   LINE      CODE     ---       #183
      00FF87D0H   LINE      CODE     ---       #184
      00FF87DBH   LINE      CODE     ---       #185
      00FF87E2H   LINE      CODE     ---       #186
      00FF87E8H   LINE      CODE     ---       #187
      00FF87F5H   LINE      CODE     ---       #188
      ---         BLOCKEND  ---      ---       LVL=0

      00FF7EEDH   BLOCK     CODE     ---       LVL=0
      REG=3       REGSYM    ---      ---       soft_iic_obj
      00010E83H   SYMBOL    XDATA    BYTE      ack
      00FF7EF5H   BLOCK     CODE     NEAR LAB  LVL=1
      00010E84H   SYMBOL    XDATA    BYTE      dat
      00010E85H   SYMBOL    XDATA    BYTE      temp
      ---         BLOCKEND  ---      ---       LVL=1
      00FF7EEDH   LINE      CODE     ---       #197
      00FF7EF5H   LINE      CODE     ---       #198
      00FF7EF5H   LINE      CODE     ---       #199
      00FF7EFAH   LINE      CODE     ---       #200
      00FF7F00H   LINE      CODE     ---       #202
L251 LINKER/LOCATER V4.66.93.0                                                        02/28/2025  00:29:39  PAGE 67


      00FF7F07H   LINE      CODE     ---       #203
      00FF7F12H   LINE      CODE     ---       #204
      00FF7F1BH   LINE      CODE     ---       #209
      00FF7F1DH   LINE      CODE     ---       #211
      00FF7F24H   LINE      CODE     ---       #212
      00FF7F2FH   LINE      CODE     ---       #213
      00FF7F37H   LINE      CODE     ---       #214
      00FF7F42H   LINE      CODE     ---       #215
      00FF7F57H   LINE      CODE     ---       #216
      00FF7F65H   LINE      CODE     ---       #217
      00FF7F6CH   LINE      CODE     ---       #221
      00FF7F77H   LINE      CODE     ---       #222
      00FF7F80H   LINE      CODE     ---       #223
      00FF7F84H   LINE      CODE     ---       #224
      ---         BLOCKEND  ---      ---       LVL=0
      REG=3       REGSYM    ---      ---       soft_iic_obj

      00FF8B6AH   BLOCK     CODE     ---       LVL=0
      REG=3       REGSYM    ---      ---       soft_iic_obj
      00010E45H   SYMBOL    XDATA    ---       dat
      00010E49H   SYMBOL    XDATA    DWORD     len
      00FF8B6AH   LINE      CODE     ---       #252
      00FF8B78H   LINE      CODE     ---       #256
      00FF8B7BH   LINE      CODE     ---       #257
      00FF8B83H   LINE      CODE     ---       #258
      00FF8B85H   LINE      CODE     ---       #260
      00FF8BA0H   LINE      CODE     ---       #261
      00FF8BB9H   LINE      CODE     ---       #262
      00FF8BBEH   LINE      CODE     ---       #263
      ---         BLOCKEND  ---      ---       LVL=0
      REG=3       REGSYM    ---      ---       soft_iic_obj
      REG=3       REGSYM    ---      ---       soft_iic_obj

      00FF9597H   BLOCK     CODE     ---       LVL=0
      REG=3       REGSYM    ---      ---       soft_iic_obj
      00010E8EH   SYMBOL    XDATA    BYTE      register_name
      00010E8FH   SYMBOL    XDATA    BYTE      dat
      00FF9597H   LINE      CODE     ---       #315
      00FF95A5H   LINE      CODE     ---       #318
      00FF95A8H   LINE      CODE     ---       #319
      00FF95B3H   LINE      CODE     ---       #320
      00FF95BCH   LINE      CODE     ---       #321
      00FF95C5H   LINE      CODE     ---       #322
      00FF95CAH   LINE      CODE     ---       #323
      ---         BLOCKEND  ---      ---       LVL=0
      REG=3       REGSYM    ---      ---       soft_iic_obj
      REG=3       REGSYM    ---      ---       soft_iic_obj
      REG=3       REGSYM    ---      ---       soft_iic_obj
      REG=3       REGSYM    ---      ---       soft_iic_obj
      REG=3       REGSYM    ---      ---       soft_iic_obj
      REG=3       REGSYM    ---      ---       soft_iic_obj
      REG=3       REGSYM    ---      ---       soft_iic_obj
      REG=3       REGSYM    ---      ---       soft_iic_obj

      00FF826CH   BLOCK     CODE     ---       LVL=0
      REG=3       REGSYM    ---      ---       soft_iic_obj
      00010E2BH   SYMBOL    XDATA    BYTE      register_name
      00010E2CH   SYMBOL    XDATA    ---       dat
      00010E30H   SYMBOL    XDATA    DWORD     len
      00FF826CH   LINE      CODE     ---       #513
      00FF827EH   LINE      CODE     ---       #517
      00FF8281H   LINE      CODE     ---       #518
      00FF828CH   LINE      CODE     ---       #519
      00FF8295H   LINE      CODE     ---       #520
      00FF829AH   LINE      CODE     ---       #521
L251 LINKER/LOCATER V4.66.93.0                                                        02/28/2025  00:29:39  PAGE 68


      00FF82A7H   LINE      CODE     ---       #522
      00FF82A9H   LINE      CODE     ---       #524
      00FF82DAH   LINE      CODE     ---       #525
      00FF82F3H   LINE      CODE     ---       #526
      00FF82F8H   LINE      CODE     ---       #527
      ---         BLOCKEND  ---      ---       LVL=0
      REG=3       REGSYM    ---      ---       soft_iic_obj
      REG=3       REGSYM    ---      ---       soft_iic_obj
      REG=3       REGSYM    ---      ---       soft_iic_obj
      REG=3       REGSYM    ---      ---       soft_iic_obj
      REG=3       REGSYM    ---      ---       soft_iic_obj
      REG=3       REGSYM    ---      ---       soft_iic_obj
      REG=7       REGSYM    ---      ---       soft_iic_obj
      R11         REGSYM    ---      BYTE      addr
      DR24        REGSYM    ---      DWORD     delay

      ---         MODULE    ---      ---       zf_driver_spi
      00FF00A6H   PUBLIC    CODE     ---       spi_write_8bit_register
      00FF0040H   PUBLIC    CODE     ---       spi_write_8bit
      00FF5246H   PUBLIC    CODE     ---       spi_init
      00FF90DCH   PUBLIC    CODE     ---       spi_read_8bit_registers
      00FF97EDH   PUBLIC    CODE     ---       spi_write_16bit
      00FF911CH   PUBLIC    CODE     ---       spi_read_dat
      00FF985BH   PUBLIC    CODE     ---       spi_read_8bit_register
      00FF938AH   PUBLIC    CODE     ---       spi_write_8bit_registers
      00FF9690H   PUBLIC    CODE     ---       spi_write_dat
      00010ABBH   PUBLIC    XDATA    BYTE      ?spi_write_8bit_registers?BYTE
      00010ACBH   PUBLIC    XDATA    BYTE      ?spi_read_8bit_registers?BYTE
      00010AB7H   PUBLIC    XDATA    BYTE      ?spi_init?BYTE
      000000CFH   SFRSYM    DATA     BYTE      SPDAT
      000000D0H   SFRSYM    DATA     BYTE      PSW
      0000009DH   SFRSYM    DATA     BYTE      IRCBAND
      00000097H   SFRSYM    DATA     BYTE      AUXR2
      000000EFH   SFRSYM    DATA     BYTE      AUXINTIF
      000000FDH   SFRSYM    DATA     BYTE      S4CON
      000000ACH   SFRSYM    DATA     BYTE      S3CON
      0000009AH   SFRSYM    DATA     BYTE      S2CON
      0000009BH   SFRSYM    DATA     BYTE      S2BUF
      000000B7H   SFRSYM    DATA     BYTE      IPH
      000000CDH   SFRSYM    DATA     BYTE      SPSTAT
      000000DDH   SFRSYM    DATA     BYTE      T4T3M
      000000C1H   SFRSYM    DATA     BYTE      WDT_CONTR
      000000DFH   SFRSYM    DATA     BYTE      IP3
      000000F4H   SFRSYM    DATA     BYTE      USBCON
      000000B5H   SFRSYM    DATA     BYTE      IP2
      000000FFH   SFRSYM    DATA     BYTE      RSTCFG
      000000C7H   SFRSYM    DATA     BYTE      IAP_CONTR
      0000008EH   SFRSYM    DATA     BYTE      AUXR
      000000AFH   SFRSYM    DATA     BYTE      IE2
      00000088H   SFRSYM    DATA     BYTE      TCON
      00000089H   SFRSYM    DATA     BYTE      TMOD
      00000098H   SFRSYM    DATA     BYTE      SCON
      00000087H   SFRSYM    DATA     BYTE      PCON
      00000099H   SFRSYM    DATA     BYTE      SBUF
      000000BCH   SFRSYM    DATA     BYTE      ADC_CONTR
      000000D1H   SFRSYM    DATA     BYTE      PSW1
      000000E7H   SFRSYM    DATA     BYTE      CMPCR2
      000000E6H   SFRSYM    DATA     BYTE      CMPCR1
      0000009AH.1 SFRSYM    DATA     BIT       S2TI
      00000098H.1 SFRSYM    DATA     BIT       TI
      000000DEH   SFRSYM    DATA     BYTE      ADCCFG
      000000B8H   SFRSYM    DATA     BYTE      IP
      0000008FH   SFRSYM    DATA     BYTE      INTCLKO
      000000EEH   SFRSYM    DATA     BYTE      IP3H
      000000B6H   SFRSYM    DATA     BYTE      IP2H
L251 LINKER/LOCATER V4.66.93.0                                                        02/28/2025  00:29:39  PAGE 69


      000000BFH   SFRSYM    DATA     BYTE      P_SW4
      000000A8H   SFRSYM    DATA     BYTE      IE
      000000BBH   SFRSYM    DATA     BYTE      P_SW3
      000000BAH   SFRSYM    DATA     BYTE      P_SW2
      000000A2H   SFRSYM    DATA     BYTE      P_SW1
      000000CEH   SFRSYM    DATA     BYTE      SPCTL
      000000F8H   SFRSYM    DATA     BYTE      P7
      000000E8H   SFRSYM    DATA     BYTE      P6
      000000C8H   SFRSYM    DATA     BYTE      P5
      000000C0H   SFRSYM    DATA     BYTE      P4
      000000ABH   SFRSYM    DATA     BYTE      WKTCH
      000000B0H   SFRSYM    DATA     BYTE      P3
      000000A0H   SFRSYM    DATA     BYTE      P2
      00000090H   SFRSYM    DATA     BYTE      P1
      00000080H   SFRSYM    DATA     BYTE      P0

      00FF9690H   BLOCK     CODE     ---       LVL=0
      WR6         REGSYM    ---      INT       spi_n
      R10         REGSYM    ---      BYTE      dat
      00FF9690H   LINE      CODE     ---       #81
      00FF9692H   LINE      CODE     ---       #83
      00FF969EH   LINE      CODE     ---       #85
      00FF969EH   LINE      CODE     ---       #86
      00FF96A1H   LINE      CODE     ---       #87
      00FF96A4H   LINE      CODE     ---       #88
      00FF96A9H   LINE      CODE     ---       #89
      00FF96AAH   LINE      CODE     ---       #90
      00FF96AAH   LINE      CODE     ---       #91
      00FF96ACH   LINE      CODE     ---       #92
      00FF96AFH   LINE      CODE     ---       #93
      00FF96B2H   LINE      CODE     ---       #94
      00FF96B3H   LINE      CODE     ---       #95
      00FF96B3H   LINE      CODE     ---       #96
      00FF96B6H   LINE      CODE     ---       #97
      00FF96B9H   LINE      CODE     ---       #98
      00FF96BDH   LINE      CODE     ---       #99
      00FF96BDH   LINE      CODE     ---       #100
      00FF96BDH   LINE      CODE     ---       #102
      00FF96BDH   LINE      CODE     ---       #103
      00FF96BDH   LINE      CODE     ---       #104
      ---         BLOCKEND  ---      ---       LVL=0

      00FF911CH   BLOCK     CODE     ---       LVL=0
      WR8         REGSYM    ---      INT       spi_n
      R10         REGSYM    ---      BYTE      dat
      00FF9120H   BLOCK     CODE     NEAR LAB  LVL=1
      R7          REGSYM    ---      BYTE      ret
      ---         BLOCKEND  ---      ---       LVL=1
      00FF911CH   LINE      CODE     ---       #107
      00FF9120H   LINE      CODE     ---       #108
      00FF9120H   LINE      CODE     ---       #109
      00FF9123H   LINE      CODE     ---       #110
      00FF912FH   LINE      CODE     ---       #112
      00FF912FH   LINE      CODE     ---       #113
      00FF9132H   LINE      CODE     ---       #114
      00FF9135H   LINE      CODE     ---       #115
      00FF913AH   LINE      CODE     ---       #116
      00FF913DH   LINE      CODE     ---       #117
      00FF913FH   LINE      CODE     ---       #118
      00FF913FH   LINE      CODE     ---       #119
      00FF9141H   LINE      CODE     ---       #120
      00FF9144H   LINE      CODE     ---       #121
      00FF9147H   LINE      CODE     ---       #122
      00FF914AH   LINE      CODE     ---       #123
      00FF914CH   LINE      CODE     ---       #124
L251 LINKER/LOCATER V4.66.93.0                                                        02/28/2025  00:29:39  PAGE 70


      00FF914CH   LINE      CODE     ---       #125
      00FF914FH   LINE      CODE     ---       #126
      00FF9152H   LINE      CODE     ---       #127
      00FF9156H   LINE      CODE     ---       #128
      00FF9159H   LINE      CODE     ---       #129
      00FF9159H   LINE      CODE     ---       #130
      00FF9159H   LINE      CODE     ---       #132
      00FF9159H   LINE      CODE     ---       #133
      00FF9159H   LINE      CODE     ---       #135
      00FF915BH   LINE      CODE     ---       #136
      ---         BLOCKEND  ---      ---       LVL=0

      00FF0040H   BLOCK     CODE     ---       LVL=0
      WR6         REGSYM    ---      INT       spi_n
      R11         REGSYM    ---      BYTE      dat
      00FF0040H   LINE      CODE     ---       #147
      00FF0040H   LINE      CODE     ---       #149
      ---         BLOCKEND  ---      ---       LVL=0
      REG=3       REGSYM    ---      ---       dat

      00FF97EDH   BLOCK     CODE     ---       LVL=0
      WR12        REGSYM    ---      INT       spi_n
      WR14        REGSYM    ---      WORD      dat
      00FF97EDH   LINE      CODE     ---       #175
      00FF97F3H   LINE      CODE     ---       #177
      00FF97F8H   LINE      CODE     ---       #178
      00FF97FFH   LINE      CODE     ---       #179
      ---         BLOCKEND  ---      ---       LVL=0
      REG=3       REGSYM    ---      ---       dat

      00FF00A6H   BLOCK     CODE     ---       LVL=0
      WR14        REGSYM    ---      INT       spi_n
      R11         REGSYM    ---      BYTE      register_name
      R13         REGSYM    ---      BYTE      dat
      00FF00A6H   LINE      CODE     ---       #206
      00FF00AEH   LINE      CODE     ---       #208
      00FF00B1H   LINE      CODE     ---       #209
      00FF00B8H   LINE      CODE     ---       #210
      ---         BLOCKEND  ---      ---       LVL=0

      00FF938AH   BLOCK     CODE     ---       LVL=0
      00010AC0H   SYMBOL    XDATA    INT       spi_n
      R11         REGSYM    ---      BYTE      register_name
      REG=3       REGSYM    ---      ---       dat
      00010AC2H   SYMBOL    XDATA    DWORD     len
      00FF938AH   LINE      CODE     ---       #222
      00FF9394H   LINE      CODE     ---       #224
      00FF939AH   LINE      CODE     ---       #225
      00FF939CH   LINE      CODE     ---       #227
      00FF93AAH   LINE      CODE     ---       #228
      00FF93C3H   LINE      CODE     ---       #229
      ---         BLOCKEND  ---      ---       LVL=0
      WR14        REGSYM    ---      INT       spi_n
      WR12        REGSYM    ---      WORD      dat
      WR14        REGSYM    ---      INT       spi_n
      WR12        REGSYM    ---      WORD      register_name
      WR6         REGSYM    ---      INT       spi_n
      REG=3       REGSYM    ---      ---       dat
      WR14        REGSYM    ---      INT       spi_n
      WR12        REGSYM    ---      WORD      dat
      REG=3       REGSYM    ---      ---       dat

      00FF985BH   BLOCK     CODE     ---       LVL=0
      WR14        REGSYM    ---      INT       spi_n
      R11         REGSYM    ---      BYTE      register_name
L251 LINKER/LOCATER V4.66.93.0                                                        02/28/2025  00:29:39  PAGE 71


      00FF985BH   LINE      CODE     ---       #335
      00FF985FH   LINE      CODE     ---       #337
      00FF9862H   LINE      CODE     ---       #338
      00FF9868H   LINE      CODE     ---       #339
      ---         BLOCKEND  ---      ---       LVL=0

      00FF90DCH   BLOCK     CODE     ---       LVL=0
      00010AD0H   SYMBOL    XDATA    INT       spi_n
      R11         REGSYM    ---      BYTE      register_name
      REG=3       REGSYM    ---      ---       dat
      00010AD2H   SYMBOL    XDATA    DWORD     len
      00FF90DCH   LINE      CODE     ---       #350
      00FF90E6H   LINE      CODE     ---       #352
      00FF90EFH   LINE      CODE     ---       #353
      00FF90F1H   LINE      CODE     ---       #355
      00FF9100H   LINE      CODE     ---       #356
      00FF9119H   LINE      CODE     ---       #357
      ---         BLOCKEND  ---      ---       LVL=0
      WR14        REGSYM    ---      INT       spi_n
      WR12        REGSYM    ---      WORD      register_name
      WR12        REGSYM    ---      WORD      dat
      REG=3       REGSYM    ---      ---       dat
      REG=3       REGSYM    ---      ---       write_buffer
      REG=3       REGSYM    ---      ---       write_buffer

      00FF5246H   BLOCK     CODE     ---       LVL=0
      00010ABBH   SYMBOL    XDATA    INT       spi_n
      00010ABDH   SYMBOL    XDATA    INT       mode
      DR12        REGSYM    ---      DWORD     baud
      00010ABFH   SYMBOL    XDATA    INT       sck_pin
      00010AC1H   SYMBOL    XDATA    INT       mosi_pin
      00010AC3H   SYMBOL    XDATA    INT       miso_pin
      00010AC5H   SYMBOL    XDATA    INT       cs_pin
      00FF5256H   BLOCK     CODE     NEAR LAB  LVL=1
      00010AC7H   SYMBOL    XDATA    DWORD     spi_psc
      ---         BLOCKEND  ---      ---       LVL=1
      00FF5246H   LINE      CODE     ---       #465
      00FF5256H   LINE      CODE     ---       #466
      00FF5256H   LINE      CODE     ---       #467
      00FF5262H   LINE      CODE     ---       #469
      00FF5262H   LINE      CODE     ---       #473
      00FF5262H   LINE      CODE     ---       #475
      00FF5277H   LINE      CODE     ---       #476
      00FF528CH   LINE      CODE     ---       #478
      00FF5298H   LINE      CODE     ---       #480
      00FF52A7H   LINE      CODE     ---       #481
      00FF52A7H   LINE      CODE     ---       #483
      00FF52B3H   LINE      CODE     ---       #485
      00FF52C1H   LINE      CODE     ---       #486
      00FF52C1H   LINE      CODE     ---       #489
      00FF52C7H   LINE      CODE     ---       #491
      00FF52D4H   LINE      CODE     ---       #492
      00FF52E1H   LINE      CODE     ---       #493
      00FF52EDH   LINE      CODE     ---       #495
      00FF52F4H   LINE      CODE     ---       #496
      00FF52F4H   LINE      CODE     ---       #497
      00FF5300H   LINE      CODE     ---       #499
      00FF5307H   LINE      CODE     ---       #500
      00FF5307H   LINE      CODE     ---       #504
      00FF5314H   LINE      CODE     ---       #506
      00FF5317H   LINE      CODE     ---       #508
      00FF5339H   LINE      CODE     ---       #510
      00FF5339H   LINE      CODE     ---       #511
      00FF533DH   LINE      CODE     ---       #512
      00FF533FH   LINE      CODE     ---       #514
L251 LINKER/LOCATER V4.66.93.0                                                        02/28/2025  00:29:39  PAGE 72


      00FF533FH   LINE      CODE     ---       #515
      00FF5342H   LINE      CODE     ---       #516
      00FF5344H   LINE      CODE     ---       #518
      00FF5344H   LINE      CODE     ---       #519
      00FF5347H   LINE      CODE     ---       #520
      00FF5349H   LINE      CODE     ---       #522
      00FF5349H   LINE      CODE     ---       #523
      00FF534CH   LINE      CODE     ---       #524
      00FF534CH   LINE      CODE     ---       #525
      00FF534CH   LINE      CODE     ---       #527
      00FF534FH   LINE      CODE     ---       #528
      00FF5352H   LINE      CODE     ---       #529
      00FF5355H   LINE      CODE     ---       #532
      00FF536EH   LINE      CODE     ---       #534
      00FF5371H   LINE      CODE     ---       #536
      00FF5377H   LINE      CODE     ---       #538
      00FF537AH   LINE      CODE     ---       #539
      00FF537CH   LINE      CODE     ---       #540
      00FF538CH   LINE      CODE     ---       #542
      00FF538FH   LINE      CODE     ---       #543
      00FF5391H   LINE      CODE     ---       #544
      00FF53A1H   LINE      CODE     ---       #546
      00FF53A5H   LINE      CODE     ---       #547
      00FF53A7H   LINE      CODE     ---       #550
      00FF53AAH   LINE      CODE     ---       #551
      00FF53AAH   LINE      CODE     ---       #554
      00FF53BCH   LINE      CODE     ---       #556
      00FF53BCH   LINE      CODE     ---       #557
      00FF53BCH   LINE      CODE     ---       #559
      00FF53BCH   LINE      CODE     ---       #560
      00FF53BFH   LINE      CODE     ---       #561
      00FF53C1H   LINE      CODE     ---       #563
      00FF53C1H   LINE      CODE     ---       #564
      00FF53C4H   LINE      CODE     ---       #565
      00FF53C6H   LINE      CODE     ---       #567
      00FF53C6H   LINE      CODE     ---       #568
      00FF53C9H   LINE      CODE     ---       #569
      00FF53C9H   LINE      CODE     ---       #570
      00FF53C9H   LINE      CODE     ---       #572
      00FF53CCH   LINE      CODE     ---       #573
      00FF53CFH   LINE      CODE     ---       #574
      00FF53D8H   LINE      CODE     ---       #586
      00FF53DBH   LINE      CODE     ---       #588
      00FF53FDH   LINE      CODE     ---       #590
      00FF53FDH   LINE      CODE     ---       #591
      00FF5401H   LINE      CODE     ---       #592
      00FF5403H   LINE      CODE     ---       #594
      00FF5403H   LINE      CODE     ---       #595
      00FF5406H   LINE      CODE     ---       #596
      00FF5408H   LINE      CODE     ---       #598
      00FF5408H   LINE      CODE     ---       #599
      00FF540BH   LINE      CODE     ---       #600
      00FF540DH   LINE      CODE     ---       #602
      00FF540DH   LINE      CODE     ---       #603
      00FF5410H   LINE      CODE     ---       #604
      00FF5410H   LINE      CODE     ---       #605
      00FF5410H   LINE      CODE     ---       #607
      00FF5413H   LINE      CODE     ---       #608
      00FF5420H   LINE      CODE     ---       #612
      00FF5439H   LINE      CODE     ---       #616
      00FF543FH   LINE      CODE     ---       #618
      00FF544CH   LINE      CODE     ---       #619
      00FF544EH   LINE      CODE     ---       #620
      00FF545EH   LINE      CODE     ---       #622
      00FF546BH   LINE      CODE     ---       #623
L251 LINKER/LOCATER V4.66.93.0                                                        02/28/2025  00:29:39  PAGE 73


      00FF546DH   LINE      CODE     ---       #624
      00FF547DH   LINE      CODE     ---       #626
      00FF548BH   LINE      CODE     ---       #627
      00FF548DH   LINE      CODE     ---       #630
      00FF549DH   LINE      CODE     ---       #631
      00FF549DH   LINE      CODE     ---       #635
      00FF54B5H   LINE      CODE     ---       #637
      00FF54B5H   LINE      CODE     ---       #638
      00FF54BBH   LINE      CODE     ---       #639
      00FF54BDH   LINE      CODE     ---       #641
      00FF54BDH   LINE      CODE     ---       #642
      00FF54C2H   LINE      CODE     ---       #643
      00FF54C4H   LINE      CODE     ---       #645
      00FF54C4H   LINE      CODE     ---       #646
      00FF54C9H   LINE      CODE     ---       #647
      00FF54CBH   LINE      CODE     ---       #649
      00FF54CBH   LINE      CODE     ---       #650
      00FF54D3H   LINE      CODE     ---       #651
      00FF54D3H   LINE      CODE     ---       #652
      00FF54D3H   LINE      CODE     ---       #654
      00FF54DBH   LINE      CODE     ---       #655
      00FF54DEH   LINE      CODE     ---       #656
      00FF54E7H   LINE      CODE     ---       #667
      00FF54EAH   LINE      CODE     ---       #669
      00FF5508H   LINE      CODE     ---       #671
      00FF5508H   LINE      CODE     ---       #672
      00FF550CH   LINE      CODE     ---       #673
      00FF550EH   LINE      CODE     ---       #675
      00FF550EH   LINE      CODE     ---       #676
      00FF5511H   LINE      CODE     ---       #677
      00FF5513H   LINE      CODE     ---       #679
      00FF5513H   LINE      CODE     ---       #680
      00FF5516H   LINE      CODE     ---       #681
      00FF5518H   LINE      CODE     ---       #683
      00FF5518H   LINE      CODE     ---       #684
      00FF551BH   LINE      CODE     ---       #685
      00FF551BH   LINE      CODE     ---       #686
      00FF551BH   LINE      CODE     ---       #688
      00FF551EH   LINE      CODE     ---       #689
      00FF552BH   LINE      CODE     ---       #693
      00FF5544H   LINE      CODE     ---       #695
      00FF554AH   LINE      CODE     ---       #697
      00FF5557H   LINE      CODE     ---       #698
      00FF5559H   LINE      CODE     ---       #699
      00FF5569H   LINE      CODE     ---       #701
      00FF5576H   LINE      CODE     ---       #702
      00FF5578H   LINE      CODE     ---       #703
      00FF5588H   LINE      CODE     ---       #705
      00FF5596H   LINE      CODE     ---       #706
      00FF5598H   LINE      CODE     ---       #709
      00FF55A8H   LINE      CODE     ---       #710
      00FF55A8H   LINE      CODE     ---       #714
      00FF55C0H   LINE      CODE     ---       #716
      00FF55C0H   LINE      CODE     ---       #717
      00FF55C6H   LINE      CODE     ---       #718
      00FF55C8H   LINE      CODE     ---       #720
      00FF55C8H   LINE      CODE     ---       #721
      00FF55CDH   LINE      CODE     ---       #722
      00FF55CFH   LINE      CODE     ---       #724
      00FF55CFH   LINE      CODE     ---       #725
      00FF55D4H   LINE      CODE     ---       #726
      00FF55D6H   LINE      CODE     ---       #728
      00FF55D6H   LINE      CODE     ---       #729
      00FF55DEH   LINE      CODE     ---       #730
      00FF55DEH   LINE      CODE     ---       #731
L251 LINKER/LOCATER V4.66.93.0                                                        02/28/2025  00:29:39  PAGE 74


      00FF55DEH   LINE      CODE     ---       #733
      00FF55E6H   LINE      CODE     ---       #734
      ---         BLOCKEND  ---      ---       LVL=0

      ---         MODULE    ---      ---       zf_driver_timer
      000000D0H   SFRSYM    DATA     BYTE      PSW
      0000009DH   SFRSYM    DATA     BYTE      IRCBAND
      00000097H   SFRSYM    DATA     BYTE      AUXR2
      000000EFH   SFRSYM    DATA     BYTE      AUXINTIF
      000000FDH   SFRSYM    DATA     BYTE      S4CON
      000000ACH   SFRSYM    DATA     BYTE      S3CON
      0000009AH   SFRSYM    DATA     BYTE      S2CON
      000000B7H   SFRSYM    DATA     BYTE      IPH
      000000CDH   SFRSYM    DATA     BYTE      SPSTAT
      000000DDH   SFRSYM    DATA     BYTE      T4T3M
      000000C1H   SFRSYM    DATA     BYTE      WDT_CONTR
      000000DFH   SFRSYM    DATA     BYTE      IP3
      000000F4H   SFRSYM    DATA     BYTE      USBCON
      000000B5H   SFRSYM    DATA     BYTE      IP2
      000000FFH   SFRSYM    DATA     BYTE      RSTCFG
      000000C7H   SFRSYM    DATA     BYTE      IAP_CONTR
      0000008EH   SFRSYM    DATA     BYTE      AUXR
      000000AFH   SFRSYM    DATA     BYTE      IE2
      00000088H   SFRSYM    DATA     BYTE      TCON
      00000089H   SFRSYM    DATA     BYTE      TMOD
      00000098H   SFRSYM    DATA     BYTE      SCON
      00000087H   SFRSYM    DATA     BYTE      PCON
      000000BCH   SFRSYM    DATA     BYTE      ADC_CONTR
      000000D1H   SFRSYM    DATA     BYTE      PSW1
      000000E7H   SFRSYM    DATA     BYTE      CMPCR2
      000000E6H   SFRSYM    DATA     BYTE      CMPCR1
      000000DEH   SFRSYM    DATA     BYTE      ADCCFG
      000000B8H   SFRSYM    DATA     BYTE      IP
      0000008FH   SFRSYM    DATA     BYTE      INTCLKO
      000000EEH   SFRSYM    DATA     BYTE      IP3H
      000000B6H   SFRSYM    DATA     BYTE      IP2H
      000000BFH   SFRSYM    DATA     BYTE      P_SW4
      000000A8H   SFRSYM    DATA     BYTE      IE
      000000BBH   SFRSYM    DATA     BYTE      P_SW3
      000000BAH   SFRSYM    DATA     BYTE      P_SW2
      000000A2H   SFRSYM    DATA     BYTE      P_SW1
      000000CEH   SFRSYM    DATA     BYTE      SPCTL
      000000F8H   SFRSYM    DATA     BYTE      P7
      000000E8H   SFRSYM    DATA     BYTE      P6
      000000C8H   SFRSYM    DATA     BYTE      P5
      000000C0H   SFRSYM    DATA     BYTE      P4
      000000ABH   SFRSYM    DATA     BYTE      WKTCH
      000000B0H   SFRSYM    DATA     BYTE      P3
      000000A0H   SFRSYM    DATA     BYTE      P2
      00000090H   SFRSYM    DATA     BYTE      P1
      00000080H   SFRSYM    DATA     BYTE      P0
      00010DD3H   SYMBOL    XDATA    ---       timer_function_state
      WR2         REGSYM    ---      INT       index
      WR0         REGSYM    ---      INT       mode
      R10         REGSYM    ---      BYTE      return_state

      ---         MODULE    ---      ---       zf_driver_uart
      00FF899CH   PUBLIC    CODE     ---       uart_rx_start_buff
      00FF7E50H   PUBLIC    CODE     ---       uart_write_buffer
      00FF6ADDH   PUBLIC    CODE     ---       uart_init
      00FF93C6H   PUBLIC    CODE     ---       uart_rx_interrupt
      00FF9802H   PUBLIC    CODE     ---       uart_write_byte
      00FF7AE8H   PUBLIC    CODE     ---       uart_dma_init
      00FF8EEBH   PUBLIC    CODE     ---       uart_query_byte
      00010DE7H   PUBLIC    XDATA    ---       uart_rx_buff
L251 LINKER/LOCATER V4.66.93.0                                                        02/28/2025  00:29:39  PAGE 75


      00010B4CH   PUBLIC    XDATA    BYTE      ?uart_init?BYTE
      000000D0H   SFRSYM    DATA     BYTE      PSW
      0000009DH   SFRSYM    DATA     BYTE      IRCBAND
      00000097H   SFRSYM    DATA     BYTE      AUXR2
      000000EFH   SFRSYM    DATA     BYTE      AUXINTIF
      000000FDH   SFRSYM    DATA     BYTE      S4CON
      000000ACH   SFRSYM    DATA     BYTE      S3CON
      0000009AH   SFRSYM    DATA     BYTE      S2CON
      000000B7H   SFRSYM    DATA     BYTE      IPH
      000000CDH   SFRSYM    DATA     BYTE      SPSTAT
      000000DDH   SFRSYM    DATA     BYTE      T4T3M
      000000C1H   SFRSYM    DATA     BYTE      WDT_CONTR
      00000088H.6 SFRSYM    DATA     BIT       TR1
      000000D7H   SFRSYM    DATA     BYTE      T2L
      000000D6H   SFRSYM    DATA     BYTE      T2H
      000000DFH   SFRSYM    DATA     BYTE      IP3
      000000F4H   SFRSYM    DATA     BYTE      USBCON
      000000B5H   SFRSYM    DATA     BYTE      IP2
      000000FFH   SFRSYM    DATA     BYTE      RSTCFG
      000000C7H   SFRSYM    DATA     BYTE      IAP_CONTR
      0000008EH   SFRSYM    DATA     BYTE      AUXR
      000000AFH   SFRSYM    DATA     BYTE      IE2
      00000088H   SFRSYM    DATA     BYTE      TCON
      00000089H   SFRSYM    DATA     BYTE      TMOD
      00000098H   SFRSYM    DATA     BYTE      SCON
      00000087H   SFRSYM    DATA     BYTE      PCON
      000000BCH   SFRSYM    DATA     BYTE      ADC_CONTR
      000000D1H   SFRSYM    DATA     BYTE      PSW1
      000000E7H   SFRSYM    DATA     BYTE      CMPCR2
      000000E6H   SFRSYM    DATA     BYTE      CMPCR1
      000000DEH   SFRSYM    DATA     BYTE      ADCCFG
      000000B8H   SFRSYM    DATA     BYTE      IP
      0000008FH   SFRSYM    DATA     BYTE      INTCLKO
      000000EEH   SFRSYM    DATA     BYTE      IP3H
      000000B6H   SFRSYM    DATA     BYTE      IP2H
      000000BFH   SFRSYM    DATA     BYTE      P_SW4
      000000A8H   SFRSYM    DATA     BYTE      IE
      000000BBH   SFRSYM    DATA     BYTE      P_SW3
      000000BAH   SFRSYM    DATA     BYTE      P_SW2
      000000A2H   SFRSYM    DATA     BYTE      P_SW1
      000000CEH   SFRSYM    DATA     BYTE      SPCTL
      000000F8H   SFRSYM    DATA     BYTE      P7
      000000E8H   SFRSYM    DATA     BYTE      P6
      000000C8H   SFRSYM    DATA     BYTE      P5
      000000C0H   SFRSYM    DATA     BYTE      P4
      000000ABH   SFRSYM    DATA     BYTE      WKTCH
      000000B0H   SFRSYM    DATA     BYTE      P3
      000000A0H   SFRSYM    DATA     BYTE      P2
      00000090H   SFRSYM    DATA     BYTE      P1
      00000080H   SFRSYM    DATA     BYTE      P0
      00010DDFH   SYMBOL    XDATA    ---       uart_function_state
      WR2         REGSYM    ---      INT       index
      WR0         REGSYM    ---      INT       mode
      R10         REGSYM    ---      BYTE      return_state

      00FF7E50H   BLOCK     CODE     ---       LVL=0
      WR0         REGSYM    ---      INT       uart_n
      REG=7       REGSYM    ---      ---       buff
      WR8         REGSYM    ---      WORD      len
      00FF7E50H   LINE      CODE     ---       #108
      00FF7E58H   LINE      CODE     ---       #112
      00FF7E72H   LINE      CODE     ---       #113
      00FF7E74H   LINE      CODE     ---       #114
      00FF7E81H   LINE      CODE     ---       #115
      00FF7E98H   LINE      CODE     ---       #116
L251 LINKER/LOCATER V4.66.93.0                                                        02/28/2025  00:29:39  PAGE 76


      00FF7EA7H   LINE      CODE     ---       #117
      00FF7EB4H   LINE      CODE     ---       #118
      00FF7EC1H   LINE      CODE     ---       #120
      00FF7EDEH   LINE      CODE     ---       #122
      00FF7EEAH   LINE      CODE     ---       #124
      ---         BLOCKEND  ---      ---       LVL=0
      REG=3       REGSYM    ---      ---       str

      00FF9802H   BLOCK     CODE     ---       LVL=0
      WR6         REGSYM    ---      INT       uart_n
      00010AE3H   SYMBOL    XDATA    BYTE      dat
      00FF9802H   LINE      CODE     ---       #154
      00FF9806H   LINE      CODE     ---       #156
      ---         BLOCKEND  ---      ---       LVL=0

      00FF899CH   BLOCK     CODE     ---       LVL=0
      WR8         REGSYM    ---      INT       uart_n
      00FF899CH   LINE      CODE     ---       #165
      00FF899EH   LINE      CODE     ---       #167
      00FF89BCH   LINE      CODE     ---       #168
      00FF89CCH   LINE      CODE     ---       #169
      00FF89DFH   LINE      CODE     ---       #170
      00FF89EEH   LINE      CODE     ---       #171
      00FF89FBH   LINE      CODE     ---       #172
      ---         BLOCKEND  ---      ---       LVL=0

      00FF93C6H   BLOCK     CODE     ---       LVL=0
      WR6         REGSYM    ---      INT       uart_n
      R5          REGSYM    ---      BYTE      status
      00FF93C6H   LINE      CODE     ---       #183
      00FF93C8H   LINE      CODE     ---       #185
      00FF93CCH   LINE      CODE     ---       #187
      00FF93E4H   LINE      CODE     ---       #188
      00FF93E6H   LINE      CODE     ---       #191
      00FF9401H   LINE      CODE     ---       #192
      00FF9401H   LINE      CODE     ---       #193
      ---         BLOCKEND  ---      ---       LVL=0
      WR8         REGSYM    ---      INT       uart_n
      R15         REGSYM    ---      BYTE      dat

      00FF8EEBH   BLOCK     CODE     ---       LVL=0
      WR2         REGSYM    ---      INT       uart_n
      REG=7       REGSYM    ---      ---       dat
      00FF8EF1H   BLOCK     CODE     NEAR LAB  LVL=1
      R15         REGSYM    ---      BYTE      ret
      ---         BLOCKEND  ---      ---       LVL=1
      00FF8EEBH   LINE      CODE     ---       #227
      00FF8EF1H   LINE      CODE     ---       #228
      00FF8EF1H   LINE      CODE     ---       #229
      00FF8EF1H   LINE      CODE     ---       #232
      00FF8F01H   LINE      CODE     ---       #234
      00FF8F1BH   LINE      CODE     ---       #236
      00FF8F1EH   LINE      CODE     ---       #238
      00FF8F26H   LINE      CODE     ---       #239
      00FF8F28H   LINE      CODE     ---       #242
      00FF8F2AH   LINE      CODE     ---       #243
      00FF8F2AH   LINE      CODE     ---       #246
      00FF8F2FH   LINE      CODE     ---       #248
      00FF8F31H   LINE      CODE     ---       #249
      ---         BLOCKEND  ---      ---       LVL=0

      00FF7AE8H   BLOCK     CODE     ---       LVL=0
      WR8         REGSYM    ---      INT       uart_n
      00FF7AE8H   LINE      CODE     ---       #257
      00FF7AECH   LINE      CODE     ---       #259
L251 LINKER/LOCATER V4.66.93.0                                                        02/28/2025  00:29:39  PAGE 77


      00FF7B08H   LINE      CODE     ---       #260
      00FF7B16H   LINE      CODE     ---       #261
      00FF7B23H   LINE      CODE     ---       #263
      00FF7B30H   LINE      CODE     ---       #264
      00FF7B3DH   LINE      CODE     ---       #265
      00FF7B4AH   LINE      CODE     ---       #267
      00FF7B57H   LINE      CODE     ---       #268
      00FF7B70H   LINE      CODE     ---       #269
      00FF7B83H   LINE      CODE     ---       #270
      00FF7B92H   LINE      CODE     ---       #271
      00FF7B97H   LINE      CODE     ---       #272
      00FF7B9CH   LINE      CODE     ---       #274
      ---         BLOCKEND  ---      ---       LVL=0

      00FF6ADDH   BLOCK     CODE     ---       LVL=0
      WR12        REGSYM    ---      INT       uart_n
      00010B50H   SYMBOL    XDATA    DWORD     baud
      WR14        REGSYM    ---      INT       tx_pin
      00010B54H   SYMBOL    XDATA    INT       rx_pin
      00FF6AEDH   BLOCK     CODE     NEAR LAB  LVL=1
      WR6         REGSYM    ---      WORD      brt
      ---         BLOCKEND  ---      ---       LVL=1
      00FF6ADDH   LINE      CODE     ---       #286
      00FF6AEDH   LINE      CODE     ---       #287
      00FF6AEDH   LINE      CODE     ---       #311
      00FF6AFEH   LINE      CODE     ---       #312
      00FF6B11H   LINE      CODE     ---       #314
      00FF6B42H   LINE      CODE     ---       #316
      00FF6B62H   LINE      CODE     ---       #318
      00FF6B62H   LINE      CODE     ---       #332
      00FF6B65H   LINE      CODE     ---       #333
      00FF6B69H   LINE      CODE     ---       #334
      00FF6B6DH   LINE      CODE     ---       #335
      00FF6B70H   LINE      CODE     ---       #336
      00FF6B72H   LINE      CODE     ---       #339
      00FF6B75H   LINE      CODE     ---       #341
      00FF6B87H   LINE      CODE     ---       #343
      00FF6B8BH   LINE      CODE     ---       #344
      00FF6B8EH   LINE      CODE     ---       #345
      00FF6B9AH   LINE      CODE     ---       #347
      00FF6B9DH   LINE      CODE     ---       #348
      00FF6BA0H   LINE      CODE     ---       #349
      00FF6BACH   LINE      CODE     ---       #351
      00FF6BAFH   LINE      CODE     ---       #352
      00FF6BB2H   LINE      CODE     ---       #353
      00FF6BC4H   LINE      CODE     ---       #355
      00FF6BC7H   LINE      CODE     ---       #356
      00FF6BC7H   LINE      CODE     ---       #359
      00FF6BCAH   LINE      CODE     ---       #362
      00FF6BCAH   LINE      CODE     ---       #366
      00FF6BCDH   LINE      CODE     ---       #367
      00FF6BD1H   LINE      CODE     ---       #368
      00FF6BD5H   LINE      CODE     ---       #369
      00FF6BD8H   LINE      CODE     ---       #372
      00FF6BDBH   LINE      CODE     ---       #374
      00FF6BEDH   LINE      CODE     ---       #376
      00FF6BEDH   LINE      CODE     ---       #377
      00FF6BEFH   LINE      CODE     ---       #378
      00FF6BFEH   LINE      CODE     ---       #380
      00FF6C01H   LINE      CODE     ---       #381
      00FF6C01H   LINE      CODE     ---       #385
      00FF6C03H   LINE      CODE     ---       #388
      00FF6C03H   LINE      CODE     ---       #392
      00FF6C06H   LINE      CODE     ---       #393
      00FF6C0AH   LINE      CODE     ---       #394
L251 LINKER/LOCATER V4.66.93.0                                                        02/28/2025  00:29:39  PAGE 78


      00FF6C0EH   LINE      CODE     ---       #395
      00FF6C11H   LINE      CODE     ---       #405
      00FF6C14H   LINE      CODE     ---       #407
      00FF6C26H   LINE      CODE     ---       #409
      00FF6C26H   LINE      CODE     ---       #410
      00FF6C28H   LINE      CODE     ---       #411
      00FF6C34H   LINE      CODE     ---       #413
      00FF6C37H   LINE      CODE     ---       #414
      00FF6C37H   LINE      CODE     ---       #418
      00FF6C39H   LINE      CODE     ---       #421
      00FF6C39H   LINE      CODE     ---       #425
      00FF6C3CH   LINE      CODE     ---       #426
      00FF6C40H   LINE      CODE     ---       #427
      00FF6C44H   LINE      CODE     ---       #428
      00FF6C47H   LINE      CODE     ---       #438
      00FF6C4AH   LINE      CODE     ---       #440
      00FF6C5CH   LINE      CODE     ---       #442
      00FF6C60H   LINE      CODE     ---       #443
      00FF6C62H   LINE      CODE     ---       #444
      00FF6C6EH   LINE      CODE     ---       #448
      00FF6C71H   LINE      CODE     ---       #449
      00FF6C71H   LINE      CODE     ---       #453
      00FF6C71H   LINE      CODE     ---       #456
      00FF6C71H   LINE      CODE     ---       #459
      00FF6C76H   LINE      CODE     ---       #461
      ---         BLOCKEND  ---      ---       LVL=0

      ---         MODULE    ---      ---       zf_device_config
      00FF021EH   PUBLIC    CODE     ---       imu660ra_config_file

      ---         MODULE    ---      ---       zf_device_type
      00FF94B5H   PUBLIC    CODE     ---       set_gps_type
      00010E4DH   PUBLIC    XDATA    ---       tof_module_exti_handler
      00010E4FH   PUBLIC    XDATA    INT       wireless_type
      00010E51H   PUBLIC    XDATA    INT       tof_type
      00010E53H   PUBLIC    XDATA    INT       gps_type
      000000D0H   SFRSYM    DATA     BYTE      PSW
      0000009DH   SFRSYM    DATA     BYTE      IRCBAND
      00000097H   SFRSYM    DATA     BYTE      AUXR2
      000000EFH   SFRSYM    DATA     BYTE      AUXINTIF
      000000FDH   SFRSYM    DATA     BYTE      S4CON
      000000ACH   SFRSYM    DATA     BYTE      S3CON
      0000009AH   SFRSYM    DATA     BYTE      S2CON
      000000B7H   SFRSYM    DATA     BYTE      IPH
      000000CDH   SFRSYM    DATA     BYTE      SPSTAT
      000000DDH   SFRSYM    DATA     BYTE      T4T3M
      000000C1H   SFRSYM    DATA     BYTE      WDT_CONTR
      000000DFH   SFRSYM    DATA     BYTE      IP3
      000000F4H   SFRSYM    DATA     BYTE      USBCON
      000000B5H   SFRSYM    DATA     BYTE      IP2
      000000FFH   SFRSYM    DATA     BYTE      RSTCFG
      000000C7H   SFRSYM    DATA     BYTE      IAP_CONTR
      0000008EH   SFRSYM    DATA     BYTE      AUXR
      000000AFH   SFRSYM    DATA     BYTE      IE2
      00000088H   SFRSYM    DATA     BYTE      TCON
      00000089H   SFRSYM    DATA     BYTE      TMOD
      00000098H   SFRSYM    DATA     BYTE      SCON
      00000087H   SFRSYM    DATA     BYTE      PCON
      000000BCH   SFRSYM    DATA     BYTE      ADC_CONTR
      000000D1H   SFRSYM    DATA     BYTE      PSW1
      000000E7H   SFRSYM    DATA     BYTE      CMPCR2
      000000E6H   SFRSYM    DATA     BYTE      CMPCR1
      000000DEH   SFRSYM    DATA     BYTE      ADCCFG
      000000B8H   SFRSYM    DATA     BYTE      IP
      0000008FH   SFRSYM    DATA     BYTE      INTCLKO
L251 LINKER/LOCATER V4.66.93.0                                                        02/28/2025  00:29:39  PAGE 79


      000000EEH   SFRSYM    DATA     BYTE      IP3H
      000000B6H   SFRSYM    DATA     BYTE      IP2H
      000000BFH   SFRSYM    DATA     BYTE      P_SW4
      000000A8H   SFRSYM    DATA     BYTE      IE
      000000BBH   SFRSYM    DATA     BYTE      P_SW3
      000000BAH   SFRSYM    DATA     BYTE      P_SW2
      000000A2H   SFRSYM    DATA     BYTE      P_SW1
      000000CEH   SFRSYM    DATA     BYTE      SPCTL
      000000F8H   SFRSYM    DATA     BYTE      P7
      000000E8H   SFRSYM    DATA     BYTE      P6
      000000C8H   SFRSYM    DATA     BYTE      P5
      000000C0H   SFRSYM    DATA     BYTE      P4
      000000ABH   SFRSYM    DATA     BYTE      WKTCH
      000000B0H   SFRSYM    DATA     BYTE      P3
      000000A0H   SFRSYM    DATA     BYTE      P2
      00000090H   SFRSYM    DATA     BYTE      P1
      00000080H   SFRSYM    DATA     BYTE      P0
      WR6         REGSYM    ---      INT       type_set
      WR4         REGSYM    ---      INT       uartx
      REG=0       REGSYM    ---      ---       uart_callback
      WR6         REGSYM    ---      INT       type_set
      REG=0       REGSYM    ---      ---       exti_callback

      00FF94B5H   BLOCK     CODE     ---       LVL=0
      WR6         REGSYM    ---      INT       type_set
      WR4         REGSYM    ---      INT       uartx
      REG=0       REGSYM    ---      ---       uart_callback
      00FF94B5H   LINE      CODE     ---       #97
      00FF94B5H   LINE      CODE     ---       #99
      00FF94BBH   LINE      CODE     ---       #100
      00FF94BFH   LINE      CODE     ---       #102
      00FF94C4H   LINE      CODE     ---       #103
      00FF94C6H   LINE      CODE     ---       #104
      00FF94CCH   LINE      CODE     ---       #106
      00FF94D1H   LINE      CODE     ---       #107
      00FF94D3H   LINE      CODE     ---       #108
      00FF94D9H   LINE      CODE     ---       #110
      00FF94DEH   LINE      CODE     ---       #111
      00FF94E0H   LINE      CODE     ---       #112
      00FF94E6H   LINE      CODE     ---       #114
      00FF94EEH   LINE      CODE     ---       #115
      ---         BLOCKEND  ---      ---       LVL=0

      ---         MODULE    ---      ---       zf_device_tft180
      00010E55H   PUBLIC    XDATA    WORD      tft180_pencolor
      00010E57H   PUBLIC    XDATA    WORD      tft180_bgcolor
      00010E59H   PUBLIC    XDATA    INT       tft180_display_dir
      00010E5BH   PUBLIC    XDATA    BYTE      tft180_x_max
      00010E5CH   PUBLIC    XDATA    BYTE      tft180_y_max
      000000D0H   SFRSYM    DATA     BYTE      PSW
      0000009DH   SFRSYM    DATA     BYTE      IRCBAND
      00000097H   SFRSYM    DATA     BYTE      AUXR2
      000000EFH   SFRSYM    DATA     BYTE      AUXINTIF
      000000FDH   SFRSYM    DATA     BYTE      S4CON
      000000ACH   SFRSYM    DATA     BYTE      S3CON
      0000009AH   SFRSYM    DATA     BYTE      S2CON
      000000B7H   SFRSYM    DATA     BYTE      IPH
      000000CDH   SFRSYM    DATA     BYTE      SPSTAT
      000000DDH   SFRSYM    DATA     BYTE      T4T3M
      000000C1H   SFRSYM    DATA     BYTE      WDT_CONTR
      000000DFH   SFRSYM    DATA     BYTE      IP3
      000000F4H   SFRSYM    DATA     BYTE      USBCON
      000000B5H   SFRSYM    DATA     BYTE      IP2
      000000FFH   SFRSYM    DATA     BYTE      RSTCFG
      000000C7H   SFRSYM    DATA     BYTE      IAP_CONTR
L251 LINKER/LOCATER V4.66.93.0                                                        02/28/2025  00:29:39  PAGE 80


      0000008EH   SFRSYM    DATA     BYTE      AUXR
      000000AFH   SFRSYM    DATA     BYTE      IE2
      00000088H   SFRSYM    DATA     BYTE      TCON
      00000089H   SFRSYM    DATA     BYTE      TMOD
      00000098H   SFRSYM    DATA     BYTE      SCON
      000000A0H.2 SFRSYM    DATA     BIT       P22
      000000A0H.1 SFRSYM    DATA     BIT       P21
      000000A0H.0 SFRSYM    DATA     BIT       P20
      00000087H   SFRSYM    DATA     BYTE      PCON
      000000BCH   SFRSYM    DATA     BYTE      ADC_CONTR
      000000D1H   SFRSYM    DATA     BYTE      PSW1
      000000E7H   SFRSYM    DATA     BYTE      CMPCR2
      000000E6H   SFRSYM    DATA     BYTE      CMPCR1
      000000DEH   SFRSYM    DATA     BYTE      ADCCFG
      000000B8H   SFRSYM    DATA     BYTE      IP
      0000008FH   SFRSYM    DATA     BYTE      INTCLKO
      000000EEH   SFRSYM    DATA     BYTE      IP3H
      000000B6H   SFRSYM    DATA     BYTE      IP2H
      000000BFH   SFRSYM    DATA     BYTE      P_SW4
      000000A8H   SFRSYM    DATA     BYTE      IE
      000000BBH   SFRSYM    DATA     BYTE      P_SW3
      000000BAH   SFRSYM    DATA     BYTE      P_SW2
      000000A2H   SFRSYM    DATA     BYTE      P_SW1
      000000CEH   SFRSYM    DATA     BYTE      SPCTL
      000000F8H   SFRSYM    DATA     BYTE      P7
      000000E8H   SFRSYM    DATA     BYTE      P6
      000000C8H   SFRSYM    DATA     BYTE      P5
      000000C0H   SFRSYM    DATA     BYTE      P4
      000000ABH   SFRSYM    DATA     BYTE      WKTCH
      000000B0H   SFRSYM    DATA     BYTE      P3
      000000A0H   SFRSYM    DATA     BYTE      P2
      00000090H   SFRSYM    DATA     BYTE      P1
      00000080H   SFRSYM    DATA     BYTE      P0
      00FF80B4H   SYMBOL    CODE     ---       tft180_set_region
      00FF9815H   SYMBOL    CODE     ---       tft180_write_index

      00FF9815H   BLOCK     CODE     ---       LVL=0
      R5          REGSYM    ---      BYTE      dat
      00FF9815H   LINE      CODE     ---       #80
      00FF9815H   LINE      CODE     ---       #82
      00FF9817H   LINE      CODE     ---       #83
      00FF9819H   LINE      CODE     ---       #84
      00FF981BH   LINE      CODE     ---       #85
      00FF9820H   LINE      CODE     ---       #86
      00FF9822H   LINE      CODE     ---       #87
      00FF9824H   LINE      CODE     ---       #88
      00FF9826H   LINE      CODE     ---       #89
      ---         BLOCKEND  ---      ---       LVL=0

      00FF80B4H   BLOCK     CODE     ---       LVL=0
      00010E7BH   SYMBOL    XDATA    WORD      x1
      00010E7DH   SYMBOL    XDATA    WORD      y1
      WR12        REGSYM    ---      WORD      x2
      WR14        REGSYM    ---      WORD      y2
      00FF80B4H   LINE      CODE     ---       #100
      00FF80C6H   LINE      CODE     ---       #107
      00FF80D6H   LINE      CODE     ---       #109
      00FF80DBH   LINE      CODE     ---       #110
      00FF80E8H   LINE      CODE     ---       #111
      00FF80F1H   LINE      CODE     ---       #113
      00FF80F6H   LINE      CODE     ---       #114
      00FF8103H   LINE      CODE     ---       #115
      00FF8109H   LINE      CODE     ---       #116
      00FF810BH   LINE      CODE     ---       #119
      00FF8110H   LINE      CODE     ---       #120
L251 LINKER/LOCATER V4.66.93.0                                                        02/28/2025  00:29:39  PAGE 81


      00FF811DH   LINE      CODE     ---       #121
      00FF8126H   LINE      CODE     ---       #123
      00FF812BH   LINE      CODE     ---       #124
      00FF8138H   LINE      CODE     ---       #125
      00FF8141H   LINE      CODE     ---       #126
      00FF8141H   LINE      CODE     ---       #127
      00FF8146H   LINE      CODE     ---       #128
      ---         BLOCKEND  ---      ---       LVL=0
      WR14        REGSYM    ---      WORD      color
      WR6         REGSYM    ---      INT       dir
      WR6         REGSYM    ---      WORD      pen
      WR4         REGSYM    ---      WORD      bgcolor
      WR2         REGSYM    ---      WORD      x
      WR0         REGSYM    ---      WORD      y
      WR14        REGSYM    ---      WORD      color
      WR12        REGSYM    ---      WORD      x
      WR14        REGSYM    ---      WORD      y
      REG=3       REGSYM    ---      ---       dat
      WR12        REGSYM    ---      WORD      x
      WR14        REGSYM    ---      WORD      y
      WR12        REGSYM    ---      WORD      x
      WR14        REGSYM    ---      WORD      y
      R3          REGSYM    ---      BYTE      dat
      WR12        REGSYM    ---      WORD      x
      WR14        REGSYM    ---      WORD      y
      WR12        REGSYM    ---      WORD      x
      WR14        REGSYM    ---      WORD      y
      WR2         REGSYM    ---      WORD      dat
      WR12        REGSYM    ---      WORD      y
      R15         REGSYM    ---      BYTE      num
      R14         REGSYM    ---      BYTE      length
      WR12        REGSYM    ---      WORD      y
      R14         REGSYM    ---      BYTE      num
      R15         REGSYM    ---      BYTE      pointnum
      R10         REGSYM    ---      CHAR      point
      REG=3       REGSYM    ---      ---       p

      ---         MODULE    ---      ---       zf_device_ips114
      00010E5DH   PUBLIC    XDATA    WORD      ips114_pencolor
      00010E5FH   PUBLIC    XDATA    WORD      ips114_bgcolor
      00010E61H   PUBLIC    XDATA    INT       ips114_display_dir
      00010E63H   PUBLIC    XDATA    BYTE      ips114_x_max
      00010E64H   PUBLIC    XDATA    BYTE      ips114_y_max
      000000D0H   SFRSYM    DATA     BYTE      PSW
      0000009DH   SFRSYM    DATA     BYTE      IRCBAND
      00000097H   SFRSYM    DATA     BYTE      AUXR2
      000000EFH   SFRSYM    DATA     BYTE      AUXINTIF
      000000FDH   SFRSYM    DATA     BYTE      S4CON
      000000ACH   SFRSYM    DATA     BYTE      S3CON
      0000009AH   SFRSYM    DATA     BYTE      S2CON
      000000B7H   SFRSYM    DATA     BYTE      IPH
      000000CDH   SFRSYM    DATA     BYTE      SPSTAT
      000000DDH   SFRSYM    DATA     BYTE      T4T3M
      000000C1H   SFRSYM    DATA     BYTE      WDT_CONTR
      000000DFH   SFRSYM    DATA     BYTE      IP3
      000000F4H   SFRSYM    DATA     BYTE      USBCON
      000000B5H   SFRSYM    DATA     BYTE      IP2
      000000FFH   SFRSYM    DATA     BYTE      RSTCFG
      000000C7H   SFRSYM    DATA     BYTE      IAP_CONTR
      0000008EH   SFRSYM    DATA     BYTE      AUXR
      000000AFH   SFRSYM    DATA     BYTE      IE2
      00000088H   SFRSYM    DATA     BYTE      TCON
      00000089H   SFRSYM    DATA     BYTE      TMOD
      00000098H   SFRSYM    DATA     BYTE      SCON
      000000A0H.2 SFRSYM    DATA     BIT       P22
L251 LINKER/LOCATER V4.66.93.0                                                        02/28/2025  00:29:39  PAGE 82


      000000A0H.1 SFRSYM    DATA     BIT       P21
      000000A0H.0 SFRSYM    DATA     BIT       P20
      00000087H   SFRSYM    DATA     BYTE      PCON
      000000BCH   SFRSYM    DATA     BYTE      ADC_CONTR
      000000D1H   SFRSYM    DATA     BYTE      PSW1
      000000E7H   SFRSYM    DATA     BYTE      CMPCR2
      000000E6H   SFRSYM    DATA     BYTE      CMPCR1
      000000DEH   SFRSYM    DATA     BYTE      ADCCFG
      000000B8H   SFRSYM    DATA     BYTE      IP
      0000008FH   SFRSYM    DATA     BYTE      INTCLKO
      000000EEH   SFRSYM    DATA     BYTE      IP3H
      000000B6H   SFRSYM    DATA     BYTE      IP2H
      000000BFH   SFRSYM    DATA     BYTE      P_SW4
      000000A8H   SFRSYM    DATA     BYTE      IE
      000000BBH   SFRSYM    DATA     BYTE      P_SW3
      000000BAH   SFRSYM    DATA     BYTE      P_SW2
      000000A2H   SFRSYM    DATA     BYTE      P_SW1
      000000CEH   SFRSYM    DATA     BYTE      SPCTL
      000000F8H   SFRSYM    DATA     BYTE      P7
      000000E8H   SFRSYM    DATA     BYTE      P6
      000000C8H   SFRSYM    DATA     BYTE      P5
      000000C0H   SFRSYM    DATA     BYTE      P4
      000000ABH   SFRSYM    DATA     BYTE      WKTCH
      000000B0H   SFRSYM    DATA     BYTE      P3
      000000A0H   SFRSYM    DATA     BYTE      P2
      00000090H   SFRSYM    DATA     BYTE      P1
      00000080H   SFRSYM    DATA     BYTE      P0
      00FF9827H   SYMBOL    CODE     ---       ips114_write_index

      00FF9827H   BLOCK     CODE     ---       LVL=0
      R5          REGSYM    ---      BYTE      dat
      00FF9827H   LINE      CODE     ---       #66
      00FF9827H   LINE      CODE     ---       #68
      00FF9829H   LINE      CODE     ---       #69
      00FF982BH   LINE      CODE     ---       #70
      00FF982DH   LINE      CODE     ---       #71
      00FF9832H   LINE      CODE     ---       #72
      00FF9834H   LINE      CODE     ---       #73
      00FF9836H   LINE      CODE     ---       #74
      00FF9838H   LINE      CODE     ---       #75
      ---         BLOCKEND  ---      ---       LVL=0
      WR12        REGSYM    ---      WORD      x2
      WR14        REGSYM    ---      WORD      y2
      WR14        REGSYM    ---      WORD      color
      WR12        REGSYM    ---      WORD      i
      WR6         REGSYM    ---      INT       dir
      WR6         REGSYM    ---      WORD      pen
      WR4         REGSYM    ---      WORD      bgcolor
      WR2         REGSYM    ---      WORD      x
      WR0         REGSYM    ---      WORD      y
      WR14        REGSYM    ---      WORD      color
      WR12        REGSYM    ---      WORD      x
      WR14        REGSYM    ---      WORD      y
      REG=3       REGSYM    ---      ---       dat
      WR12        REGSYM    ---      WORD      x
      WR14        REGSYM    ---      WORD      y
      WR12        REGSYM    ---      WORD      x
      WR14        REGSYM    ---      WORD      y
      R3          REGSYM    ---      BYTE      dat
      WR12        REGSYM    ---      WORD      x
      WR14        REGSYM    ---      WORD      y
      WR12        REGSYM    ---      WORD      x
      WR14        REGSYM    ---      WORD      y
      WR2         REGSYM    ---      WORD      dat
      WR12        REGSYM    ---      WORD      y
L251 LINKER/LOCATER V4.66.93.0                                                        02/28/2025  00:29:39  PAGE 83


      R15         REGSYM    ---      BYTE      num
      R14         REGSYM    ---      BYTE      length
      WR12        REGSYM    ---      WORD      y
      R14         REGSYM    ---      BYTE      num
      R15         REGSYM    ---      BYTE      pointnum
      R10         REGSYM    ---      CHAR      point
      REG=3       REGSYM    ---      ---       p
      WR2         REGSYM    ---      WORD      x
      WR8         REGSYM    ---      WORD      y
      REG=3       REGSYM    ---      ---       p

      ---         MODULE    ---      ---       zf_device_ips200
      00FF6F70H   PUBLIC    CODE     ---       ips200_show_float
      00FF8AB8H   PUBLIC    CODE     ---       ips200_show_string
      00FF82FBH   PUBLIC    CODE     ---       ips200_show_char
      00FF000EH   PUBLIC    CODE     ---       ips200_set_color
      00FF0003H   PUBLIC    CODE     ---       ips200_set_dir
      00FF8149H   PUBLIC    CODE     ---       ips200_myclear
      00FF8BC1H   PUBLIC    CODE     ---       ips200_clear
      00FF6138H   PUBLIC    CODE     ---       ips200_init
      00010E0DH   PUBLIC    XDATA    WORD      ips200_pencolor
      00010E0FH   PUBLIC    XDATA    WORD      ips200_bgcolor
      00010E11H   PUBLIC    XDATA    INT       ips200_display_dir
      00010E13H   PUBLIC    XDATA    WORD      ips200_x_max
      00010E15H   PUBLIC    XDATA    WORD      ips200_y_max
      00010AB9H   PUBLIC    XDATA    BYTE      ?ips200_show_float?BYTE
      000000D0H   SFRSYM    DATA     BYTE      PSW
      0000009DH   SFRSYM    DATA     BYTE      IRCBAND
      00000097H   SFRSYM    DATA     BYTE      AUXR2
      000000EFH   SFRSYM    DATA     BYTE      AUXINTIF
      000000FDH   SFRSYM    DATA     BYTE      S4CON
      000000ACH   SFRSYM    DATA     BYTE      S3CON
      0000009AH   SFRSYM    DATA     BYTE      S2CON
      000000B7H   SFRSYM    DATA     BYTE      IPH
      000000CDH   SFRSYM    DATA     BYTE      SPSTAT
      000000DDH   SFRSYM    DATA     BYTE      T4T3M
      000000C1H   SFRSYM    DATA     BYTE      WDT_CONTR
      000000DFH   SFRSYM    DATA     BYTE      IP3
      000000F4H   SFRSYM    DATA     BYTE      USBCON
      000000B5H   SFRSYM    DATA     BYTE      IP2
      000000FFH   SFRSYM    DATA     BYTE      RSTCFG
      000000C7H   SFRSYM    DATA     BYTE      IAP_CONTR
      0000008EH   SFRSYM    DATA     BYTE      AUXR
      000000AFH   SFRSYM    DATA     BYTE      IE2
      00000088H   SFRSYM    DATA     BYTE      TCON
      00000089H   SFRSYM    DATA     BYTE      TMOD
      00000098H   SFRSYM    DATA     BYTE      SCON
      000000A0H.2 SFRSYM    DATA     BIT       P22
      000000A0H.1 SFRSYM    DATA     BIT       P21
      000000A0H.0 SFRSYM    DATA     BIT       P20
      00000087H   SFRSYM    DATA     BYTE      PCON
      000000BCH   SFRSYM    DATA     BYTE      ADC_CONTR
      000000D1H   SFRSYM    DATA     BYTE      PSW1
      000000E7H   SFRSYM    DATA     BYTE      CMPCR2
      000000E6H   SFRSYM    DATA     BYTE      CMPCR1
      000000DEH   SFRSYM    DATA     BYTE      ADCCFG
      000000B8H   SFRSYM    DATA     BYTE      IP
      0000008FH   SFRSYM    DATA     BYTE      INTCLKO
      000000EEH   SFRSYM    DATA     BYTE      IP3H
      000000B6H   SFRSYM    DATA     BYTE      IP2H
      000000BFH   SFRSYM    DATA     BYTE      P_SW4
      000000A8H   SFRSYM    DATA     BYTE      IE
      000000BBH   SFRSYM    DATA     BYTE      P_SW3
      000000BAH   SFRSYM    DATA     BYTE      P_SW2
      000000A2H   SFRSYM    DATA     BYTE      P_SW1
L251 LINKER/LOCATER V4.66.93.0                                                        02/28/2025  00:29:39  PAGE 84


      000000CEH   SFRSYM    DATA     BYTE      SPCTL
      000000F8H   SFRSYM    DATA     BYTE      P7
      000000E8H   SFRSYM    DATA     BYTE      P6
      000000C8H   SFRSYM    DATA     BYTE      P5
      000000C0H   SFRSYM    DATA     BYTE      P4
      000000ABH   SFRSYM    DATA     BYTE      WKTCH
      000000B0H   SFRSYM    DATA     BYTE      P3
      000000A0H   SFRSYM    DATA     BYTE      P2
      00000090H   SFRSYM    DATA     BYTE      P1
      00000080H   SFRSYM    DATA     BYTE      P0
      00FF9839H   SYMBOL    CODE     ---       ips200_write_index
      00FF8F7CH   SYMBOL    CODE     ---       ips200_set_region

      00FF9839H   BLOCK     CODE     ---       LVL=0
      R5          REGSYM    ---      BYTE      dat
      00FF9839H   LINE      CODE     ---       #69
      00FF9839H   LINE      CODE     ---       #71
      00FF983BH   LINE      CODE     ---       #72
      00FF983DH   LINE      CODE     ---       #73
      00FF983FH   LINE      CODE     ---       #74
      00FF9844H   LINE      CODE     ---       #75
      00FF9846H   LINE      CODE     ---       #76
      00FF9848H   LINE      CODE     ---       #77
      00FF984AH   LINE      CODE     ---       #78
      ---         BLOCKEND  ---      ---       LVL=0

      00FF8F7CH   BLOCK     CODE     ---       LVL=0
      00010AF6H   SYMBOL    XDATA    WORD      x1
      00010AF8H   SYMBOL    XDATA    WORD      y1
      WR12        REGSYM    ---      WORD      x2
      WR14        REGSYM    ---      WORD      y2
      00FF8F7CH   LINE      CODE     ---       #89
      00FF8F8EH   LINE      CODE     ---       #97
      00FF8F93H   LINE      CODE     ---       #98
      00FF8F9EH   LINE      CODE     ---       #99
      00FF8FA5H   LINE      CODE     ---       #100
      00FF8FAAH   LINE      CODE     ---       #101
      00FF8FB5H   LINE      CODE     ---       #102
      00FF8FBCH   LINE      CODE     ---       #103
      00FF8FC1H   LINE      CODE     ---       #105
      ---         BLOCKEND  ---      ---       LVL=0

      00FF8BC1H   BLOCK     CODE     ---       LVL=0
      WR14        REGSYM    ---      WORD      color
      00FF8BC5H   BLOCK     CODE     NEAR LAB  LVL=1
      WR12        REGSYM    ---      WORD      i
      00010ABBH   SYMBOL    XDATA    WORD      j
      ---         BLOCKEND  ---      ---       LVL=1
      00FF8BC1H   LINE      CODE     ---       #113
      00FF8BC5H   LINE      CODE     ---       #114
      00FF8BC5H   LINE      CODE     ---       #116
      00FF8BDCH   LINE      CODE     ---       #118
      00FF8BE0H   LINE      CODE     ---       #120
      00FF8BE7H   LINE      CODE     ---       #122
      00FF8BEEH   LINE      CODE     ---       #123
      00FF8C09H   LINE      CODE     ---       #124
      00FF8C15H   LINE      CODE     ---       #126
      ---         BLOCKEND  ---      ---       LVL=0

      00FF8149H   BLOCK     CODE     ---       LVL=0
      00010ABBH   SYMBOL    XDATA    WORD      x
      WR12        REGSYM    ---      WORD      y
      WR14        REGSYM    ---      WORD      size
      00FF8155H   BLOCK     CODE     NEAR LAB  LVL=1
      00010ABDH   SYMBOL    XDATA    WORD      i
L251 LINKER/LOCATER V4.66.93.0                                                        02/28/2025  00:29:39  PAGE 85


      00010ABFH   SYMBOL    XDATA    WORD      j
      ---         BLOCKEND  ---      ---       LVL=1
      00FF8149H   LINE      CODE     ---       #132
      00FF8155H   LINE      CODE     ---       #133
      00FF8155H   LINE      CODE     ---       #135
      00FF8178H   LINE      CODE     ---       #137
      00FF8183H   LINE      CODE     ---       #139
      00FF818BH   LINE      CODE     ---       #141
      00FF8194H   LINE      CODE     ---       #142
      00FF81B5H   LINE      CODE     ---       #143
      00FF81DAH   LINE      CODE     ---       #144
      ---         BLOCKEND  ---      ---       LVL=0

      00FF0003H   BLOCK     CODE     ---       LVL=0
      WR6         REGSYM    ---      INT       dir
      00FF0003H   LINE      CODE     ---       #152
      00FF0003H   LINE      CODE     ---       #154
      00FF0009H   LINE      CODE     ---       #165
      ---         BLOCKEND  ---      ---       LVL=0

      00FF000EH   BLOCK     CODE     ---       LVL=0
      WR6         REGSYM    ---      WORD      pen
      WR4         REGSYM    ---      WORD      bgcolor
      00FF000EH   LINE      CODE     ---       #174
      00FF000EH   LINE      CODE     ---       #176
      00FF0014H   LINE      CODE     ---       #177
      00FF001AH   LINE      CODE     ---       #178
      ---         BLOCKEND  ---      ---       LVL=0
      WR2         REGSYM    ---      WORD      x
      WR0         REGSYM    ---      WORD      y
      WR14        REGSYM    ---      WORD      color

      00FF82FBH   BLOCK     CODE     ---       LVL=0
      WR12        REGSYM    ---      WORD      x
      WR14        REGSYM    ---      WORD      y
      00010AF2H   SYMBOL    XDATA    CHAR      dat
      00FF8305H   BLOCK     CODE     NEAR LAB  LVL=1
      00010AF3H   SYMBOL    XDATA    BYTE      i
      00010AF4H   SYMBOL    XDATA    BYTE      j
      00010AF5H   SYMBOL    XDATA    BYTE      temp
      ---         BLOCKEND  ---      ---       LVL=1
      00FF82FBH   LINE      CODE     ---       #205
      00FF8305H   LINE      CODE     ---       #206
      00FF8305H   LINE      CODE     ---       #213
      00FF830AH   LINE      CODE     ---       #215
      00FF831FH   LINE      CODE     ---       #216
      00FF8345H   LINE      CODE     ---       #217
      00FF834AH   LINE      CODE     ---       #219
      00FF8351H   LINE      CODE     ---       #220
      00FF8358H   LINE      CODE     ---       #222
      00FF8363H   LINE      CODE     ---       #223
      00FF836AH   LINE      CODE     ---       #224
      00FF8377H   LINE      CODE     ---       #225
      00FF8386H   LINE      CODE     ---       #226
      ---         BLOCKEND  ---      ---       LVL=0

      00FF8AB8H   BLOCK     CODE     ---       LVL=0
      00010AECH   SYMBOL    XDATA    WORD      x
      00010AEEH   SYMBOL    XDATA    WORD      y
      REG=3       REGSYM    ---      ---       dat
      00FF8AC8H   BLOCK     CODE     NEAR LAB  LVL=1
      00010AF0H   SYMBOL    XDATA    WORD      j
      ---         BLOCKEND  ---      ---       LVL=1
      00FF8AB8H   LINE      CODE     ---       #236
      00FF8AC8H   LINE      CODE     ---       #237
L251 LINKER/LOCATER V4.66.93.0                                                        02/28/2025  00:29:39  PAGE 86


      00FF8AC8H   LINE      CODE     ---       #241
      00FF8ACDH   LINE      CODE     ---       #242
      00FF8ACFH   LINE      CODE     ---       #244
      00FF8AF5H   LINE      CODE     ---       #245
      00FF8B00H   LINE      CODE     ---       #246
      00FF8B0FH   LINE      CODE     ---       #247
      ---         BLOCKEND  ---      ---       LVL=0
      WR12        REGSYM    ---      WORD      x
      WR14        REGSYM    ---      WORD      y
      WR12        REGSYM    ---      WORD      x
      WR14        REGSYM    ---      WORD      y
      R3          REGSYM    ---      BYTE      dat
      WR12        REGSYM    ---      WORD      x
      WR14        REGSYM    ---      WORD      y
      WR12        REGSYM    ---      WORD      x
      WR14        REGSYM    ---      WORD      y
      WR2         REGSYM    ---      WORD      dat
      WR12        REGSYM    ---      WORD      y
      R15         REGSYM    ---      BYTE      num
      R14         REGSYM    ---      BYTE      length

      00FF6F70H   BLOCK     CODE     ---       LVL=0
      00010ABBH   SYMBOL    XDATA    WORD      x
      WR12        REGSYM    ---      WORD      y
      00010ABDH   SYMBOL    XDATA    DOUBLE    dat
      R14         REGSYM    ---      BYTE      num
      R15         REGSYM    ---      BYTE      pointnum
      00FF6F7EH   BLOCK     CODE     NEAR LAB  LVL=1
      00010AC7H   SYMBOL    XDATA    BYTE      length
      00010AC8H   SYMBOL    XDATA    ---       buff
      00010AEAH   SYMBOL    XDATA    CHAR      start
      00010AEBH   SYMBOL    XDATA    CHAR      end
      R10         REGSYM    ---      CHAR      point
      ---         BLOCKEND  ---      ---       LVL=1
      00FF6F70H   LINE      CODE     ---       #430
      00FF6F7EH   LINE      CODE     ---       #431
      00FF6F7EH   LINE      CODE     ---       #439
      00FF6F86H   LINE      CODE     ---       #440
      00FF6F8EH   LINE      CODE     ---       #442
      00FF6FDAH   LINE      CODE     ---       #445
      00FF7017H   LINE      CODE     ---       #446
      00FF701CH   LINE      CODE     ---       #447
      00FF701CH   LINE      CODE     ---       #448
      00FF7028H   LINE      CODE     ---       #449
      00FF7036H   LINE      CODE     ---       #450
      00FF7042H   LINE      CODE     ---       #451
      00FF7047H   LINE      CODE     ---       #453
      00FF705AH   LINE      CODE     ---       #454
      00FF7060H   LINE      CODE     ---       #455
      00FF7066H   LINE      CODE     ---       #456
      00FF7071H   LINE      CODE     ---       #458
      00FF7090H   LINE      CODE     ---       #459
      00FF709FH   LINE      CODE     ---       #461
      00FF70B4H   LINE      CODE     ---       #463
      00FF70C7H   LINE      CODE     ---       #464
      ---         BLOCKEND  ---      ---       LVL=0
      REG=3       REGSYM    ---      ---       p
      WR2         REGSYM    ---      WORD      x
      WR8         REGSYM    ---      WORD      y
      REG=3       REGSYM    ---      ---       p

      00FF6138H   BLOCK     CODE     ---       LVL=0
      00FF6138H   LINE      CODE     ---       #555
      00FF613AH   LINE      CODE     ---       #562
      00FF616DH   LINE      CODE     ---       #570
L251 LINKER/LOCATER V4.66.93.0                                                        02/28/2025  00:29:39  PAGE 87


      00FF6176H   LINE      CODE     ---       #571
      00FF6185H   LINE      CODE     ---       #573
      00FF6187H   LINE      CODE     ---       #574
      00FF618EH   LINE      CODE     ---       #576
      00FF6190H   LINE      CODE     ---       #577
      00FF6197H   LINE      CODE     ---       #579
      00FF619CH   LINE      CODE     ---       #580
      00FF61A3H   LINE      CODE     ---       #581
      00FF61B2H   LINE      CODE     ---       #582
      00FF61BEH   LINE      CODE     ---       #583
      00FF61CAH   LINE      CODE     ---       #584
      00FF61D1H   LINE      CODE     ---       #586
      00FF61D6H   LINE      CODE     ---       #587
      00FF61DDH   LINE      CODE     ---       #589
      00FF61E2H   LINE      CODE     ---       #590
      00FF61E9H   LINE      CODE     ---       #591
      00FF61F0H   LINE      CODE     ---       #592
      00FF61F6H   LINE      CODE     ---       #593
      00FF61FDH   LINE      CODE     ---       #594
      00FF6204H   LINE      CODE     ---       #596
      00FF6209H   LINE      CODE     ---       #597
      00FF6210H   LINE      CODE     ---       #599
      00FF6215H   LINE      CODE     ---       #600
      00FF621CH   LINE      CODE     ---       #602
      00FF6221H   LINE      CODE     ---       #603
      00FF6228H   LINE      CODE     ---       #605
      00FF622DH   LINE      CODE     ---       #606
      00FF6234H   LINE      CODE     ---       #608
      00FF6239H   LINE      CODE     ---       #609
      00FF6240H   LINE      CODE     ---       #611
      00FF6245H   LINE      CODE     ---       #612
      00FF624CH   LINE      CODE     ---       #614
      00FF6251H   LINE      CODE     ---       #615
      00FF6258H   LINE      CODE     ---       #617
      00FF625DH   LINE      CODE     ---       #618
      00FF6264H   LINE      CODE     ---       #619
      00FF626BH   LINE      CODE     ---       #621
      00FF6270H   LINE      CODE     ---       #622
      00FF6277H   LINE      CODE     ---       #623
      00FF627EH   LINE      CODE     ---       #624
      00FF6285H   LINE      CODE     ---       #625
      00FF628CH   LINE      CODE     ---       #626
      00FF6293H   LINE      CODE     ---       #627
      00FF629AH   LINE      CODE     ---       #628
      00FF62A1H   LINE      CODE     ---       #629
      00FF62A8H   LINE      CODE     ---       #630
      00FF62AFH   LINE      CODE     ---       #631
      00FF62B6H   LINE      CODE     ---       #632
      00FF62BDH   LINE      CODE     ---       #633
      00FF62C4H   LINE      CODE     ---       #634
      00FF62CBH   LINE      CODE     ---       #635
      00FF62D2H   LINE      CODE     ---       #637
      00FF62D7H   LINE      CODE     ---       #638
      00FF62DEH   LINE      CODE     ---       #639
      00FF62E5H   LINE      CODE     ---       #640
      00FF62ECH   LINE      CODE     ---       #641
      00FF62F3H   LINE      CODE     ---       #642
      00FF62FAH   LINE      CODE     ---       #643
      00FF6301H   LINE      CODE     ---       #644
      00FF6308H   LINE      CODE     ---       #645
      00FF630FH   LINE      CODE     ---       #646
      00FF6316H   LINE      CODE     ---       #647
      00FF631DH   LINE      CODE     ---       #648
      00FF6324H   LINE      CODE     ---       #649
      00FF632BH   LINE      CODE     ---       #650
L251 LINKER/LOCATER V4.66.93.0                                                        02/28/2025  00:29:39  PAGE 88


      00FF6332H   LINE      CODE     ---       #651
      00FF6339H   LINE      CODE     ---       #653
      00FF633EH   LINE      CODE     ---       #655
      00FF6343H   LINE      CODE     ---       #656
      00FF634AH   LINE      CODE     ---       #658
      00FF634FH   LINE      CODE     ---       #660
      00FF6358H   LINE      CODE     ---       #661
      ---         BLOCKEND  ---      ---       LVL=0

      ---         MODULE    ---      ---       zf_device_dl1a
      00010DCFH   PUBLIC    XDATA    WORD      dl1a_distance_mm
      00010DD1H   PUBLIC    XDATA    BYTE      dl1a_finsh_flag
      000000D0H   SFRSYM    DATA     BYTE      PSW
      0000009DH   SFRSYM    DATA     BYTE      IRCBAND
      00000097H   SFRSYM    DATA     BYTE      AUXR2
      000000EFH   SFRSYM    DATA     BYTE      AUXINTIF
      000000FDH   SFRSYM    DATA     BYTE      S4CON
      000000ACH   SFRSYM    DATA     BYTE      S3CON
      0000009AH   SFRSYM    DATA     BYTE      S2CON
      000000B7H   SFRSYM    DATA     BYTE      IPH
      000000CDH   SFRSYM    DATA     BYTE      SPSTAT
      000000DDH   SFRSYM    DATA     BYTE      T4T3M
      000000C1H   SFRSYM    DATA     BYTE      WDT_CONTR
      000000DFH   SFRSYM    DATA     BYTE      IP3
      000000F4H   SFRSYM    DATA     BYTE      USBCON
      000000B5H   SFRSYM    DATA     BYTE      IP2
      000000FFH   SFRSYM    DATA     BYTE      RSTCFG
      000000C7H   SFRSYM    DATA     BYTE      IAP_CONTR
      0000008EH   SFRSYM    DATA     BYTE      AUXR
      000000AFH   SFRSYM    DATA     BYTE      IE2
      00000088H   SFRSYM    DATA     BYTE      TCON
      00000089H   SFRSYM    DATA     BYTE      TMOD
      00000098H   SFRSYM    DATA     BYTE      SCON
      00000087H   SFRSYM    DATA     BYTE      PCON
      000000BCH   SFRSYM    DATA     BYTE      ADC_CONTR
      000000D1H   SFRSYM    DATA     BYTE      PSW1
      000000E7H   SFRSYM    DATA     BYTE      CMPCR2
      000000E6H   SFRSYM    DATA     BYTE      CMPCR1
      000000DEH   SFRSYM    DATA     BYTE      ADCCFG
      000000B8H   SFRSYM    DATA     BYTE      IP
      0000008FH   SFRSYM    DATA     BYTE      INTCLKO
      000000EEH   SFRSYM    DATA     BYTE      IP3H
      000000B6H   SFRSYM    DATA     BYTE      IP2H
      000000BFH   SFRSYM    DATA     BYTE      P_SW4
      000000A8H   SFRSYM    DATA     BYTE      IE
      000000BBH   SFRSYM    DATA     BYTE      P_SW3
      000000BAH   SFRSYM    DATA     BYTE      P_SW2
      000000A2H   SFRSYM    DATA     BYTE      P_SW1
      000000CEH   SFRSYM    DATA     BYTE      SPCTL
      000000F8H   SFRSYM    DATA     BYTE      P7
      000000E8H   SFRSYM    DATA     BYTE      P6
      000000C8H   SFRSYM    DATA     BYTE      P5
      000000C0H   SFRSYM    DATA     BYTE      P4
      000000ABH   SFRSYM    DATA     BYTE      WKTCH
      000000B0H   SFRSYM    DATA     BYTE      P3
      000000A0H   SFRSYM    DATA     BYTE      P2
      00000090H   SFRSYM    DATA     BYTE      P1
      00000080H   SFRSYM    DATA     BYTE      P0
      00FF9F7EH   SYMBOL    HCONST   ---       ?tpl?0001
      00FF9F86H   SYMBOL    HCONST   ---       ?tpl?0002
      00FF9F8CH   SYMBOL    HCONST   ---       ?tpl?0003
      00FF9F96H   SYMBOL    HCONST   ---       ?tpl?0004
      00FF9402H   SYMBOL    CODE     ---       dl1a_timeout_microseconds_to_mclks
      00FF91D9H   SYMBOL    CODE     ---       dl1a_timeout_mclks_to_microseconds
      00FF986BH   SYMBOL    CODE     ---       dl1a_decode_timeout
L251 LINKER/LOCATER V4.66.93.0                                                        02/28/2025  00:29:39  PAGE 89


      00FF95CDH   SYMBOL    CODE     ---       dl1a_encode_timeout
      00FF88D5H   SYMBOL    CODE     ---       dl1a_get_sequence_step_enables
      00FF7219H   SYMBOL    CODE     ---       dl1a_get_sequence_step_timeouts
      00FF870EH   SYMBOL    CODE     ---       dl1a_get_vcsel_pulse_period
      00010DC6H   SYMBOL    XDATA    ---       dl1a_iic_struct
      00010DD2H   SYMBOL    XDATA    BYTE      dl1a_init_flag
      REG=3       REGSYM    ---      ---       type_is_aperture

      00FF91D9H   BLOCK     CODE     ---       LVL=0
      WR30        REGSYM    ---      WORD      timeout_period_mclks
      R5          REGSYM    ---      BYTE      vcsel_period_pclks
      00FF91DBH   BLOCK     CODE     NEAR LAB  LVL=1
      DR24        REGSYM    ---      DWORD     macro_period_ns
      ---         BLOCKEND  ---      ---       LVL=1
      00FF91D9H   LINE      CODE     ---       #168
      00FF91DBH   LINE      CODE     ---       #169
      00FF91DBH   LINE      CODE     ---       #170
      00FF91FCH   LINE      CODE     ---       #172
      ---         BLOCKEND  ---      ---       LVL=0

      00FF9402H   BLOCK     CODE     ---       LVL=0
      DR28        REGSYM    ---      DWORD     timeout_period_us
      R3          REGSYM    ---      BYTE      vcsel_period_pclks
      00FF9404H   BLOCK     CODE     NEAR LAB  LVL=1
      DR8         REGSYM    ---      DWORD     macro_period_ns
      ---         BLOCKEND  ---      ---       LVL=1
      00FF9402H   LINE      CODE     ---       #183
      00FF9404H   LINE      CODE     ---       #184
      00FF9404H   LINE      CODE     ---       #185
      00FF9425H   LINE      CODE     ---       #187
      ---         BLOCKEND  ---      ---       LVL=0

      00FF986BH   BLOCK     CODE     ---       LVL=0
      WR4         REGSYM    ---      WORD      reg_val
      00FF986BH   LINE      CODE     ---       #197
      00FF986DH   LINE      CODE     ---       #200
      00FF987AH   LINE      CODE     ---       #202
      ---         BLOCKEND  ---      ---       LVL=0

      00FF95CDH   BLOCK     CODE     ---       LVL=0
      WR2         REGSYM    ---      WORD      timeout_mclks
      00FF95CFH   BLOCK     CODE     NEAR LAB  LVL=1
      DR8         REGSYM    ---      DWORD     ls_byte
      WR4         REGSYM    ---      WORD      ms_byte
      WR6         REGSYM    ---      WORD      return_data
      ---         BLOCKEND  ---      ---       LVL=1
      00FF95CDH   LINE      CODE     ---       #211
      00FF95CFH   LINE      CODE     ---       #212
      00FF95CFH   LINE      CODE     ---       #213
      00FF95CFH   LINE      CODE     ---       #214
      00FF95D3H   LINE      CODE     ---       #215
      00FF95D3H   LINE      CODE     ---       #217
      00FF95D9H   LINE      CODE     ---       #220
      00FF95DFH   LINE      CODE     ---       #222
      00FF95E1H   LINE      CODE     ---       #224
      00FF95EAH   LINE      CODE     ---       #225
      00FF95ECH   LINE      CODE     ---       #226
      00FF95F6H   LINE      CODE     ---       #228
      00FF9600H   LINE      CODE     ---       #229
      00FF9600H   LINE      CODE     ---       #231
      00FF9600H   LINE      CODE     ---       #232
      ---         BLOCKEND  ---      ---       LVL=0

      00FF88D5H   BLOCK     CODE     ---       LVL=0
      REG=3       REGSYM    ---      ---       enables
L251 LINKER/LOCATER V4.66.93.0                                                        02/28/2025  00:29:39  PAGE 90


      00FF88D9H   BLOCK     CODE     NEAR LAB  LVL=1
      00010E93H   SYMBOL    XDATA    BYTE      sequence_config
      ---         BLOCKEND  ---      ---       LVL=1
      00FF88D5H   LINE      CODE     ---       #241
      00FF88D9H   LINE      CODE     ---       #242
      00FF88D9H   LINE      CODE     ---       #243
      00FF88DEH   LINE      CODE     ---       #244
      00FF8901H   LINE      CODE     ---       #246
      00FF890FH   LINE      CODE     ---       #247
      00FF8919H   LINE      CODE     ---       #248
      00FF8925H   LINE      CODE     ---       #249
      00FF892FH   LINE      CODE     ---       #250
      00FF8938H   LINE      CODE     ---       #251
      ---         BLOCKEND  ---      ---       LVL=0

      00FF870EH   BLOCK     CODE     ---       LVL=0
      WR6         REGSYM    ---      INT       type
      00010E94H   SYMBOL    XDATA    BYTE      data_buffer
      00FF870EH   LINE      CODE     ---       #260
      00FF870EH   LINE      CODE     ---       #261
      00FF870EH   LINE      CODE     ---       #262
      00FF8713H   LINE      CODE     ---       #264
      00FF8717H   LINE      CODE     ---       #266
      00FF873AH   LINE      CODE     ---       #267
      00FF8744H   LINE      CODE     ---       #268
      00FF8746H   LINE      CODE     ---       #269
      00FF874CH   LINE      CODE     ---       #271
      00FF876FH   LINE      CODE     ---       #272
      00FF8779H   LINE      CODE     ---       #273
      00FF877BH   LINE      CODE     ---       #276
      00FF8781H   LINE      CODE     ---       #277
      00FF8781H   LINE      CODE     ---       #279
      00FF8785H   LINE      CODE     ---       #280
      ---         BLOCKEND  ---      ---       LVL=0

      00FF7219H   BLOCK     CODE     ---       LVL=0
      00010E65H   SYMBOL    XDATA    ---       enables
      REG=3       REGSYM    ---      ---       timeouts
      00FF7227H   BLOCK     CODE     NEAR LAB  LVL=1
      00010E69H   SYMBOL    XDATA    ---       reg_buffer
      00010E6BH   SYMBOL    XDATA    WORD      reg16_buffer
      ---         BLOCKEND  ---      ---       LVL=1
      00FF7219H   LINE      CODE     ---       #290
      00FF7227H   LINE      CODE     ---       #291
      00FF7227H   LINE      CODE     ---       #293
      00FF7227H   LINE      CODE     ---       #295
      00FF7231H   LINE      CODE     ---       #297
      00FF7254H   LINE      CODE     ---       #298
      00FF7260H   LINE      CODE     ---       #299
      00FF726EH   LINE      CODE     ---       #301
      00FF7291H   LINE      CODE     ---       #302
      00FF72A7H   LINE      CODE     ---       #303
      00FF72AEH   LINE      CODE     ---       #304
      00FF72BCH   LINE      CODE     ---       #306
      00FF72C9H   LINE      CODE     ---       #308
      00FF72ECH   LINE      CODE     ---       #309
      00FF7302H   LINE      CODE     ---       #310
      00FF7309H   LINE      CODE     ---       #312
      00FF7319H   LINE      CODE     ---       #314
      00FF732BH   LINE      CODE     ---       #315
      00FF732BH   LINE      CODE     ---       #317
      00FF733EH   LINE      CODE     ---       #318
      ---         BLOCKEND  ---      ---       LVL=0
      R10         REGSYM    ---      BYTE      vhv_init_byte
      R15         REGSYM    ---      BYTE      return_state
L251 LINKER/LOCATER V4.66.93.0                                                        02/28/2025  00:29:39  PAGE 91


      DR12        REGSYM    ---      DWORD     budget_us
      WR6         REGSYM    ---      WORD      dat
      DR4         REGSYM    ---      DWORD     final_range_timeout_us
      DR12        REGSYM    ---      DWORD     budget_us
      DR28        REGSYM    ---      FLOAT     limit_mcps
      WR6         REGSYM    ---      WORD      limit_mcps_16bit
      R15         REGSYM    ---      BYTE      return_state
      R14         REGSYM    ---      BYTE      reg_data_buffer
      WR12        REGSYM    ---      WORD      i

      ---         MODULE    ---      ---       zf_device_ble6a20
      000000D0H   SFRSYM    DATA     BYTE      PSW
      0000009DH   SFRSYM    DATA     BYTE      IRCBAND
      00000097H   SFRSYM    DATA     BYTE      AUXR2
      000000EFH   SFRSYM    DATA     BYTE      AUXINTIF
      000000FDH   SFRSYM    DATA     BYTE      S4CON
      000000ACH   SFRSYM    DATA     BYTE      S3CON
      0000009AH   SFRSYM    DATA     BYTE      S2CON
      000000B7H   SFRSYM    DATA     BYTE      IPH
      000000CDH   SFRSYM    DATA     BYTE      SPSTAT
      000000DDH   SFRSYM    DATA     BYTE      T4T3M
      000000C1H   SFRSYM    DATA     BYTE      WDT_CONTR
      000000DFH   SFRSYM    DATA     BYTE      IP3
      000000F4H   SFRSYM    DATA     BYTE      USBCON
      000000B5H   SFRSYM    DATA     BYTE      IP2
      000000FFH   SFRSYM    DATA     BYTE      RSTCFG
      000000C7H   SFRSYM    DATA     BYTE      IAP_CONTR
      0000008EH   SFRSYM    DATA     BYTE      AUXR
      000000AFH   SFRSYM    DATA     BYTE      IE2
      00000088H   SFRSYM    DATA     BYTE      TCON
      00000089H   SFRSYM    DATA     BYTE      TMOD
      00000098H   SFRSYM    DATA     BYTE      SCON
      00000087H   SFRSYM    DATA     BYTE      PCON
      000000BCH   SFRSYM    DATA     BYTE      ADC_CONTR
      000000D1H   SFRSYM    DATA     BYTE      PSW1
      000000E7H   SFRSYM    DATA     BYTE      CMPCR2
      000000E6H   SFRSYM    DATA     BYTE      CMPCR1
      000000DEH   SFRSYM    DATA     BYTE      ADCCFG
      000000B8H   SFRSYM    DATA     BYTE      IP
      0000008FH   SFRSYM    DATA     BYTE      INTCLKO
      000000EEH   SFRSYM    DATA     BYTE      IP3H
      000000B6H   SFRSYM    DATA     BYTE      IP2H
      000000BFH   SFRSYM    DATA     BYTE      P_SW4
      000000A8H   SFRSYM    DATA     BYTE      IE
      000000BBH   SFRSYM    DATA     BYTE      P_SW3
      000000BAH   SFRSYM    DATA     BYTE      P_SW2
      000000A2H   SFRSYM    DATA     BYTE      P_SW1
      000000CEH   SFRSYM    DATA     BYTE      SPCTL
      000000F8H   SFRSYM    DATA     BYTE      P7
      000000E8H   SFRSYM    DATA     BYTE      P6
      000000C8H   SFRSYM    DATA     BYTE      P5
      000000C0H   SFRSYM    DATA     BYTE      P4
      000000ABH   SFRSYM    DATA     BYTE      WKTCH
      000000B0H   SFRSYM    DATA     BYTE      P3
      000000A0H   SFRSYM    DATA     BYTE      P2
      00000090H   SFRSYM    DATA     BYTE      P1
      00000080H   SFRSYM    DATA     BYTE      P0
      00010BC8H   SYMBOL    XDATA    ---       ble6a20_buffer
      00010C08H   SYMBOL    XDATA    ---       ble6a20_fifo
      00FFA45EH   SYMBOL    HCONST   ---       ?tpl?0001
      R15         REGSYM    ---      BYTE      dat
      WR12        REGSYM    ---      WORD      time_count
      DR12        REGSYM    ---      DWORD     len
      REG=3       REGSYM    ---      ---       str
      REG=7       REGSYM    ---      ---       buff
L251 LINKER/LOCATER V4.66.93.0                                                        02/28/2025  00:29:39  PAGE 92


      DR8         REGSYM    ---      DWORD     len

      ---         MODULE    ---      ---       zf_device_wireless_uart
      000000D0H   SFRSYM    DATA     BYTE      PSW
      0000009DH   SFRSYM    DATA     BYTE      IRCBAND
      00000097H   SFRSYM    DATA     BYTE      AUXR2
      000000EFH   SFRSYM    DATA     BYTE      AUXINTIF
      000000FDH   SFRSYM    DATA     BYTE      S4CON
      000000ACH   SFRSYM    DATA     BYTE      S3CON
      0000009AH   SFRSYM    DATA     BYTE      S2CON
      000000B7H   SFRSYM    DATA     BYTE      IPH
      000000CDH   SFRSYM    DATA     BYTE      SPSTAT
      000000DDH   SFRSYM    DATA     BYTE      T4T3M
      000000C1H   SFRSYM    DATA     BYTE      WDT_CONTR
      000000DFH   SFRSYM    DATA     BYTE      IP3
      000000F4H   SFRSYM    DATA     BYTE      USBCON
      000000B5H   SFRSYM    DATA     BYTE      IP2
      000000FFH   SFRSYM    DATA     BYTE      RSTCFG
      000000C7H   SFRSYM    DATA     BYTE      IAP_CONTR
      0000008EH   SFRSYM    DATA     BYTE      AUXR
      000000AFH   SFRSYM    DATA     BYTE      IE2
      00000088H   SFRSYM    DATA     BYTE      TCON
      00000089H   SFRSYM    DATA     BYTE      TMOD
      00000098H   SFRSYM    DATA     BYTE      SCON
      00000087H   SFRSYM    DATA     BYTE      PCON
      000000BCH   SFRSYM    DATA     BYTE      ADC_CONTR
      000000D1H   SFRSYM    DATA     BYTE      PSW1
      000000E7H   SFRSYM    DATA     BYTE      CMPCR2
      000000E6H   SFRSYM    DATA     BYTE      CMPCR1
      000000DEH   SFRSYM    DATA     BYTE      ADCCFG
      000000B8H   SFRSYM    DATA     BYTE      IP
      0000008FH   SFRSYM    DATA     BYTE      INTCLKO
      000000EEH   SFRSYM    DATA     BYTE      IP3H
      000000B6H   SFRSYM    DATA     BYTE      IP2H
      000000BFH   SFRSYM    DATA     BYTE      P_SW4
      000000A8H   SFRSYM    DATA     BYTE      IE
      000000BBH   SFRSYM    DATA     BYTE      P_SW3
      000000BAH   SFRSYM    DATA     BYTE      P_SW2
      000000A2H   SFRSYM    DATA     BYTE      P_SW1
      000000CEH   SFRSYM    DATA     BYTE      SPCTL
      000000F8H   SFRSYM    DATA     BYTE      P7
      000000E8H   SFRSYM    DATA     BYTE      P6
      000000C8H   SFRSYM    DATA     BYTE      P5
      000000C0H   SFRSYM    DATA     BYTE      P4
      000000ABH   SFRSYM    DATA     BYTE      WKTCH
      000000B0H   SFRSYM    DATA     BYTE      P3
      000000A0H   SFRSYM    DATA     BYTE      P2
      00000090H   SFRSYM    DATA     BYTE      P1
      00000080H   SFRSYM    DATA     BYTE      P0
      00FFA5CCH   SYMBOL    HCONST   ---       ?tpl?0001
      00010C1FH   SYMBOL    XDATA    ---       wireless_uart_fifo
      00010C36H   SYMBOL    XDATA    ---       wireless_uart_buffer
      R15         REGSYM    ---      BYTE      dat
      WR12        REGSYM    ---      WORD      time_count
      DR12        REGSYM    ---      DWORD     len
      REG=3       REGSYM    ---      ---       str
      REG=7       REGSYM    ---      ---       buff
      DR8         REGSYM    ---      DWORD     len

      ---         MODULE    ---      ---       zf_device_mpu6050
      00010D58H   PUBLIC    XDATA    INT       mpu6050_acc_x
      00010D5AH   PUBLIC    XDATA    INT       mpu6050_acc_y
      00010D5CH   PUBLIC    XDATA    INT       mpu6050_acc_z
      00010D5EH   PUBLIC    XDATA    INT       mpu6050_gyro_x
      00010D60H   PUBLIC    XDATA    INT       mpu6050_gyro_y
L251 LINKER/LOCATER V4.66.93.0                                                        02/28/2025  00:29:39  PAGE 93


      00010D62H   PUBLIC    XDATA    INT       mpu6050_gyro_z
      000000D0H   SFRSYM    DATA     BYTE      PSW
      0000009DH   SFRSYM    DATA     BYTE      IRCBAND
      00000097H   SFRSYM    DATA     BYTE      AUXR2
      000000EFH   SFRSYM    DATA     BYTE      AUXINTIF
      000000FDH   SFRSYM    DATA     BYTE      S4CON
      000000ACH   SFRSYM    DATA     BYTE      S3CON
      0000009AH   SFRSYM    DATA     BYTE      S2CON
      000000B7H   SFRSYM    DATA     BYTE      IPH
      000000CDH   SFRSYM    DATA     BYTE      SPSTAT
      000000DDH   SFRSYM    DATA     BYTE      T4T3M
      000000C1H   SFRSYM    DATA     BYTE      WDT_CONTR
      000000DFH   SFRSYM    DATA     BYTE      IP3
      000000F4H   SFRSYM    DATA     BYTE      USBCON
      000000B5H   SFRSYM    DATA     BYTE      IP2
      000000FFH   SFRSYM    DATA     BYTE      RSTCFG
      000000C7H   SFRSYM    DATA     BYTE      IAP_CONTR
      0000008EH   SFRSYM    DATA     BYTE      AUXR
      000000AFH   SFRSYM    DATA     BYTE      IE2
      00000088H   SFRSYM    DATA     BYTE      TCON
      00000089H   SFRSYM    DATA     BYTE      TMOD
      00000098H   SFRSYM    DATA     BYTE      SCON
      00000087H   SFRSYM    DATA     BYTE      PCON
      000000BCH   SFRSYM    DATA     BYTE      ADC_CONTR
      000000D1H   SFRSYM    DATA     BYTE      PSW1
      000000E7H   SFRSYM    DATA     BYTE      CMPCR2
      000000E6H   SFRSYM    DATA     BYTE      CMPCR1
      000000DEH   SFRSYM    DATA     BYTE      ADCCFG
      000000B8H   SFRSYM    DATA     BYTE      IP
      0000008FH   SFRSYM    DATA     BYTE      INTCLKO
      000000EEH   SFRSYM    DATA     BYTE      IP3H
      000000B6H   SFRSYM    DATA     BYTE      IP2H
      000000BFH   SFRSYM    DATA     BYTE      P_SW4
      000000A8H   SFRSYM    DATA     BYTE      IE
      000000BBH   SFRSYM    DATA     BYTE      P_SW3
      000000BAH   SFRSYM    DATA     BYTE      P_SW2
      000000A2H   SFRSYM    DATA     BYTE      P_SW1
      000000CEH   SFRSYM    DATA     BYTE      SPCTL
      000000F8H   SFRSYM    DATA     BYTE      P7
      000000E8H   SFRSYM    DATA     BYTE      P6
      000000C8H   SFRSYM    DATA     BYTE      P5
      000000C0H   SFRSYM    DATA     BYTE      P4
      000000ABH   SFRSYM    DATA     BYTE      WKTCH
      000000B0H   SFRSYM    DATA     BYTE      P3
      000000A0H   SFRSYM    DATA     BYTE      P2
      00000090H   SFRSYM    DATA     BYTE      P1
      00000080H   SFRSYM    DATA     BYTE      P0
      00010D64H   SYMBOL    XDATA    ---       mpu6050_iic_struct
      R14         REGSYM    ---      BYTE      dat
      R15         REGSYM    ---      BYTE      return_state
      WR12        REGSYM    ---      WORD      timeout_count
      WR8         REGSYM    ---      INT       acc_value
      DR4         REGSYM    ---      FLOAT     acc_data
      WR8         REGSYM    ---      INT       gyro_value
      DR4         REGSYM    ---      FLOAT     gyro_data
      R15         REGSYM    ---      BYTE      return_state

      ---         MODULE    ---      ---       zf_device_icm20602
      00010D6DH   PUBLIC    XDATA    INT       icm20602_acc_x
      00010D6FH   PUBLIC    XDATA    INT       icm20602_acc_y
      00010D71H   PUBLIC    XDATA    INT       icm20602_acc_z
      00010D73H   PUBLIC    XDATA    INT       icm20602_gyro_x
      00010D75H   PUBLIC    XDATA    INT       icm20602_gyro_y
      00010D77H   PUBLIC    XDATA    INT       icm20602_gyro_z
      00010D79H   PUBLIC    XDATA    ---       icm20602_transition_factor
L251 LINKER/LOCATER V4.66.93.0                                                        02/28/2025  00:29:39  PAGE 94


      000000D0H   SFRSYM    DATA     BYTE      PSW
      0000009DH   SFRSYM    DATA     BYTE      IRCBAND
      00000097H   SFRSYM    DATA     BYTE      AUXR2
      000000EFH   SFRSYM    DATA     BYTE      AUXINTIF
      000000FDH   SFRSYM    DATA     BYTE      S4CON
      000000ACH   SFRSYM    DATA     BYTE      S3CON
      0000009AH   SFRSYM    DATA     BYTE      S2CON
      000000B7H   SFRSYM    DATA     BYTE      IPH
      000000CDH   SFRSYM    DATA     BYTE      SPSTAT
      000000DDH   SFRSYM    DATA     BYTE      T4T3M
      000000C1H   SFRSYM    DATA     BYTE      WDT_CONTR
      000000DFH   SFRSYM    DATA     BYTE      IP3
      000000F4H   SFRSYM    DATA     BYTE      USBCON
      000000B5H   SFRSYM    DATA     BYTE      IP2
      000000FFH   SFRSYM    DATA     BYTE      RSTCFG
      000000C7H   SFRSYM    DATA     BYTE      IAP_CONTR
      0000008EH   SFRSYM    DATA     BYTE      AUXR
      000000AFH   SFRSYM    DATA     BYTE      IE2
      00000088H   SFRSYM    DATA     BYTE      TCON
      00000089H   SFRSYM    DATA     BYTE      TMOD
      00000098H   SFRSYM    DATA     BYTE      SCON
      00000087H   SFRSYM    DATA     BYTE      PCON
      000000BCH   SFRSYM    DATA     BYTE      ADC_CONTR
      000000D1H   SFRSYM    DATA     BYTE      PSW1
      000000E7H   SFRSYM    DATA     BYTE      CMPCR2
      000000E6H   SFRSYM    DATA     BYTE      CMPCR1
      000000DEH   SFRSYM    DATA     BYTE      ADCCFG
      000000B8H   SFRSYM    DATA     BYTE      IP
      0000008FH   SFRSYM    DATA     BYTE      INTCLKO
      000000EEH   SFRSYM    DATA     BYTE      IP3H
      000000B6H   SFRSYM    DATA     BYTE      IP2H
      000000BFH   SFRSYM    DATA     BYTE      P_SW4
      000000A8H   SFRSYM    DATA     BYTE      IE
      000000BBH   SFRSYM    DATA     BYTE      P_SW3
      000000BAH   SFRSYM    DATA     BYTE      P_SW2
      000000A2H   SFRSYM    DATA     BYTE      P_SW1
      000000CEH   SFRSYM    DATA     BYTE      SPCTL
      000000F8H   SFRSYM    DATA     BYTE      P7
      000000E8H   SFRSYM    DATA     BYTE      P6
      000000C8H   SFRSYM    DATA     BYTE      P5
      000000C0H   SFRSYM    DATA     BYTE      P4
      000000ABH   SFRSYM    DATA     BYTE      WKTCH
      000000B0H   SFRSYM    DATA     BYTE      P3
      000000A0H   SFRSYM    DATA     BYTE      P2
      00000090H   SFRSYM    DATA     BYTE      P1
      00000080H   SFRSYM    DATA     BYTE      P0
      00FF96E6H   SYMBOL    CODE     ---       icm20602_read_register
      R14         REGSYM    ---      BYTE      reg
      R15         REGSYM    ---      BYTE      dat

      00FF96E6H   BLOCK     CODE     ---       LVL=0
      R15         REGSYM    ---      BYTE      reg
      00FF96EAH   BLOCK     CODE     NEAR LAB  LVL=1
      R15         REGSYM    ---      BYTE      dat
      ---         BLOCKEND  ---      ---       LVL=1
      00FF96E6H   LINE      CODE     ---       #125
      00FF96EAH   LINE      CODE     ---       #126
      00FF96EAH   LINE      CODE     ---       #127
      00FF96EAH   LINE      CODE     ---       #128
      00FF96F2H   LINE      CODE     ---       #129
      00FF96FFH   LINE      CODE     ---       #130
      00FF9708H   LINE      CODE     ---       #131
      00FF970AH   LINE      CODE     ---       #132
      ---         BLOCKEND  ---      ---       LVL=0
      DR12        REGSYM    ---      DWORD     len
L251 LINKER/LOCATER V4.66.93.0                                                        02/28/2025  00:29:39  PAGE 95


      R14         REGSYM    ---      BYTE      dat
      R15         REGSYM    ---      BYTE      return_state
      WR12        REGSYM    ---      WORD      timeout_count
      R14         REGSYM    ---      BYTE      val
      R15         REGSYM    ---      BYTE      return_state
      WR12        REGSYM    ---      WORD      timeout_count

      ---         MODULE    ---      ---       zf_device_imu660ra
      00FF8D63H   PUBLIC    CODE     ---       imu660ra_get_gyro
      00FF7341H   PUBLIC    CODE     ---       imu660ra_init
      00010D81H   PUBLIC    XDATA    INT       imu660ra_acc_x
      00010D83H   PUBLIC    XDATA    INT       imu660ra_acc_y
      00010D85H   PUBLIC    XDATA    INT       imu660ra_acc_z
      00010D87H   PUBLIC    XDATA    INT       imu660ra_gyro_x
      00010D89H   PUBLIC    XDATA    INT       imu660ra_gyro_y
      00010D8BH   PUBLIC    XDATA    INT       imu660ra_gyro_z
      00010D8DH   PUBLIC    XDATA    ---       imu660ra_transition_factor
      000000D0H   SFRSYM    DATA     BYTE      PSW
      0000009DH   SFRSYM    DATA     BYTE      IRCBAND
      00000097H   SFRSYM    DATA     BYTE      AUXR2
      000000EFH   SFRSYM    DATA     BYTE      AUXINTIF
      000000FDH   SFRSYM    DATA     BYTE      S4CON
      000000ACH   SFRSYM    DATA     BYTE      S3CON
      0000009AH   SFRSYM    DATA     BYTE      S2CON
      000000B7H   SFRSYM    DATA     BYTE      IPH
      000000CDH   SFRSYM    DATA     BYTE      SPSTAT
      000000DDH   SFRSYM    DATA     BYTE      T4T3M
      000000C1H   SFRSYM    DATA     BYTE      WDT_CONTR
      000000DFH   SFRSYM    DATA     BYTE      IP3
      000000F4H   SFRSYM    DATA     BYTE      USBCON
      000000B5H   SFRSYM    DATA     BYTE      IP2
      000000FFH   SFRSYM    DATA     BYTE      RSTCFG
      000000C7H   SFRSYM    DATA     BYTE      IAP_CONTR
      0000008EH   SFRSYM    DATA     BYTE      AUXR
      000000AFH   SFRSYM    DATA     BYTE      IE2
      00000088H   SFRSYM    DATA     BYTE      TCON
      00000089H   SFRSYM    DATA     BYTE      TMOD
      00000098H   SFRSYM    DATA     BYTE      SCON
      00000087H   SFRSYM    DATA     BYTE      PCON
      000000BCH   SFRSYM    DATA     BYTE      ADC_CONTR
      000000D1H   SFRSYM    DATA     BYTE      PSW1
      000000E7H   SFRSYM    DATA     BYTE      CMPCR2
      000000E6H   SFRSYM    DATA     BYTE      CMPCR1
      000000DEH   SFRSYM    DATA     BYTE      ADCCFG
      000000B8H   SFRSYM    DATA     BYTE      IP
      0000008FH   SFRSYM    DATA     BYTE      INTCLKO
      000000EEH   SFRSYM    DATA     BYTE      IP3H
      000000B6H   SFRSYM    DATA     BYTE      IP2H
      000000BFH   SFRSYM    DATA     BYTE      P_SW4
      000000A8H   SFRSYM    DATA     BYTE      IE
      000000BBH   SFRSYM    DATA     BYTE      P_SW3
      000000BAH   SFRSYM    DATA     BYTE      P_SW2
      000000A2H   SFRSYM    DATA     BYTE      P_SW1
      000000CEH   SFRSYM    DATA     BYTE      SPCTL
      000000F8H   SFRSYM    DATA     BYTE      P7
      000000E8H   SFRSYM    DATA     BYTE      P6
      000000C8H   SFRSYM    DATA     BYTE      P5
      000000C0H   SFRSYM    DATA     BYTE      P4
      000000ABH   SFRSYM    DATA     BYTE      WKTCH
      000000B0H   SFRSYM    DATA     BYTE      P3
      000000A0H   SFRSYM    DATA     BYTE      P2
      00000090H   SFRSYM    DATA     BYTE      P1
      00000080H   SFRSYM    DATA     BYTE      P0
      00FF94EFH   SYMBOL    CODE     ---       imu660ra_read_register
      00FF9097H   SYMBOL    CODE     ---       imu660ra_write_registers
L251 LINKER/LOCATER V4.66.93.0                                                        02/28/2025  00:29:39  PAGE 96


      00FF0066H   SYMBOL    CODE     ---       imu660ra_write_register
      00FF915CH   SYMBOL    CODE     ---       imu660ra_self_check
      00FF801EH   SYMBOL    CODE     ---       imu660ra_read_registers

      00FF0066H   BLOCK     CODE     ---       LVL=0
      R14         REGSYM    ---      BYTE      reg
      R15         REGSYM    ---      BYTE      dat
      00FF0066H   LINE      CODE     ---       #89
      00FF006CH   LINE      CODE     ---       #91
      00FF0074H   LINE      CODE     ---       #92
      00FF007FH   LINE      CODE     ---       #93
      00FF0088H   LINE      CODE     ---       #94
      ---         BLOCKEND  ---      ---       LVL=0

      00FF9097H   BLOCK     CODE     ---       LVL=0
      00010ABBH   SYMBOL    XDATA    BYTE      reg
      00010ABCH   SYMBOL    XDATA    ---       dat
      DR12        REGSYM    ---      DWORD     len
      00FF9097H   LINE      CODE     ---       #104
      00FF90A9H   LINE      CODE     ---       #106
      00FF90B1H   LINE      CODE     ---       #107
      00FF90D0H   LINE      CODE     ---       #108
      00FF90D9H   LINE      CODE     ---       #109
      ---         BLOCKEND  ---      ---       LVL=0

      00FF94EFH   BLOCK     CODE     ---       LVL=0
      R15         REGSYM    ---      BYTE      reg
      00FF94F3H   BLOCK     CODE     NEAR LAB  LVL=1
      00010ABBH   SYMBOL    XDATA    ---       dat
      ---         BLOCKEND  ---      ---       LVL=1
      00FF94EFH   LINE      CODE     ---       #118
      00FF94F3H   LINE      CODE     ---       #119
      00FF94F3H   LINE      CODE     ---       #121
      00FF94FBH   LINE      CODE     ---       #122
      00FF9518H   LINE      CODE     ---       #123
      00FF9521H   LINE      CODE     ---       #124
      00FF9525H   LINE      CODE     ---       #125
      ---         BLOCKEND  ---      ---       LVL=0

      00FF801EH   BLOCK     CODE     ---       LVL=0
      00010AC1H   SYMBOL    XDATA    BYTE      reg
      REG=3       REGSYM    ---      ---       dat
      00010AC2H   SYMBOL    XDATA    DWORD     len
      00FF8030H   BLOCK     CODE     NEAR LAB  LVL=1
      00010AC6H   SYMBOL    XDATA    WORD      i
      00010AC8H   SYMBOL    XDATA    ---       temp_data
      ---         BLOCKEND  ---      ---       LVL=1
      00FF801EH   LINE      CODE     ---       #136
      00FF8030H   LINE      CODE     ---       #137
      00FF8030H   LINE      CODE     ---       #138
      00FF8038H   LINE      CODE     ---       #140
      00FF8040H   LINE      CODE     ---       #141
      00FF806BH   LINE      CODE     ---       #142
      00FF8074H   LINE      CODE     ---       #144
      00FF807BH   LINE      CODE     ---       #146
      00FF8093H   LINE      CODE     ---       #147
      00FF80B1H   LINE      CODE     ---       #148
      ---         BLOCKEND  ---      ---       LVL=0

      00FF915CH   BLOCK     CODE     ---       LVL=0
      00FF915EH   BLOCK     CODE     NEAR LAB  LVL=1
      R14         REGSYM    ---      BYTE      dat
      R15         REGSYM    ---      BYTE      return_state
      WR12        REGSYM    ---      WORD      timeout_count
      ---         BLOCKEND  ---      ---       LVL=1
L251 LINKER/LOCATER V4.66.93.0                                                        02/28/2025  00:29:39  PAGE 97


      00FF915CH   LINE      CODE     ---       #158
      00FF915EH   LINE      CODE     ---       #159
      00FF915EH   LINE      CODE     ---       #160
      00FF9160H   LINE      CODE     ---       #161
      00FF9162H   LINE      CODE     ---       #163
      00FF9162H   LINE      CODE     ---       #165
      00FF916CH   LINE      CODE     ---       #167
      00FF916FH   LINE      CODE     ---       #168
      00FF9171H   LINE      CODE     ---       #169
      00FF9171H   LINE      CODE     ---       #171
      00FF9177H   LINE      CODE     ---       #172
      00FF918AH   LINE      CODE     ---       #173
      00FF9191H   LINE      CODE     ---       #174
      00FF9196H   LINE      CODE     ---       #177
      00FF9198H   LINE      CODE     ---       #178
      ---         BLOCKEND  ---      ---       LVL=0

      00FF8D63H   BLOCK     CODE     ---       LVL=0
      00010ABBH   SYMBOL    XDATA    ---       dat
      00FF8D63H   LINE      CODE     ---       #205
      00FF8D63H   LINE      CODE     ---       #206
      00FF8D63H   LINE      CODE     ---       #209
      00FF8D74H   LINE      CODE     ---       #210
      00FF8D8AH   LINE      CODE     ---       #211
      00FF8D9EH   LINE      CODE     ---       #212
      00FF8DB2H   LINE      CODE     ---       #213
      ---         BLOCKEND  ---      ---       LVL=0

      00FF7341H   BLOCK     CODE     ---       LVL=0
      00FF7343H   BLOCK     CODE     NEAR LAB  LVL=1
      R15         REGSYM    ---      BYTE      return_state
      ---         BLOCKEND  ---      ---       LVL=1
      00FF7341H   LINE      CODE     ---       #222
      00FF7343H   LINE      CODE     ---       #223
      00FF7343H   LINE      CODE     ---       #224
      00FF7345H   LINE      CODE     ---       #225
      00FF734CH   LINE      CODE     ---       #230
      00FF7385H   LINE      CODE     ---       #231
      00FF7396H   LINE      CODE     ---       #235
      00FF7396H   LINE      CODE     ---       #237
      00FF739BH   LINE      CODE     ---       #242
      00FF73A3H   LINE      CODE     ---       #243
      00FF73A3H   LINE      CODE     ---       #244
      00FF73A5H   LINE      CODE     ---       #245
      00FF73A5H   LINE      CODE     ---       #247
      00FF73ACH   LINE      CODE     ---       #248
      00FF73B3H   LINE      CODE     ---       #249
      00FF73BAH   LINE      CODE     ---       #250
      00FF73CBH   LINE      CODE     ---       #251
      00FF73D3H   LINE      CODE     ---       #252
      00FF73DAH   LINE      CODE     ---       #254
      00FF73E4H   LINE      CODE     ---       #259
      00FF73EFH   LINE      CODE     ---       #260
      00FF73F2H   LINE      CODE     ---       #261
      00FF73F4H   LINE      CODE     ---       #262
      00FF73F4H   LINE      CODE     ---       #264
      00FF73FCH   LINE      CODE     ---       #265
      00FF7404H   LINE      CODE     ---       #266
      00FF740CH   LINE      CODE     ---       #273
      00FF740CH   LINE      CODE     ---       #275
      00FF740CH   LINE      CODE     ---       #277
      00FF740CH   LINE      CODE     ---       #282
      00FF740CH   LINE      CODE     ---       #284
      00FF740CH   LINE      CODE     ---       #289
      00FF740CH   LINE      CODE     ---       #291
L251 LINKER/LOCATER V4.66.93.0                                                        02/28/2025  00:29:39  PAGE 98


      00FF740CH   LINE      CODE     ---       #296
      00FF740CH   LINE      CODE     ---       #298
      00FF7414H   LINE      CODE     ---       #299
      00FF7424H   LINE      CODE     ---       #301
      00FF7424H   LINE      CODE     ---       #303
      00FF7424H   LINE      CODE     ---       #305
      00FF7424H   LINE      CODE     ---       #308
      00FF7424H   LINE      CODE     ---       #309
      00FF7424H   LINE      CODE     ---       #311
      00FF7424H   LINE      CODE     ---       #313
      00FF7424H   LINE      CODE     ---       #314
      00FF7424H   LINE      CODE     ---       #322
      00FF7424H   LINE      CODE     ---       #324
      00FF7424H   LINE      CODE     ---       #326
      00FF7424H   LINE      CODE     ---       #331
      00FF7424H   LINE      CODE     ---       #333
      00FF7424H   LINE      CODE     ---       #338
      00FF7424H   LINE      CODE     ---       #340
      00FF7424H   LINE      CODE     ---       #345
      00FF7424H   LINE      CODE     ---       #347
      00FF7424H   LINE      CODE     ---       #352
      00FF7424H   LINE      CODE     ---       #354
      00FF7424H   LINE      CODE     ---       #359
      00FF7424H   LINE      CODE     ---       #361
      00FF7429H   LINE      CODE     ---       #362
      00FF743BH   LINE      CODE     ---       #364
      00FF743BH   LINE      CODE     ---       #365
      00FF743BH   LINE      CODE     ---       #367
      00FF743BH   LINE      CODE     ---       #369
      00FF743BH   LINE      CODE     ---       #370
      00FF743BH   LINE      CODE     ---       #374
      00FF743DH   LINE      CODE     ---       #375
      ---         BLOCKEND  ---      ---       LVL=0

      ---         MODULE    ---      ---       zf_device_imu963ra
      00010D21H   PUBLIC    XDATA    INT       imu963ra_acc_x
      00010D23H   PUBLIC    XDATA    INT       imu963ra_acc_y
      00010D25H   PUBLIC    XDATA    INT       imu963ra_acc_z
      00010D27H   PUBLIC    XDATA    INT       imu963ra_mag_x
      00010D29H   PUBLIC    XDATA    INT       imu963ra_mag_y
      00010D2BH   PUBLIC    XDATA    INT       imu963ra_mag_z
      00010D2DH   PUBLIC    XDATA    INT       imu963ra_gyro_x
      00010D2FH   PUBLIC    XDATA    INT       imu963ra_gyro_y
      00010D31H   PUBLIC    XDATA    INT       imu963ra_gyro_z
      00010D33H   PUBLIC    XDATA    ---       imu963ra_transition_factor
      000000D0H   SFRSYM    DATA     BYTE      PSW
      0000009DH   SFRSYM    DATA     BYTE      IRCBAND
      00000097H   SFRSYM    DATA     BYTE      AUXR2
      000000EFH   SFRSYM    DATA     BYTE      AUXINTIF
      000000FDH   SFRSYM    DATA     BYTE      S4CON
      000000ACH   SFRSYM    DATA     BYTE      S3CON
      0000009AH   SFRSYM    DATA     BYTE      S2CON
      000000B7H   SFRSYM    DATA     BYTE      IPH
      000000CDH   SFRSYM    DATA     BYTE      SPSTAT
      000000DDH   SFRSYM    DATA     BYTE      T4T3M
      000000C1H   SFRSYM    DATA     BYTE      WDT_CONTR
      000000DFH   SFRSYM    DATA     BYTE      IP3
      000000F4H   SFRSYM    DATA     BYTE      USBCON
      000000B5H   SFRSYM    DATA     BYTE      IP2
      000000FFH   SFRSYM    DATA     BYTE      RSTCFG
      000000C7H   SFRSYM    DATA     BYTE      IAP_CONTR
      0000008EH   SFRSYM    DATA     BYTE      AUXR
      000000AFH   SFRSYM    DATA     BYTE      IE2
      00000088H   SFRSYM    DATA     BYTE      TCON
      00000089H   SFRSYM    DATA     BYTE      TMOD
L251 LINKER/LOCATER V4.66.93.0                                                        02/28/2025  00:29:39  PAGE 99


      00000098H   SFRSYM    DATA     BYTE      SCON
      00000087H   SFRSYM    DATA     BYTE      PCON
      000000BCH   SFRSYM    DATA     BYTE      ADC_CONTR
      000000D1H   SFRSYM    DATA     BYTE      PSW1
      000000E7H   SFRSYM    DATA     BYTE      CMPCR2
      000000E6H   SFRSYM    DATA     BYTE      CMPCR1
      000000DEH   SFRSYM    DATA     BYTE      ADCCFG
      000000B8H   SFRSYM    DATA     BYTE      IP
      0000008FH   SFRSYM    DATA     BYTE      INTCLKO
      000000EEH   SFRSYM    DATA     BYTE      IP3H
      000000B6H   SFRSYM    DATA     BYTE      IP2H
      000000BFH   SFRSYM    DATA     BYTE      P_SW4
      000000A8H   SFRSYM    DATA     BYTE      IE
      000000BBH   SFRSYM    DATA     BYTE      P_SW3
      000000BAH   SFRSYM    DATA     BYTE      P_SW2
      000000A2H   SFRSYM    DATA     BYTE      P_SW1
      000000CEH   SFRSYM    DATA     BYTE      SPCTL
      000000F8H   SFRSYM    DATA     BYTE      P7
      000000E8H   SFRSYM    DATA     BYTE      P6
      000000C8H   SFRSYM    DATA     BYTE      P5
      000000C0H   SFRSYM    DATA     BYTE      P4
      000000ABH   SFRSYM    DATA     BYTE      WKTCH
      000000B0H   SFRSYM    DATA     BYTE      P3
      000000A0H   SFRSYM    DATA     BYTE      P2
      00000090H   SFRSYM    DATA     BYTE      P1
      00000080H   SFRSYM    DATA     BYTE      P0
      00FF8C6EH   SYMBOL    CODE     ---       imu963ra_read_mag_register
      00FF970DH   SYMBOL    CODE     ---       imu963ra_read_acc_gyro_register
      00FF9734H   SYMBOL    CODE     ---       imu963ra_write_acc_gyro_register

      00FF9734H   BLOCK     CODE     ---       LVL=0
      R14         REGSYM    ---      BYTE      reg
      R15         REGSYM    ---      BYTE      dat
      00FF9734H   LINE      CODE     ---       #114
      00FF973AH   LINE      CODE     ---       #116
      00FF9742H   LINE      CODE     ---       #117
      00FF974DH   LINE      CODE     ---       #119
      00FF9756H   LINE      CODE     ---       #120
      ---         BLOCKEND  ---      ---       LVL=0

      00FF970DH   BLOCK     CODE     ---       LVL=0
      R15         REGSYM    ---      BYTE      reg
      00FF9711H   BLOCK     CODE     NEAR LAB  LVL=1
      R15         REGSYM    ---      BYTE      dat
      ---         BLOCKEND  ---      ---       LVL=1
      00FF970DH   LINE      CODE     ---       #129
      00FF9711H   LINE      CODE     ---       #130
      00FF9711H   LINE      CODE     ---       #131
      00FF9711H   LINE      CODE     ---       #132
      00FF9719H   LINE      CODE     ---       #133
      00FF9726H   LINE      CODE     ---       #134
      00FF972FH   LINE      CODE     ---       #135
      00FF9731H   LINE      CODE     ---       #136
      ---         BLOCKEND  ---      ---       LVL=0
      DR12        REGSYM    ---      DWORD     len
      R15         REGSYM    ---      BYTE      addr
      R13         REGSYM    ---      BYTE      reg
      R14         REGSYM    ---      BYTE      dat
      R12         REGSYM    ---      BYTE      return_state

      00FF8C6EH   BLOCK     CODE     ---       LVL=0
      R10         REGSYM    ---      BYTE      addr
      R15         REGSYM    ---      BYTE      reg
      00FF8C76H   BLOCK     CODE     NEAR LAB  LVL=1
      WR12        REGSYM    ---      WORD      timeout_count
L251 LINKER/LOCATER V4.66.93.0                                                        02/28/2025  00:29:39  PAGE 100


      ---         BLOCKEND  ---      ---       LVL=1
      00FF8C6EH   LINE      CODE     ---       #200
      00FF8C76H   LINE      CODE     ---       #201
      00FF8C76H   LINE      CODE     ---       #202
      00FF8C78H   LINE      CODE     ---       #204
      00FF8C7AH   LINE      CODE     ---       #205
      00FF8C84H   LINE      CODE     ---       #206
      00FF8C8BH   LINE      CODE     ---       #207
      00FF8C93H   LINE      CODE     ---       #208
      00FF8C9BH   LINE      CODE     ---       #211
      00FF8C9DH   LINE      CODE     ---       #213
      00FF8CA7H   LINE      CODE     ---       #215
      00FF8CA7H   LINE      CODE     ---       #216
      00FF8CA7H   LINE      CODE     ---       #218
      00FF8CAEH   LINE      CODE     ---       #219
      00FF8CB6H   LINE      CODE     ---       #221
      00FF8CBBH   LINE      CODE     ---       #222
      ---         BLOCKEND  ---      ---       LVL=0
      R10         REGSYM    ---      BYTE      addr
      R15         REGSYM    ---      BYTE      reg
      R15         REGSYM    ---      BYTE      return_state
      R14         REGSYM    ---      BYTE      dat
      WR12        REGSYM    ---      WORD      timeout_count
      R15         REGSYM    ---      BYTE      return_state
      R14         REGSYM    ---      BYTE      dat
      WR12        REGSYM    ---      WORD      timeout_count
      R11         REGSYM    ---      BYTE      temp_status
      R15         REGSYM    ---      BYTE      return_state

      ---         MODULE    ---      ---       zf_device_gps_tau1201
      00FF5C13H   PUBLIC    CODE     ---       gps_init
      00FF6C79H   PUBLIC    CODE     ---       gps_uart_callback
      00010641H   PUBLIC    XDATA    BYTE      gps_tau1201_flag
      000106C2H   PUBLIC    XDATA    ---       gps_tau1201
      000107F6H   PUBLIC    XDATA    INT       gps_gga_state
      000107F8H   PUBLIC    XDATA    INT       gps_rmc_state
      000000D0H   SFRSYM    DATA     BYTE      PSW
      0000009DH   SFRSYM    DATA     BYTE      IRCBAND
      00000097H   SFRSYM    DATA     BYTE      AUXR2
      000000EFH   SFRSYM    DATA     BYTE      AUXINTIF
      000000FDH   SFRSYM    DATA     BYTE      S4CON
      000000ACH   SFRSYM    DATA     BYTE      S3CON
      0000009AH   SFRSYM    DATA     BYTE      S2CON
      000000B7H   SFRSYM    DATA     BYTE      IPH
      000000CDH   SFRSYM    DATA     BYTE      SPSTAT
      000000DDH   SFRSYM    DATA     BYTE      T4T3M
      000000C1H   SFRSYM    DATA     BYTE      WDT_CONTR
      000000DFH   SFRSYM    DATA     BYTE      IP3
      000000F4H   SFRSYM    DATA     BYTE      USBCON
      000000B5H   SFRSYM    DATA     BYTE      IP2
      000000FFH   SFRSYM    DATA     BYTE      RSTCFG
      000000C7H   SFRSYM    DATA     BYTE      IAP_CONTR
      0000008EH   SFRSYM    DATA     BYTE      AUXR
      000000AFH   SFRSYM    DATA     BYTE      IE2
      00000088H   SFRSYM    DATA     BYTE      TCON
      00000089H   SFRSYM    DATA     BYTE      TMOD
      00000098H   SFRSYM    DATA     BYTE      SCON
      00000087H   SFRSYM    DATA     BYTE      PCON
      000000BCH   SFRSYM    DATA     BYTE      ADC_CONTR
      000000D1H   SFRSYM    DATA     BYTE      PSW1
      000000E7H   SFRSYM    DATA     BYTE      CMPCR2
      000000E6H   SFRSYM    DATA     BYTE      CMPCR1
      000000DEH   SFRSYM    DATA     BYTE      ADCCFG
      000000B8H   SFRSYM    DATA     BYTE      IP
      0000008FH   SFRSYM    DATA     BYTE      INTCLKO
L251 LINKER/LOCATER V4.66.93.0                                                        02/28/2025  00:29:39  PAGE 101


      000000EEH   SFRSYM    DATA     BYTE      IP3H
      000000B6H   SFRSYM    DATA     BYTE      IP2H
      000000BFH   SFRSYM    DATA     BYTE      P_SW4
      000000A8H   SFRSYM    DATA     BYTE      IE
      000000BBH   SFRSYM    DATA     BYTE      P_SW3
      000000BAH   SFRSYM    DATA     BYTE      P_SW2
      000000A2H   SFRSYM    DATA     BYTE      P_SW1
      000000CEH   SFRSYM    DATA     BYTE      SPCTL
      000000F8H   SFRSYM    DATA     BYTE      P7
      000000E8H   SFRSYM    DATA     BYTE      P6
      000000C8H   SFRSYM    DATA     BYTE      P5
      000000C0H   SFRSYM    DATA     BYTE      P4
      000000ABH   SFRSYM    DATA     BYTE      WKTCH
      000000B0H   SFRSYM    DATA     BYTE      P3
      000000A0H   SFRSYM    DATA     BYTE      P2
      00000090H   SFRSYM    DATA     BYTE      P1
      00000080H   SFRSYM    DATA     BYTE      P0
      00FFA33CH   SYMBOL    HCONST   ---       ?tpl?0001
      00FFA341H   SYMBOL    HCONST   ---       ?tpl?0002
      00FFA35DH   SYMBOL    HCONST   ---       ?tpl?0003
      00FFA368H   SYMBOL    HCONST   ---       ?tpl?0004
      00FFA373H   SYMBOL    HCONST   ---       ?tpl?0005
      00FFA37EH   SYMBOL    HCONST   ---       ?tpl?0006
      00FFA389H   SYMBOL    HCONST   ---       ?tpl?0007
      00FFA394H   SYMBOL    HCONST   ---       ?tpl?0008
      00FFA39FH   SYMBOL    HCONST   ---       ?tpl?0009
      00FFA3AAH   SYMBOL    HCONST   ---       ?tpl?000A
      00FFA3B5H   SYMBOL    HCONST   ---       ?tpl?000B
      00FFA3C0H   SYMBOL    HCONST   ---       ?tpl?000C
      00FFA3CBH   SYMBOL    HCONST   ---       ?tpl?000D
      00FF8E02H   SYMBOL    CODE     ---       get_double_number
      00FF8CC0H   SYMBOL    CODE     ---       get_float_number
      00FF7C4FH   SYMBOL    CODE     ---       utc_to_btc
      00FF7963H   SYMBOL    CODE     ---       gps_gngga_parse
      00FF4AE1H   SYMBOL    CODE     ---       gps_gnrmc_parse
      00FF8E51H   SYMBOL    CODE     ---       get_int_number
      00FF87F8H   SYMBOL    CODE     ---       get_parameter_index
      0001062AH   SYMBOL    XDATA    ---       gps_tau1201_receiver_fifo
      00010642H   SYMBOL    XDATA    ---       gps_gga_buffer
      000106F5H   SYMBOL    XDATA    BYTE      gps_tau1201_state
      000106F6H   SYMBOL    XDATA    ---       gps_rmc_buffer
      00010776H   SYMBOL    XDATA    ---       gps_tau1201_receiver_buffer

      00FF87F8H   BLOCK     CODE     ---       LVL=0
      00010E86H   SYMBOL    XDATA    BYTE      num
      REG=3       REGSYM    ---      ---       str
      00FF8800H   BLOCK     CODE     NEAR LAB  LVL=1
      00010E87H   SYMBOL    XDATA    BYTE      i
      00010E88H   SYMBOL    XDATA    BYTE      j
      REG=7       REGSYM    ---      ---       temp
      R7          REGSYM    ---      BYTE      len
      R10         REGSYM    ---      BYTE      len1
      ---         BLOCKEND  ---      ---       LVL=1
      00FF87F8H   LINE      CODE     ---       #81
      00FF8800H   LINE      CODE     ---       #82
      00FF8800H   LINE      CODE     ---       #83
      00FF8809H   LINE      CODE     ---       #84
      00FF8810H   LINE      CODE     ---       #85
      00FF8814H   LINE      CODE     ---       #87
      00FF881AH   LINE      CODE     ---       #89
      00FF8820H   LINE      CODE     ---       #90
      00FF8820H   LINE      CODE     ---       #92
      00FF8827H   LINE      CODE     ---       #94
      00FF8839H   LINE      CODE     ---       #96
      00FF883FH   LINE      CODE     ---       #97
L251 LINKER/LOCATER V4.66.93.0                                                        02/28/2025  00:29:39  PAGE 102


      00FF883FH   LINE      CODE     ---       #98
      00FF884DH   LINE      CODE     ---       #100
      00FF8853H   LINE      CODE     ---       #101
      00FF8855H   LINE      CODE     ---       #102
      00FF8864H   LINE      CODE     ---       #105
      00FF8866H   LINE      CODE     ---       #106
      ---         BLOCKEND  ---      ---       LVL=0

      00FF8E51H   BLOCK     CODE     ---       LVL=0
      REG=3       REGSYM    ---      ---       s
      00FF8E55H   BLOCK     CODE     NEAR LAB  LVL=1
      00010DF7H   SYMBOL    XDATA    ---       buf
      00010E01H   SYMBOL    XDATA    BYTE      i
      WR6         REGSYM    ---      INT       return_value
      ---         BLOCKEND  ---      ---       LVL=1
      00FF8E51H   LINE      CODE     ---       #115
      00FF8E55H   LINE      CODE     ---       #116
      00FF8E55H   LINE      CODE     ---       #118
      00FF8E55H   LINE      CODE     ---       #119
      00FF8E55H   LINE      CODE     ---       #120
      00FF8E5EH   LINE      CODE     ---       #121
      00FF8E66H   LINE      CODE     ---       #122
      00FF8E7DH   LINE      CODE     ---       #123
      00FF8E92H   LINE      CODE     ---       #124
      00FF8E9DH   LINE      CODE     ---       #125
      00FF8E9DH   LINE      CODE     ---       #126
      ---         BLOCKEND  ---      ---       LVL=0

      00FF8CC0H   BLOCK     CODE     ---       LVL=0
      REG=3       REGSYM    ---      ---       s
      00FF8CC4H   BLOCK     CODE     NEAR LAB  LVL=1
      00010DA6H   SYMBOL    XDATA    BYTE      i
      00010DA7H   SYMBOL    XDATA    ---       buf
      DR4         REGSYM    ---      FLOAT     return_value
      ---         BLOCKEND  ---      ---       LVL=1
      00FF8CC0H   LINE      CODE     ---       #135
      00FF8CC4H   LINE      CODE     ---       #136
      00FF8CC4H   LINE      CODE     ---       #137
      00FF8CC4H   LINE      CODE     ---       #139
      00FF8CC4H   LINE      CODE     ---       #141
      00FF8CCDH   LINE      CODE     ---       #142
      00FF8CD5H   LINE      CODE     ---       #143
      00FF8CECH   LINE      CODE     ---       #144
      00FF8D01H   LINE      CODE     ---       #145
      00FF8D0FH   LINE      CODE     ---       #146
      00FF8D0FH   LINE      CODE     ---       #147
      ---         BLOCKEND  ---      ---       LVL=0

      00FF8E02H   BLOCK     CODE     ---       LVL=0
      REG=3       REGSYM    ---      ---       s
      00FF8E06H   BLOCK     CODE     NEAR LAB  LVL=1
      00010DB6H   SYMBOL    XDATA    BYTE      i
      00010DB7H   SYMBOL    XDATA    ---       buf
      DR0 /DR4    REGSYM    ---      DOUBLE    return_value
      ---         BLOCKEND  ---      ---       LVL=1
      00FF8E02H   LINE      CODE     ---       #156
      00FF8E06H   LINE      CODE     ---       #157
      00FF8E06H   LINE      CODE     ---       #158
      00FF8E06H   LINE      CODE     ---       #160
      00FF8E06H   LINE      CODE     ---       #162
      00FF8E0FH   LINE      CODE     ---       #163
      00FF8E17H   LINE      CODE     ---       #164
      00FF8E2EH   LINE      CODE     ---       #165
      00FF8E43H   LINE      CODE     ---       #166
      00FF8E4EH   LINE      CODE     ---       #167
L251 LINKER/LOCATER V4.66.93.0                                                        02/28/2025  00:29:39  PAGE 103


      00FF8E4EH   LINE      CODE     ---       #168
      ---         BLOCKEND  ---      ---       LVL=0

      00FF7C4FH   BLOCK     CODE     ---       LVL=0
      REG=7       REGSYM    ---      ---       time
      00FF7C51H   BLOCK     CODE     NEAR LAB  LVL=1
      R6          REGSYM    ---      BYTE      day_num
      ---         BLOCKEND  ---      ---       LVL=1
      00FF7C4FH   LINE      CODE     ---       #177
      00FF7C51H   LINE      CODE     ---       #178
      00FF7C51H   LINE      CODE     ---       #179
      00FF7C51H   LINE      CODE     ---       #181
      00FF7C5FH   LINE      CODE     ---       #182
      00FF7C6BH   LINE      CODE     ---       #184
      00FF7C74H   LINE      CODE     ---       #185
      00FF7C81H   LINE      CODE     ---       #187
      00FF7C89H   LINE      CODE     ---       #189
      00FF7C8CH   LINE      CODE     ---       #190
      00FF7CADH   LINE      CODE     ---       #192
      00FF7CB0H   LINE      CODE     ---       #193
      00FF7CB2H   LINE      CODE     ---       #197
      00FF7CB5H   LINE      CODE     ---       #198
      00FF7CC8H   LINE      CODE     ---       #200
      00FF7CCBH   LINE      CODE     ---       #201
      00FF7CCBH   LINE      CODE     ---       #204
      00FF7CD3H   LINE      CODE     ---       #206
      00FF7CD9H   LINE      CODE     ---       #207
      00FF7CE4H   LINE      CODE     ---       #208
      00FF7CEDH   LINE      CODE     ---       #210
      00FF7CF6H   LINE      CODE     ---       #211
      00FF7CFEH   LINE      CODE     ---       #212
      00FF7CFEH   LINE      CODE     ---       #214
      00FF7CFEH   LINE      CODE     ---       #215
      ---         BLOCKEND  ---      ---       LVL=0

      00FF4AE1H   BLOCK     CODE     ---       LVL=0
      REG=0       REGSYM    ---      ---       line
      REG=3       REGSYM    ---      ---       gps
      00FF4AE5H   BLOCK     CODE     NEAR LAB  LVL=1
      R10         REGSYM    ---      BYTE      state
      R7          REGSYM    ---      BYTE      temp
      00010CDEH   SYMBOL    XDATA    DOUBLE    latitude
      00010CE6H   SYMBOL    XDATA    DOUBLE    longitude
      00010CEEH   SYMBOL    XDATA    DOUBLE    lati_cent_tmp
      DR0 /DR4    REGSYM    ---      DOUBLE    lati_second_tmp
      00010CF6H   SYMBOL    XDATA    DOUBLE    long_cent_tmp
      DR0 /DR4    REGSYM    ---      DOUBLE    long_second_tmp
      DR4         REGSYM    ---      FLOAT     speed_tmp
      00010CFEH   SYMBOL    XDATA    ---       buf
      00010D02H   SYMBOL    XDATA    BYTE      return_state
      ---         BLOCKEND  ---      ---       LVL=1
      00FF4AE1H   LINE      CODE     ---       #225
      00FF4AE5H   LINE      CODE     ---       #226
      00FF4AE5H   LINE      CODE     ---       #227
      00FF4AE5H   LINE      CODE     ---       #229
      00FF4AE5H   LINE      CODE     ---       #230
      00FF4AE5H   LINE      CODE     ---       #232
      00FF4AE5H   LINE      CODE     ---       #233
      00FF4AE5H   LINE      CODE     ---       #234
      00FF4AE5H   LINE      CODE     ---       #235
      00FF4AEFH   LINE      CODE     ---       #236
      00FF4AF4H   LINE      CODE     ---       #238
      00FF4B0CH   LINE      CODE     ---       #240
      00FF4B11H   LINE      CODE     ---       #241
      00FF4B19H   LINE      CODE     ---       #243
L251 LINKER/LOCATER V4.66.93.0                                                        02/28/2025  00:29:39  PAGE 104


      00FF4B1FH   LINE      CODE     ---       #244
      00FF4B23H   LINE      CODE     ---       #245
      00FF4B3FH   LINE      CODE     ---       #246
      00FF4B5BH   LINE      CODE     ---       #248
      00FF4B83H   LINE      CODE     ---       #249
      00FF4BB5H   LINE      CODE     ---       #251
      00FF4BD5H   LINE      CODE     ---       #252
      00FF4C10H   LINE      CODE     ---       #253
      00FF4C17H   LINE      CODE     ---       #254
      00FF4C45H   LINE      CODE     ---       #255
      00FF4C4CH   LINE      CODE     ---       #257
      00FF4C6CH   LINE      CODE     ---       #258
      00FF4CA7H   LINE      CODE     ---       #259
      00FF4CAEH   LINE      CODE     ---       #260
      00FF4CDCH   LINE      CODE     ---       #261
      00FF4CE3H   LINE      CODE     ---       #263
      00FF4D1FH   LINE      CODE     ---       #264
      00FF4D5BH   LINE      CODE     ---       #266
      00FF4D7BH   LINE      CODE     ---       #267
      00FF4D8EH   LINE      CODE     ---       #268
      00FF4DB6H   LINE      CODE     ---       #269
      00FF4DB6H   LINE      CODE     ---       #272
      00FF4DE2H   LINE      CODE     ---       #273
      00FF4E00H   LINE      CODE     ---       #274
      00FF4E1CH   LINE      CODE     ---       #275
      00FF4E21H   LINE      CODE     ---       #276
      00FF4E50H   LINE      CODE     ---       #277
      00FF4E6EH   LINE      CODE     ---       #278
      00FF4E8DH   LINE      CODE     ---       #280
      00FF4E92H   LINE      CODE     ---       #282
      00FF4E96H   LINE      CODE     ---       #283
      ---         BLOCKEND  ---      ---       LVL=0

      00FF7963H   BLOCK     CODE     ---       LVL=0
      REG=0       REGSYM    ---      ---       line
      00010E34H   SYMBOL    XDATA    ---       gps
      00FF796FH   BLOCK     CODE     NEAR LAB  LVL=1
      R11         REGSYM    ---      BYTE      state
      00010E38H   SYMBOL    XDATA    ---       buf
      00010E3CH   SYMBOL    XDATA    BYTE      return_state
      ---         BLOCKEND  ---      ---       LVL=1
      00FF7963H   LINE      CODE     ---       #293
      00FF796FH   LINE      CODE     ---       #294
      00FF796FH   LINE      CODE     ---       #295
      00FF796FH   LINE      CODE     ---       #296
      00FF7979H   LINE      CODE     ---       #297
      00FF797EH   LINE      CODE     ---       #299
      00FF7996H   LINE      CODE     ---       #301
      00FF799EH   LINE      CODE     ---       #303
      00FF79C2H   LINE      CODE     ---       #304
      00FF7A1BH   LINE      CODE     ---       #305
      00FF7A21H   LINE      CODE     ---       #306
      00FF7A21H   LINE      CODE     ---       #308
      00FF7A25H   LINE      CODE     ---       #309
      ---         BLOCKEND  ---      ---       LVL=0
      DR12        REGSYM    ---      DWORD     data_len

      00FF6C79H   BLOCK     CODE     ---       LVL=0
      00010B50H   SYMBOL    XDATA    BYTE      uart_dat
      00FF6C7DH   BLOCK     CODE     NEAR LAB  LVL=1
      00010B51H   SYMBOL    XDATA    ---       temp_gps
      00010B57H   SYMBOL    XDATA    DWORD     temp_length
      ---         BLOCKEND  ---      ---       LVL=1
      00FF6C79H   LINE      CODE     ---       #475
      00FF6C7DH   LINE      CODE     ---       #476
L251 LINKER/LOCATER V4.66.93.0                                                        02/28/2025  00:29:39  PAGE 105


      00FF6C7DH   LINE      CODE     ---       #478
      00FF6C89H   LINE      CODE     ---       #480
      00FF6C92H   LINE      CODE     ---       #482
      00FF6CB3H   LINE      CODE     ---       #483
      00FF6CBFH   LINE      CODE     ---       #486
      00FF6CCDH   LINE      CODE     ---       #487
      00FF6CFCH   LINE      CODE     ---       #490
      00FF6D19H   LINE      CODE     ---       #493
      00FF6D28H   LINE      CODE     ---       #495
      00FF6D32H   LINE      CODE     ---       #496
      00FF6D47H   LINE      CODE     ---       #497
      00FF6D71H   LINE      CODE     ---       #498
      00FF6D73H   LINE      CODE     ---       #500
      00FF6D90H   LINE      CODE     ---       #503
      00FF6D9CH   LINE      CODE     ---       #505
      00FF6DA6H   LINE      CODE     ---       #506
      00FF6DBBH   LINE      CODE     ---       #507
      00FF6DE8H   LINE      CODE     ---       #508
      00FF6DE8H   LINE      CODE     ---       #512
      00FF6DF3H   LINE      CODE     ---       #514
      00FF6DF9H   LINE      CODE     ---       #515
      00FF6DF9H   LINE      CODE     ---       #517
      ---         BLOCKEND  ---      ---       LVL=0

      00FF5C13H   BLOCK     CODE     ---       LVL=0
      00010ABBH   SYMBOL    XDATA    ---       set_rate
      00010AD7H   SYMBOL    XDATA    ---       open_gga
      00010AE2H   SYMBOL    XDATA    ---       open_rmc
      00010AEDH   SYMBOL    XDATA    ---       close_gll
      00010AF8H   SYMBOL    XDATA    ---       close_gsa
      00010B03H   SYMBOL    XDATA    ---       close_grs
      00010B0EH   SYMBOL    XDATA    ---       close_gsv
      00010B19H   SYMBOL    XDATA    ---       close_vtg
      00010B24H   SYMBOL    XDATA    ---       close_zda
      00010B2FH   SYMBOL    XDATA    ---       close_gst
      00010B3AH   SYMBOL    XDATA    ---       close_txt
      00010B45H   SYMBOL    XDATA    ---       close_txt_ant
      00FF5C13H   LINE      CODE     ---       #526
      00FF5C13H   LINE      CODE     ---       #527
      00FF5C13H   LINE      CODE     ---       #528
      00FF5C28H   LINE      CODE     ---       #529
      00FF5C3DH   LINE      CODE     ---       #530
      00FF5C52H   LINE      CODE     ---       #532
      00FF5C67H   LINE      CODE     ---       #533
      00FF5C7CH   LINE      CODE     ---       #534
      00FF5C91H   LINE      CODE     ---       #535
      00FF5CA6H   LINE      CODE     ---       #536
      00FF5CBBH   LINE      CODE     ---       #537
      00FF5CD0H   LINE      CODE     ---       #538
      00FF5CE5H   LINE      CODE     ---       #539
      00FF5CFAH   LINE      CODE     ---       #540
      00FF5D0FH   LINE      CODE     ---       #542
      00FF5D3CH   LINE      CODE     ---       #543
      00FF5D43H   LINE      CODE     ---       #545
      00FF5D60H   LINE      CODE     ---       #546
      00FF5D68H   LINE      CODE     ---       #548
      00FF5D7BH   LINE      CODE     ---       #550
      00FF5D8EH   LINE      CODE     ---       #551
      00FF5D95H   LINE      CODE     ---       #553
      00FF5DA8H   LINE      CODE     ---       #554
      00FF5DAFH   LINE      CODE     ---       #555
      00FF5DC2H   LINE      CODE     ---       #556
      00FF5DC9H   LINE      CODE     ---       #557
      00FF5DDCH   LINE      CODE     ---       #558
      00FF5DE3H   LINE      CODE     ---       #559
L251 LINKER/LOCATER V4.66.93.0                                                        02/28/2025  00:29:39  PAGE 106


      00FF5DF6H   LINE      CODE     ---       #560
      00FF5DFDH   LINE      CODE     ---       #561
      00FF5E10H   LINE      CODE     ---       #562
      00FF5E17H   LINE      CODE     ---       #563
      00FF5E2AH   LINE      CODE     ---       #564
      00FF5E31H   LINE      CODE     ---       #565
      00FF5E44H   LINE      CODE     ---       #566
      00FF5E4BH   LINE      CODE     ---       #567
      00FF5E5EH   LINE      CODE     ---       #568
      00FF5E65H   LINE      CODE     ---       #569
      00FF5E78H   LINE      CODE     ---       #570
      00FF5E7FH   LINE      CODE     ---       #571
      00FF5E92H   LINE      CODE     ---       #572
      00FF5E99H   LINE      CODE     ---       #573
      00FF5EACH   LINE      CODE     ---       #574
      00FF5EB3H   LINE      CODE     ---       #576
      00FF5EB9H   LINE      CODE     ---       #577
      ---         BLOCKEND  ---      ---       LVL=0

      ---         MODULE    ---      ---       zf_device_tsl1401
      00FF943EH   PUBLIC    CODE     ---       tsl1401_init
      00010428H   PUBLIC    XDATA    BYTE      tsl1401_finish_flag
      00010429H   PUBLIC    XDATA    ---       tsl1401_data
      000000D0H   SFRSYM    DATA     BYTE      PSW
      0000009DH   SFRSYM    DATA     BYTE      IRCBAND
      00000097H   SFRSYM    DATA     BYTE      AUXR2
      000000EFH   SFRSYM    DATA     BYTE      AUXINTIF
      000000FDH   SFRSYM    DATA     BYTE      S4CON
      000000ACH   SFRSYM    DATA     BYTE      S3CON
      0000009AH   SFRSYM    DATA     BYTE      S2CON
      000000B7H   SFRSYM    DATA     BYTE      IPH
      000000CDH   SFRSYM    DATA     BYTE      SPSTAT
      000000DDH   SFRSYM    DATA     BYTE      T4T3M
      000000C1H   SFRSYM    DATA     BYTE      WDT_CONTR
      000000DFH   SFRSYM    DATA     BYTE      IP3
      000000F4H   SFRSYM    DATA     BYTE      USBCON
      000000B5H   SFRSYM    DATA     BYTE      IP2
      000000FFH   SFRSYM    DATA     BYTE      RSTCFG
      000000C7H   SFRSYM    DATA     BYTE      IAP_CONTR
      0000008EH   SFRSYM    DATA     BYTE      AUXR
      000000AFH   SFRSYM    DATA     BYTE      IE2
      00000088H   SFRSYM    DATA     BYTE      TCON
      00000089H   SFRSYM    DATA     BYTE      TMOD
      00000098H   SFRSYM    DATA     BYTE      SCON
      00000087H   SFRSYM    DATA     BYTE      PCON
      000000BCH   SFRSYM    DATA     BYTE      ADC_CONTR
      000000D1H   SFRSYM    DATA     BYTE      PSW1
      000000E7H   SFRSYM    DATA     BYTE      CMPCR2
      000000E6H   SFRSYM    DATA     BYTE      CMPCR1
      000000DEH   SFRSYM    DATA     BYTE      ADCCFG
      000000B8H   SFRSYM    DATA     BYTE      IP
      0000008FH   SFRSYM    DATA     BYTE      INTCLKO
      000000EEH   SFRSYM    DATA     BYTE      IP3H
      000000B6H   SFRSYM    DATA     BYTE      IP2H
      000000BFH   SFRSYM    DATA     BYTE      P_SW4
      000000A8H   SFRSYM    DATA     BYTE      IE
      000000BBH   SFRSYM    DATA     BYTE      P_SW3
      000000BAH   SFRSYM    DATA     BYTE      P_SW2
      000000A2H   SFRSYM    DATA     BYTE      P_SW1
      000000CEH   SFRSYM    DATA     BYTE      SPCTL
      000000F8H   SFRSYM    DATA     BYTE      P7
      000000E8H   SFRSYM    DATA     BYTE      P6
      000000C8H   SFRSYM    DATA     BYTE      P5
      000000C0H   SFRSYM    DATA     BYTE      P4
      000000ABH   SFRSYM    DATA     BYTE      WKTCH
L251 LINKER/LOCATER V4.66.93.0                                                        02/28/2025  00:29:39  PAGE 107


      000000B0H   SFRSYM    DATA     BYTE      P3
      000000A0H   SFRSYM    DATA     BYTE      P2
      00000090H   SFRSYM    DATA     BYTE      P1
      00000080H   SFRSYM    DATA     BYTE      P0
      00010629H   SYMBOL    XDATA    BYTE      tsl1401_init_state
      R15         REGSYM    ---      BYTE      i
      WR14        REGSYM    ---      INT       uart_n
      R13         REGSYM    ---      BYTE      index
      R12         REGSYM    ---      BYTE      i

      00FF943EH   BLOCK     CODE     ---       LVL=0
      00FF943EH   LINE      CODE     ---       #126
      00FF943EH   LINE      CODE     ---       #128
      00FF9444H   LINE      CODE     ---       #129
      00FF944FH   LINE      CODE     ---       #130
      00FF945AH   LINE      CODE     ---       #131
      00FF946AH   LINE      CODE     ---       #132
      ---         BLOCKEND  ---      ---       LVL=0

      ---         MODULE    ---      ---       seekfree_assistant
      00FF00C6H   PUBLIC    CODE     ---       seekfree_assistant_camera_dot_send
      00FF7440H   PUBLIC    CODE     ---       seekfree_assistant_camera_data_send
      00010986H   PUBLIC    XDATA    ---       seekfree_assistant_oscilloscope_data
      000109C1H   PUBLIC    XDATA    ---       seekfree_assistant_parameter_update_flag
      000109C9H   PUBLIC    XDATA    ---       seekfree_assistant_parameter
      00010E12H   PUBLIC    XDATA    BYTE      ?seekfree_assistant_camera_data_send?BYTE
      000000D0H   SFRSYM    DATA     BYTE      PSW
      0000009DH   SFRSYM    DATA     BYTE      IRCBAND
      00000097H   SFRSYM    DATA     BYTE      AUXR2
      000000EFH   SFRSYM    DATA     BYTE      AUXINTIF
      000000FDH   SFRSYM    DATA     BYTE      S4CON
      000000ACH   SFRSYM    DATA     BYTE      S3CON
      0000009AH   SFRSYM    DATA     BYTE      S2CON
      000000B7H   SFRSYM    DATA     BYTE      IPH
      000000CDH   SFRSYM    DATA     BYTE      SPSTAT
      000000DDH   SFRSYM    DATA     BYTE      T4T3M
      000000C1H   SFRSYM    DATA     BYTE      WDT_CONTR
      000000DFH   SFRSYM    DATA     BYTE      IP3
      000000F4H   SFRSYM    DATA     BYTE      USBCON
      000000B5H   SFRSYM    DATA     BYTE      IP2
      000000FFH   SFRSYM    DATA     BYTE      RSTCFG
      000000C7H   SFRSYM    DATA     BYTE      IAP_CONTR
      0000008EH   SFRSYM    DATA     BYTE      AUXR
      000000AFH   SFRSYM    DATA     BYTE      IE2
      00000088H   SFRSYM    DATA     BYTE      TCON
      00000089H   SFRSYM    DATA     BYTE      TMOD
      00000098H   SFRSYM    DATA     BYTE      SCON
      00000087H   SFRSYM    DATA     BYTE      PCON
      000000BCH   SFRSYM    DATA     BYTE      ADC_CONTR
      000000D1H   SFRSYM    DATA     BYTE      PSW1
      000000E7H   SFRSYM    DATA     BYTE      CMPCR2
      000000E6H   SFRSYM    DATA     BYTE      CMPCR1
      000000DEH   SFRSYM    DATA     BYTE      ADCCFG
      000000B8H   SFRSYM    DATA     BYTE      IP
      0000008FH   SFRSYM    DATA     BYTE      INTCLKO
      000000EEH   SFRSYM    DATA     BYTE      IP3H
      000000B6H   SFRSYM    DATA     BYTE      IP2H
      000000BFH   SFRSYM    DATA     BYTE      P_SW4
      000000A8H   SFRSYM    DATA     BYTE      IE
      000000BBH   SFRSYM    DATA     BYTE      P_SW3
      000000BAH   SFRSYM    DATA     BYTE      P_SW2
      000000A2H   SFRSYM    DATA     BYTE      P_SW1
      000000CEH   SFRSYM    DATA     BYTE      SPCTL
      000000F8H   SFRSYM    DATA     BYTE      P7
      000000A8H.7 SFRSYM    DATA     BIT       EA
L251 LINKER/LOCATER V4.66.93.0                                                        02/28/2025  00:29:39  PAGE 108


      000000E8H   SFRSYM    DATA     BYTE      P6
      000000C8H   SFRSYM    DATA     BYTE      P5
      000000C0H   SFRSYM    DATA     BYTE      P4
      000000ABH   SFRSYM    DATA     BYTE      WKTCH
      000000B0H   SFRSYM    DATA     BYTE      P3
      000000A0H   SFRSYM    DATA     BYTE      P2
      00000090H   SFRSYM    DATA     BYTE      P1
      00000080H   SFRSYM    DATA     BYTE      P0
      0001097EH   SYMBOL    XDATA    ---       seekfree_assistant_camera_dot_data
      000109AAH   SYMBOL    XDATA    ---       seekfree_assistant_fifo
      000109E9H   SYMBOL    XDATA    ---       seekfree_assistant_camera_buffer
      00010A33H   SYMBOL    XDATA    ---       seekfree_assistant_camera_data
      00010A3BH   SYMBOL    XDATA    ---       seekfree_assistant_buffer
      00FFA290H   SYMBOL    HCONST   ---       ?tpl?0001
      00FFA2B4H   SYMBOL    HCONST   ---       ?tpl?0002
      REG=6       REGSYM    ---      ---       buffer
      DR28        REGSYM    ---      DWORD     length
      R11         REGSYM    ---      BYTE      temp_sum

      00FF7440H   BLOCK     CODE     ---       LVL=0
      WR12        REGSYM    ---      INT       camera_type
      00010E17H   SYMBOL    XDATA    ---       image_addr
      R9          REGSYM    ---      BYTE      boundary_num
      WR14        REGSYM    ---      WORD      width
      00010E1BH   SYMBOL    XDATA    WORD      height
      00FF7452H   BLOCK     CODE     NEAR LAB  LVL=1
      00010E1DH   SYMBOL    XDATA    DWORD     image_size
      ---         BLOCKEND  ---      ---       LVL=1
      00FF7440H   LINE      CODE     ---       #79
      00FF7452H   LINE      CODE     ---       #80
      00FF7452H   LINE      CODE     ---       #81
      00FF745EH   LINE      CODE     ---       #83
      00FF7464H   LINE      CODE     ---       #84
      00FF746AH   LINE      CODE     ---       #85
      00FF749DH   LINE      CODE     ---       #87
      00FF74A3H   LINE      CODE     ---       #88
      00FF74B1H   LINE      CODE     ---       #89
      00FF74C3H   LINE      CODE     ---       #92
      00FF74D7H   LINE      CODE     ---       #95
      00FF74E3H   LINE      CODE     ---       #97
      00FF74E3H   LINE      CODE     ---       #99
      00FF74F1H   LINE      CODE     ---       #100
      00FF74F3H   LINE      CODE     ---       #102
      00FF74F3H   LINE      CODE     ---       #104
      00FF74FBH   LINE      CODE     ---       #105
      00FF74FDH   LINE      CODE     ---       #107
      00FF74FDH   LINE      CODE     ---       #109
      00FF7513H   LINE      CODE     ---       #110
      00FF7513H   LINE      CODE     ---       #111
      00FF7513H   LINE      CODE     ---       #114
      00FF7523H   LINE      CODE     ---       #116
      00FF7535H   LINE      CODE     ---       #117
      ---         BLOCKEND  ---      ---       LVL=0
      WR6         REGSYM    ---      INT       camera_type
      REG=0       REGSYM    ---      ---       image_addr
      WR4         REGSYM    ---      WORD      width
      REG=7       REGSYM    ---      ---       seekfree_assistant_oscilloscope
      R15         REGSYM    ---      BYTE      packet_size
      R15         REGSYM    ---      BYTE      i

      00FF00C6H   BLOCK     CODE     ---       LVL=0
      REG=3       REGSYM    ---      ---       buffer
      00FF00CAH   BLOCK     CODE     NEAR LAB  LVL=1
      00010E89H   SYMBOL    XDATA    BYTE      i
      00010E8AH   SYMBOL    XDATA    WORD      dot_bytes
L251 LINKER/LOCATER V4.66.93.0                                                        02/28/2025  00:29:39  PAGE 109


      ---         BLOCKEND  ---      ---       LVL=1
      00FF00C6H   LINE      CODE     ---       #185
      00FF00CAH   LINE      CODE     ---       #186
      00FF00CAH   LINE      CODE     ---       #188
      00FF00D2H   LINE      CODE     ---       #190
      00FF00DEH   LINE      CODE     ---       #191
      00FF00F2H   LINE      CODE     ---       #192
      00FF00FEH   LINE      CODE     ---       #194
      00FF010DH   LINE      CODE     ---       #195
      00FF010DH   LINE      CODE     ---       #198
      00FF0121H   LINE      CODE     ---       #200
      00FF0126H   LINE      CODE     ---       #203
      00FF0142H   LINE      CODE     ---       #205
      00FF0152H   LINE      CODE     ---       #206
      00FF0152H   LINE      CODE     ---       #209
      00FF016EH   LINE      CODE     ---       #213
      00FF017EH   LINE      CODE     ---       #214
      00FF018DH   LINE      CODE     ---       #216
      ---         BLOCKEND  ---      ---       LVL=0
      WR8         REGSYM    ---      INT       boundary_type
      WR2         REGSYM    ---      WORD      dot_num
      REG=7       REGSYM    ---      ---       dot_x1
      R4          REGSYM    ---      BYTE      i
      R7          REGSYM    ---      BYTE      boundary_num
      R5          REGSYM    ---      BYTE      boundary_data_type
      REG=3       REGSYM    ---      ---       receive_packet

      ---         MODULE    ---      ---       seekfree_assistant_interface
      00010E7FH   PUBLIC    XDATA    ---       seekfree_assistant_receive_callback
      00010E81H   PUBLIC    XDATA    ---       seekfree_assistant_transfer_callback
      000000D0H   SFRSYM    DATA     BYTE      PSW
      0000009DH   SFRSYM    DATA     BYTE      IRCBAND
      00000097H   SFRSYM    DATA     BYTE      AUXR2
      000000EFH   SFRSYM    DATA     BYTE      AUXINTIF
      000000FDH   SFRSYM    DATA     BYTE      S4CON
      000000ACH   SFRSYM    DATA     BYTE      S3CON
      0000009AH   SFRSYM    DATA     BYTE      S2CON
      000000B7H   SFRSYM    DATA     BYTE      IPH
      000000CDH   SFRSYM    DATA     BYTE      SPSTAT
      000000DDH   SFRSYM    DATA     BYTE      T4T3M
      000000C1H   SFRSYM    DATA     BYTE      WDT_CONTR
      000000DFH   SFRSYM    DATA     BYTE      IP3
      000000F4H   SFRSYM    DATA     BYTE      USBCON
      000000B5H   SFRSYM    DATA     BYTE      IP2
      000000FFH   SFRSYM    DATA     BYTE      RSTCFG
      000000C7H   SFRSYM    DATA     BYTE      IAP_CONTR
      0000008EH   SFRSYM    DATA     BYTE      AUXR
      000000AFH   SFRSYM    DATA     BYTE      IE2
      00000088H   SFRSYM    DATA     BYTE      TCON
      00000089H   SFRSYM    DATA     BYTE      TMOD
      00000098H   SFRSYM    DATA     BYTE      SCON
      00000087H   SFRSYM    DATA     BYTE      PCON
      000000BCH   SFRSYM    DATA     BYTE      ADC_CONTR
      000000D1H   SFRSYM    DATA     BYTE      PSW1
      000000E7H   SFRSYM    DATA     BYTE      CMPCR2
      000000E6H   SFRSYM    DATA     BYTE      CMPCR1
      000000DEH   SFRSYM    DATA     BYTE      ADCCFG
      000000B8H   SFRSYM    DATA     BYTE      IP
      0000008FH   SFRSYM    DATA     BYTE      INTCLKO
      000000EEH   SFRSYM    DATA     BYTE      IP3H
      000000B6H   SFRSYM    DATA     BYTE      IP2H
      000000BFH   SFRSYM    DATA     BYTE      P_SW4
      000000A8H   SFRSYM    DATA     BYTE      IE
      000000BBH   SFRSYM    DATA     BYTE      P_SW3
      000000BAH   SFRSYM    DATA     BYTE      P_SW2
L251 LINKER/LOCATER V4.66.93.0                                                        02/28/2025  00:29:39  PAGE 110


      000000A2H   SFRSYM    DATA     BYTE      P_SW1
      000000CEH   SFRSYM    DATA     BYTE      SPCTL
      000000F8H   SFRSYM    DATA     BYTE      P7
      000000E8H   SFRSYM    DATA     BYTE      P6
      000000C8H   SFRSYM    DATA     BYTE      P5
      000000C0H   SFRSYM    DATA     BYTE      P4
      000000ABH   SFRSYM    DATA     BYTE      WKTCH
      000000B0H   SFRSYM    DATA     BYTE      P3
      000000A0H   SFRSYM    DATA     BYTE      P2
      00000090H   SFRSYM    DATA     BYTE      P1
      00000080H   SFRSYM    DATA     BYTE      P0
      WR6         REGSYM    ---      INT       transfer_device

      ---         MODULE    ---      ---       isr
      00FF8EA0H   PUBLIC    CODE     ---       TM11_IRQHandler
      00FF7F87H   PUBLIC    CODE     ---       DMA_UART1_IRQHandler
      00FF85A3H   PUBLIC    CODE     ---       DMA_UART2_IRQHandler
      00FF861CH   PUBLIC    CODE     ---       DMA_UART3_IRQHandler
      00FF8695H   PUBLIC    CODE     ---       DMA_UART4_IRQHandler
      00FF9217H   PUBLIC    CODE     ---       TM0_IRQHandler
      00FF9255H   PUBLIC    CODE     ---       TM1_IRQHandler
      00FF9293H   PUBLIC    CODE     ---       TM2_IRQHandler
      00FF92D1H   PUBLIC    CODE     ---       TM3_IRQHandler
      00FF930FH   PUBLIC    CODE     ---       TM4_IRQHandler
      000000D0H   SFRSYM    DATA     BYTE      PSW
      0000009DH   SFRSYM    DATA     BYTE      IRCBAND
      00000097H   SFRSYM    DATA     BYTE      AUXR2
      000000EFH   SFRSYM    DATA     BYTE      AUXINTIF
      000000FDH   SFRSYM    DATA     BYTE      S4CON
      000000ACH   SFRSYM    DATA     BYTE      S3CON
      0000009AH   SFRSYM    DATA     BYTE      S2CON
      000000B7H   SFRSYM    DATA     BYTE      IPH
      000000CDH   SFRSYM    DATA     BYTE      SPSTAT
      000000DDH   SFRSYM    DATA     BYTE      T4T3M
      000000C1H   SFRSYM    DATA     BYTE      WDT_CONTR
      000000DFH   SFRSYM    DATA     BYTE      IP3
      000000F4H   SFRSYM    DATA     BYTE      USBCON
      000000B5H   SFRSYM    DATA     BYTE      IP2
      000000FFH   SFRSYM    DATA     BYTE      RSTCFG
      000000C7H   SFRSYM    DATA     BYTE      IAP_CONTR
      0000008EH   SFRSYM    DATA     BYTE      AUXR
      000000AFH   SFRSYM    DATA     BYTE      IE2
      00000088H   SFRSYM    DATA     BYTE      TCON
      00000089H   SFRSYM    DATA     BYTE      TMOD
      00000098H   SFRSYM    DATA     BYTE      SCON
      00000087H   SFRSYM    DATA     BYTE      PCON
      000000BCH   SFRSYM    DATA     BYTE      ADC_CONTR
      000000D1H   SFRSYM    DATA     BYTE      PSW1
      000000E7H   SFRSYM    DATA     BYTE      CMPCR2
      000000E6H   SFRSYM    DATA     BYTE      CMPCR1
      000000DEH   SFRSYM    DATA     BYTE      ADCCFG
      000000B8H   SFRSYM    DATA     BYTE      IP
      0000008FH   SFRSYM    DATA     BYTE      INTCLKO
      000000EEH   SFRSYM    DATA     BYTE      IP3H
      000000B6H   SFRSYM    DATA     BYTE      IP2H
      000000BFH   SFRSYM    DATA     BYTE      P_SW4
      000000A8H   SFRSYM    DATA     BYTE      IE
      000000BBH   SFRSYM    DATA     BYTE      P_SW3
      000000BAH   SFRSYM    DATA     BYTE      P_SW2
      000000A2H   SFRSYM    DATA     BYTE      P_SW1
      000000CEH   SFRSYM    DATA     BYTE      SPCTL
      000000F8H   SFRSYM    DATA     BYTE      P7
      000000E8H   SFRSYM    DATA     BYTE      P6
      000000C8H   SFRSYM    DATA     BYTE      P5
      000000C0H   SFRSYM    DATA     BYTE      P4
L251 LINKER/LOCATER V4.66.93.0                                                        02/28/2025  00:29:39  PAGE 111


      000000ABH   SFRSYM    DATA     BYTE      WKTCH
      000000B0H   SFRSYM    DATA     BYTE      P3
      000000A0H   SFRSYM    DATA     BYTE      P2
      00000090H   SFRSYM    DATA     BYTE      P1
      00000080H   SFRSYM    DATA     BYTE      P0

      00FF7F87H   BLOCK     CODE     ---       LVL=0
      00FF7F9BH   BLOCK     CODE     NEAR LAB  LVL=1
      00010E95H   SYMBOL    XDATA    BYTE      dwon_count
      ---         BLOCKEND  ---      ---       LVL=1
      00FF7F87H   LINE      CODE     ---       #40
      00FF7F9BH   LINE      CODE     ---       #41
      00FF7F9BH   LINE      CODE     ---       #43
      00FF7FA9H   LINE      CODE     ---       #45
      00FF7FB1H   LINE      CODE     ---       #46
      00FF7FB6H   LINE      CODE     ---       #49
      00FF7FC1H   LINE      CODE     ---       #51
      00FF7FD0H   LINE      CODE     ---       #53
      00FF7FD3H   LINE      CODE     ---       #54
      00FF7FD5H   LINE      CODE     ---       #58
      00FF7FDAH   LINE      CODE     ---       #59
      00FF7FDAH   LINE      CODE     ---       #61
      00FF7FE4H   LINE      CODE     ---       #63
      00FF7FEEH   LINE      CODE     ---       #64
      00FF7FEEH   LINE      CODE     ---       #67
      00FF7FFCH   LINE      CODE     ---       #69
      00FF8004H   LINE      CODE     ---       #70
      00FF8009H   LINE      CODE     ---       #74
      ---         BLOCKEND  ---      ---       LVL=0

      00FF85A3H   BLOCK     CODE     ---       LVL=0
      00FF85A3H   LINE      CODE     ---       #79
      00FF85B7H   LINE      CODE     ---       #82
      00FF85C5H   LINE      CODE     ---       #84
      00FF85CDH   LINE      CODE     ---       #85
      00FF85D4H   LINE      CODE     ---       #87
      00FF85DEH   LINE      CODE     ---       #89
      00FF85EAH   LINE      CODE     ---       #90
      00FF85EAH   LINE      CODE     ---       #93
      00FF85F8H   LINE      CODE     ---       #95
      00FF8600H   LINE      CODE     ---       #96
      00FF8607H   LINE      CODE     ---       #101
      ---         BLOCKEND  ---      ---       LVL=0

      00FF861CH   BLOCK     CODE     ---       LVL=0
      00FF861CH   LINE      CODE     ---       #104
      00FF8630H   LINE      CODE     ---       #107
      00FF863EH   LINE      CODE     ---       #109
      00FF8646H   LINE      CODE     ---       #110
      00FF864DH   LINE      CODE     ---       #112
      00FF8657H   LINE      CODE     ---       #115
      00FF8663H   LINE      CODE     ---       #117
      00FF8663H   LINE      CODE     ---       #120
      00FF8671H   LINE      CODE     ---       #122
      00FF8679H   LINE      CODE     ---       #123
      00FF8680H   LINE      CODE     ---       #128
      ---         BLOCKEND  ---      ---       LVL=0

      00FF8695H   BLOCK     CODE     ---       LVL=0
      00FF8695H   LINE      CODE     ---       #131
      00FF86A9H   LINE      CODE     ---       #134
      00FF86B7H   LINE      CODE     ---       #136
      00FF86BFH   LINE      CODE     ---       #137
      00FF86C6H   LINE      CODE     ---       #139
      00FF86D0H   LINE      CODE     ---       #141
L251 LINKER/LOCATER V4.66.93.0                                                        02/28/2025  00:29:39  PAGE 112


      00FF86DCH   LINE      CODE     ---       #143
      00FF86DCH   LINE      CODE     ---       #146
      00FF86EAH   LINE      CODE     ---       #148
      00FF86F2H   LINE      CODE     ---       #149
      00FF86F9H   LINE      CODE     ---       #154
      ---         BLOCKEND  ---      ---       LVL=0

      00FF9217H   BLOCK     CODE     ---       LVL=0
      00FF9217H   LINE      CODE     ---       #158
      00FF922BH   LINE      CODE     ---       #160
      00FF922EH   LINE      CODE     ---       #162
      00FF9238H   LINE      CODE     ---       #164
      00FF9240H   LINE      CODE     ---       #165
      ---         BLOCKEND  ---      ---       LVL=0

      00FF9255H   BLOCK     CODE     ---       LVL=0
      00FF9255H   LINE      CODE     ---       #167
      00FF9269H   LINE      CODE     ---       #169
      00FF926CH   LINE      CODE     ---       #171
      00FF9276H   LINE      CODE     ---       #173
      00FF927EH   LINE      CODE     ---       #174
      ---         BLOCKEND  ---      ---       LVL=0

      00FF9293H   BLOCK     CODE     ---       LVL=0
      00FF9293H   LINE      CODE     ---       #176
      00FF92A7H   LINE      CODE     ---       #178
      00FF92AAH   LINE      CODE     ---       #180
      00FF92B4H   LINE      CODE     ---       #182
      00FF92BCH   LINE      CODE     ---       #183
      ---         BLOCKEND  ---      ---       LVL=0

      00FF92D1H   BLOCK     CODE     ---       LVL=0
      00FF92D1H   LINE      CODE     ---       #185
      00FF92E5H   LINE      CODE     ---       #187
      00FF92E8H   LINE      CODE     ---       #189
      00FF92F2H   LINE      CODE     ---       #191
      00FF92FAH   LINE      CODE     ---       #192
      ---         BLOCKEND  ---      ---       LVL=0

      00FF930FH   BLOCK     CODE     ---       LVL=0
      00FF930FH   LINE      CODE     ---       #195
      00FF9323H   LINE      CODE     ---       #197
      00FF9326H   LINE      CODE     ---       #199
      00FF9330H   LINE      CODE     ---       #201
      00FF9338H   LINE      CODE     ---       #202
      ---         BLOCKEND  ---      ---       LVL=0

      00FF8EA0H   BLOCK     CODE     ---       LVL=0
      00FF8EA0H   LINE      CODE     ---       #205
      00FF8EB4H   LINE      CODE     ---       #207
      00FF8EC4H   LINE      CODE     ---       #209
      00FF8ECEH   LINE      CODE     ---       #211
      00FF8ED6H   LINE      CODE     ---       #212
      ---         BLOCKEND  ---      ---       LVL=0

      ---         MODULE    ---      ---       main
      00FF97C2H   PUBLIC    CODE     ---       main
      000000D0H   SFRSYM    DATA     BYTE      PSW
      0000009DH   SFRSYM    DATA     BYTE      IRCBAND
      00000097H   SFRSYM    DATA     BYTE      AUXR2
      000000EFH   SFRSYM    DATA     BYTE      AUXINTIF
      000000FDH   SFRSYM    DATA     BYTE      S4CON
      000000ACH   SFRSYM    DATA     BYTE      S3CON
      0000009AH   SFRSYM    DATA     BYTE      S2CON
      000000B7H   SFRSYM    DATA     BYTE      IPH
L251 LINKER/LOCATER V4.66.93.0                                                        02/28/2025  00:29:39  PAGE 113


      000000CDH   SFRSYM    DATA     BYTE      SPSTAT
      000000DDH   SFRSYM    DATA     BYTE      T4T3M
      000000C1H   SFRSYM    DATA     BYTE      WDT_CONTR
      000000DFH   SFRSYM    DATA     BYTE      IP3
      000000F4H   SFRSYM    DATA     BYTE      USBCON
      000000B5H   SFRSYM    DATA     BYTE      IP2
      000000FFH   SFRSYM    DATA     BYTE      RSTCFG
      000000C7H   SFRSYM    DATA     BYTE      IAP_CONTR
      0000008EH   SFRSYM    DATA     BYTE      AUXR
      000000AFH   SFRSYM    DATA     BYTE      IE2
      00000088H   SFRSYM    DATA     BYTE      TCON
      00000089H   SFRSYM    DATA     BYTE      TMOD
      00000098H   SFRSYM    DATA     BYTE      SCON
      00000087H   SFRSYM    DATA     BYTE      PCON
      000000BCH   SFRSYM    DATA     BYTE      ADC_CONTR
      000000D1H   SFRSYM    DATA     BYTE      PSW1
      000000E7H   SFRSYM    DATA     BYTE      CMPCR2
      000000E6H   SFRSYM    DATA     BYTE      CMPCR1
      000000DEH   SFRSYM    DATA     BYTE      ADCCFG
      000000B8H   SFRSYM    DATA     BYTE      IP
      0000008FH   SFRSYM    DATA     BYTE      INTCLKO
      000000EEH   SFRSYM    DATA     BYTE      IP3H
      000000B6H   SFRSYM    DATA     BYTE      IP2H
      000000BFH   SFRSYM    DATA     BYTE      P_SW4
      000000A8H   SFRSYM    DATA     BYTE      IE
      000000BBH   SFRSYM    DATA     BYTE      P_SW3
      000000BAH   SFRSYM    DATA     BYTE      P_SW2
      000000A2H   SFRSYM    DATA     BYTE      P_SW1
      000000CEH   SFRSYM    DATA     BYTE      SPCTL
      000000F8H   SFRSYM    DATA     BYTE      P7
      000000E8H   SFRSYM    DATA     BYTE      P6
      000000C8H   SFRSYM    DATA     BYTE      P5
      000000C0H   SFRSYM    DATA     BYTE      P4
      000000ABH   SFRSYM    DATA     BYTE      WKTCH
      000000B0H   SFRSYM    DATA     BYTE      P3
      000000A0H   SFRSYM    DATA     BYTE      P2
      00000090H   SFRSYM    DATA     BYTE      P1
      00000080H   SFRSYM    DATA     BYTE      P0

      00FF97C2H   BLOCK     CODE     ---       LVL=0
      00FF97C2H   LINE      CODE     ---       #43
      00FF97C2H   LINE      CODE     ---       #45
      00FF97CDH   LINE      CODE     ---       #46
      00FF97D0H   LINE      CODE     ---       #49
      00FF97D3H   LINE      CODE     ---       #52
      00FF97D3H   LINE      CODE     ---       #59
      00FF97D6H   LINE      CODE     ---       #62
      ---         BLOCKEND  ---      ---       LVL=0

      ---         MODULE    ---      ---       sys
      00FF96BEH   PUBLIC    CODE     ---       All_Init
      00010C76H   PUBLIC    XDATA    ---       rxpack
      00010C93H   PUBLIC    XDATA    ---       txpack
      000000D0H   SFRSYM    DATA     BYTE      PSW
      0000009DH   SFRSYM    DATA     BYTE      IRCBAND
      00000097H   SFRSYM    DATA     BYTE      AUXR2
      000000EFH   SFRSYM    DATA     BYTE      AUXINTIF
      000000FDH   SFRSYM    DATA     BYTE      S4CON
      000000ACH   SFRSYM    DATA     BYTE      S3CON
      0000009AH   SFRSYM    DATA     BYTE      S2CON
      000000B7H   SFRSYM    DATA     BYTE      IPH
      000000CDH   SFRSYM    DATA     BYTE      SPSTAT
      000000DDH   SFRSYM    DATA     BYTE      T4T3M
      000000C1H   SFRSYM    DATA     BYTE      WDT_CONTR
      000000DFH   SFRSYM    DATA     BYTE      IP3
L251 LINKER/LOCATER V4.66.93.0                                                        02/28/2025  00:29:39  PAGE 114


      000000F4H   SFRSYM    DATA     BYTE      USBCON
      000000B5H   SFRSYM    DATA     BYTE      IP2
      000000FFH   SFRSYM    DATA     BYTE      RSTCFG
      000000C7H   SFRSYM    DATA     BYTE      IAP_CONTR
      0000008EH   SFRSYM    DATA     BYTE      AUXR
      000000AFH   SFRSYM    DATA     BYTE      IE2
      00000088H   SFRSYM    DATA     BYTE      TCON
      00000089H   SFRSYM    DATA     BYTE      TMOD
      00000098H   SFRSYM    DATA     BYTE      SCON
      00000087H   SFRSYM    DATA     BYTE      PCON
      000000BCH   SFRSYM    DATA     BYTE      ADC_CONTR
      000000D1H   SFRSYM    DATA     BYTE      PSW1
      000000E7H   SFRSYM    DATA     BYTE      CMPCR2
      000000E6H   SFRSYM    DATA     BYTE      CMPCR1
      000000DEH   SFRSYM    DATA     BYTE      ADCCFG
      000000B8H   SFRSYM    DATA     BYTE      IP
      0000008FH   SFRSYM    DATA     BYTE      INTCLKO
      000000EEH   SFRSYM    DATA     BYTE      IP3H
      000000B6H   SFRSYM    DATA     BYTE      IP2H
      000000BFH   SFRSYM    DATA     BYTE      P_SW4
      000000A8H   SFRSYM    DATA     BYTE      IE
      000000BBH   SFRSYM    DATA     BYTE      P_SW3
      000000BAH   SFRSYM    DATA     BYTE      P_SW2
      000000A2H   SFRSYM    DATA     BYTE      P_SW1
      000000CEH   SFRSYM    DATA     BYTE      SPCTL
      000000F8H   SFRSYM    DATA     BYTE      P7
      000000E8H   SFRSYM    DATA     BYTE      P6
      000000C8H   SFRSYM    DATA     BYTE      P5
      000000C0H   SFRSYM    DATA     BYTE      P4
      000000ABH   SFRSYM    DATA     BYTE      WKTCH
      000000B0H   SFRSYM    DATA     BYTE      P3
      000000A0H   SFRSYM    DATA     BYTE      P2
      00000090H   SFRSYM    DATA     BYTE      P1
      00000080H   SFRSYM    DATA     BYTE      P0

      00FF96BEH   BLOCK     CODE     ---       LVL=0
      00FF96BEH   LINE      CODE     ---       #7
      00FF96BEH   LINE      CODE     ---       #9
      00FF96C1H   LINE      CODE     ---       #11
      00FF96C4H   LINE      CODE     ---       #12
      00FF96C7H   LINE      CODE     ---       #13
      00FF96CAH   LINE      CODE     ---       #14
      00FF96CDH   LINE      CODE     ---       #15
      00FF96D0H   LINE      CODE     ---       #17
      00FF96D3H   LINE      CODE     ---       #20
      00FF96E3H   LINE      CODE     ---       #22
      ---         BLOCKEND  ---      ---       LVL=0

      ---         MODULE    ---      ---       uart
      000000D0H   SFRSYM    DATA     BYTE      PSW
      0000009DH   SFRSYM    DATA     BYTE      IRCBAND
      00000097H   SFRSYM    DATA     BYTE      AUXR2
      000000EFH   SFRSYM    DATA     BYTE      AUXINTIF
      000000FDH   SFRSYM    DATA     BYTE      S4CON
      000000ACH   SFRSYM    DATA     BYTE      S3CON
      0000009AH   SFRSYM    DATA     BYTE      S2CON
      000000B7H   SFRSYM    DATA     BYTE      IPH
      000000CDH   SFRSYM    DATA     BYTE      SPSTAT
      000000DDH   SFRSYM    DATA     BYTE      T4T3M
      000000C1H   SFRSYM    DATA     BYTE      WDT_CONTR
      000000DFH   SFRSYM    DATA     BYTE      IP3
      000000F4H   SFRSYM    DATA     BYTE      USBCON
      000000B5H   SFRSYM    DATA     BYTE      IP2
      000000FFH   SFRSYM    DATA     BYTE      RSTCFG
      000000C7H   SFRSYM    DATA     BYTE      IAP_CONTR
L251 LINKER/LOCATER V4.66.93.0                                                        02/28/2025  00:29:39  PAGE 115


      0000008EH   SFRSYM    DATA     BYTE      AUXR
      000000AFH   SFRSYM    DATA     BYTE      IE2
      00000088H   SFRSYM    DATA     BYTE      TCON
      00000089H   SFRSYM    DATA     BYTE      TMOD
      00000098H   SFRSYM    DATA     BYTE      SCON
      00000087H   SFRSYM    DATA     BYTE      PCON
      000000BCH   SFRSYM    DATA     BYTE      ADC_CONTR
      000000D1H   SFRSYM    DATA     BYTE      PSW1
      000000E7H   SFRSYM    DATA     BYTE      CMPCR2
      000000E6H   SFRSYM    DATA     BYTE      CMPCR1
      000000DEH   SFRSYM    DATA     BYTE      ADCCFG
      000000B8H   SFRSYM    DATA     BYTE      IP
      0000008FH   SFRSYM    DATA     BYTE      INTCLKO
      000000EEH   SFRSYM    DATA     BYTE      IP3H
      000000B6H   SFRSYM    DATA     BYTE      IP2H
      000000BFH   SFRSYM    DATA     BYTE      P_SW4
      000000A8H   SFRSYM    DATA     BYTE      IE
      000000BBH   SFRSYM    DATA     BYTE      P_SW3
      000000BAH   SFRSYM    DATA     BYTE      P_SW2
      000000A2H   SFRSYM    DATA     BYTE      P_SW1
      000000CEH   SFRSYM    DATA     BYTE      SPCTL
      000000F8H   SFRSYM    DATA     BYTE      P7
      000000E8H   SFRSYM    DATA     BYTE      P6
      000000C8H   SFRSYM    DATA     BYTE      P5
      000000C0H   SFRSYM    DATA     BYTE      P4
      000000ABH   SFRSYM    DATA     BYTE      WKTCH
      000000B0H   SFRSYM    DATA     BYTE      P3
      000000A0H   SFRSYM    DATA     BYTE      P2
      00000090H   SFRSYM    DATA     BYTE      P1
      00000080H   SFRSYM    DATA     BYTE      P0
      WR14        REGSYM    ---      INT       uart_n
      DR28        REGSYM    ---      DWORD     baud
      WR10        REGSYM    ---      INT       tx_pin

      ---         MODULE    ---      ---       motor
      00FF8413H   PUBLIC    CODE     ---       Motor_Init
      00010E21H   PUBLIC    XDATA    LONG      speed_base
      00010E25H   PUBLIC    XDATA    LONG      position_out
      00010E29H   PUBLIC    XDATA    WORD      duty
      000000D0H   SFRSYM    DATA     BYTE      PSW
      0000009DH   SFRSYM    DATA     BYTE      IRCBAND
      00000097H   SFRSYM    DATA     BYTE      AUXR2
      000000EFH   SFRSYM    DATA     BYTE      AUXINTIF
      000000FDH   SFRSYM    DATA     BYTE      S4CON
      000000ACH   SFRSYM    DATA     BYTE      S3CON
      0000009AH   SFRSYM    DATA     BYTE      S2CON
      000000B7H   SFRSYM    DATA     BYTE      IPH
      000000CDH   SFRSYM    DATA     BYTE      SPSTAT
      000000DDH   SFRSYM    DATA     BYTE      T4T3M
      000000C1H   SFRSYM    DATA     BYTE      WDT_CONTR
      000000DFH   SFRSYM    DATA     BYTE      IP3
      000000F4H   SFRSYM    DATA     BYTE      USBCON
      000000B5H   SFRSYM    DATA     BYTE      IP2
      000000FFH   SFRSYM    DATA     BYTE      RSTCFG
      000000C7H   SFRSYM    DATA     BYTE      IAP_CONTR
      0000008EH   SFRSYM    DATA     BYTE      AUXR
      000000AFH   SFRSYM    DATA     BYTE      IE2
      00000088H   SFRSYM    DATA     BYTE      TCON
      00000089H   SFRSYM    DATA     BYTE      TMOD
      00000098H   SFRSYM    DATA     BYTE      SCON
      00000087H   SFRSYM    DATA     BYTE      PCON
      000000BCH   SFRSYM    DATA     BYTE      ADC_CONTR
      000000D1H   SFRSYM    DATA     BYTE      PSW1
      000000E7H   SFRSYM    DATA     BYTE      CMPCR2
      000000E6H   SFRSYM    DATA     BYTE      CMPCR1
L251 LINKER/LOCATER V4.66.93.0                                                        02/28/2025  00:29:39  PAGE 116


      000000DEH   SFRSYM    DATA     BYTE      ADCCFG
      000000B8H   SFRSYM    DATA     BYTE      IP
      0000008FH   SFRSYM    DATA     BYTE      INTCLKO
      000000EEH   SFRSYM    DATA     BYTE      IP3H
      000000B6H   SFRSYM    DATA     BYTE      IP2H
      000000BFH   SFRSYM    DATA     BYTE      P_SW4
      000000A8H   SFRSYM    DATA     BYTE      IE
      000000BBH   SFRSYM    DATA     BYTE      P_SW3
      000000BAH   SFRSYM    DATA     BYTE      P_SW2
      000000A2H   SFRSYM    DATA     BYTE      P_SW1
      000000CEH   SFRSYM    DATA     BYTE      SPCTL
      000000F8H   SFRSYM    DATA     BYTE      P7
      000000E8H   SFRSYM    DATA     BYTE      P6
      000000C8H   SFRSYM    DATA     BYTE      P5
      000000C0H   SFRSYM    DATA     BYTE      P4
      000000ABH   SFRSYM    DATA     BYTE      WKTCH
      000000B0H   SFRSYM    DATA     BYTE      P3
      000000A0H   SFRSYM    DATA     BYTE      P2
      00000090H   SFRSYM    DATA     BYTE      P1
      00000080H   SFRSYM    DATA     BYTE      P0

      00FF8413H   BLOCK     CODE     ---       LVL=0
      00FF8413H   LINE      CODE     ---       #8
      00FF8413H   LINE      CODE     ---       #10
      00FF842AH   LINE      CODE     ---       #11
      00FF8441H   LINE      CODE     ---       #12
      00FF8458H   LINE      CODE     ---       #13
      00FF846FH   LINE      CODE     ---       #14
      00FF8486H   LINE      CODE     ---       #15
      ---         BLOCKEND  ---      ---       LVL=0
      DR12        REGSYM    ---      DWORD     duty_bottom
      DR8         REGSYM    ---      LONG      left
      DR12        REGSYM    ---      LONG      right
      DR8         REGSYM    ---      LONG      left
      DR12        REGSYM    ---      LONG      right

      ---         MODULE    ---      ---       rocker
      00FF7621H   PUBLIC    CODE     ---       rocker_read
      00FF9759H   PUBLIC    CODE     ---       rocker_init
      00010E02H   PUBLIC    XDATA    FLOAT     R_x_val
      00010E06H   PUBLIC    XDATA    FLOAT     R_y_val
      00010E0AH   PUBLIC    XDATA    WORD      Rocker_state
      000000D0H   SFRSYM    DATA     BYTE      PSW
      0000009DH   SFRSYM    DATA     BYTE      IRCBAND
      00000097H   SFRSYM    DATA     BYTE      AUXR2
      000000EFH   SFRSYM    DATA     BYTE      AUXINTIF
      000000FDH   SFRSYM    DATA     BYTE      S4CON
      000000ACH   SFRSYM    DATA     BYTE      S3CON
      0000009AH   SFRSYM    DATA     BYTE      S2CON
      000000B7H   SFRSYM    DATA     BYTE      IPH
      000000CDH   SFRSYM    DATA     BYTE      SPSTAT
      000000DDH   SFRSYM    DATA     BYTE      T4T3M
      000000C1H   SFRSYM    DATA     BYTE      WDT_CONTR
      000000DFH   SFRSYM    DATA     BYTE      IP3
      000000F4H   SFRSYM    DATA     BYTE      USBCON
      000000B5H   SFRSYM    DATA     BYTE      IP2
      000000FFH   SFRSYM    DATA     BYTE      RSTCFG
      000000C7H   SFRSYM    DATA     BYTE      IAP_CONTR
      0000008EH   SFRSYM    DATA     BYTE      AUXR
      000000AFH   SFRSYM    DATA     BYTE      IE2
      00000088H   SFRSYM    DATA     BYTE      TCON
      00000089H   SFRSYM    DATA     BYTE      TMOD
      00000098H   SFRSYM    DATA     BYTE      SCON
      00000087H   SFRSYM    DATA     BYTE      PCON
      000000BCH   SFRSYM    DATA     BYTE      ADC_CONTR
L251 LINKER/LOCATER V4.66.93.0                                                        02/28/2025  00:29:39  PAGE 117


      000000D1H   SFRSYM    DATA     BYTE      PSW1
      000000E7H   SFRSYM    DATA     BYTE      CMPCR2
      000000E6H   SFRSYM    DATA     BYTE      CMPCR1
      000000DEH   SFRSYM    DATA     BYTE      ADCCFG
      000000B8H   SFRSYM    DATA     BYTE      IP
      0000008FH   SFRSYM    DATA     BYTE      INTCLKO
      000000EEH   SFRSYM    DATA     BYTE      IP3H
      000000B6H   SFRSYM    DATA     BYTE      IP2H
      000000BFH   SFRSYM    DATA     BYTE      P_SW4
      000000A8H   SFRSYM    DATA     BYTE      IE
      000000BBH   SFRSYM    DATA     BYTE      P_SW3
      000000BAH   SFRSYM    DATA     BYTE      P_SW2
      000000A2H   SFRSYM    DATA     BYTE      P_SW1
      000000CEH   SFRSYM    DATA     BYTE      SPCTL
      000000F8H   SFRSYM    DATA     BYTE      P7
      000000E8H   SFRSYM    DATA     BYTE      P6
      000000C8H   SFRSYM    DATA     BYTE      P5
      000000C0H   SFRSYM    DATA     BYTE      P4
      000000ABH   SFRSYM    DATA     BYTE      WKTCH
      000000B0H   SFRSYM    DATA     BYTE      P3
      000000A0H   SFRSYM    DATA     BYTE      P2
      00000090H   SFRSYM    DATA     BYTE      P1
      00000080H   SFRSYM    DATA     BYTE      P0

      00FF9759H   BLOCK     CODE     ---       LVL=0
      00FF9759H   LINE      CODE     ---       #11
      00FF9759H   LINE      CODE     ---       #13
      00FF9764H   LINE      CODE     ---       #14
      00FF976FH   LINE      CODE     ---       #15
      ---         BLOCKEND  ---      ---       LVL=0

      00FF7621H   BLOCK     CODE     ---       LVL=0
      00010E0CH   SYMBOL    XDATA    BYTE      last_state
      00FF7621H   LINE      CODE     ---       #23
      00FF7621H   LINE      CODE     ---       #24
      00FF7621H   LINE      CODE     ---       #26
      00FF7638H   LINE      CODE     ---       #27
      00FF764FH   LINE      CODE     ---       #28
      00FF766EH   LINE      CODE     ---       #29
      00FF7683H   LINE      CODE     ---       #30
      00FF769CH   LINE      CODE     ---       #31
      00FF76ABH   LINE      CODE     ---       #32
      00FF76E3H   LINE      CODE     ---       #33
      00FF76FAH   LINE      CODE     ---       #34
      00FF76FBH   LINE      CODE     ---       #48
      ---         BLOCKEND  ---      ---       LVL=0

      ---         MODULE    ---      ---       GPS
      000000D0H   SFRSYM    DATA     BYTE      PSW
      0000009DH   SFRSYM    DATA     BYTE      IRCBAND
      00000097H   SFRSYM    DATA     BYTE      AUXR2
      000000EFH   SFRSYM    DATA     BYTE      AUXINTIF
      000000FDH   SFRSYM    DATA     BYTE      S4CON
      000000ACH   SFRSYM    DATA     BYTE      S3CON
      0000009AH   SFRSYM    DATA     BYTE      S2CON
      000000B7H   SFRSYM    DATA     BYTE      IPH
      000000CDH   SFRSYM    DATA     BYTE      SPSTAT
      000000DDH   SFRSYM    DATA     BYTE      T4T3M
      000000C1H   SFRSYM    DATA     BYTE      WDT_CONTR
      000000DFH   SFRSYM    DATA     BYTE      IP3
      000000F4H   SFRSYM    DATA     BYTE      USBCON
      000000B5H   SFRSYM    DATA     BYTE      IP2
      000000FFH   SFRSYM    DATA     BYTE      RSTCFG
      000000C7H   SFRSYM    DATA     BYTE      IAP_CONTR
      0000008EH   SFRSYM    DATA     BYTE      AUXR
L251 LINKER/LOCATER V4.66.93.0                                                        02/28/2025  00:29:39  PAGE 118


      000000AFH   SFRSYM    DATA     BYTE      IE2
      00000088H   SFRSYM    DATA     BYTE      TCON
      00000089H   SFRSYM    DATA     BYTE      TMOD
      00000098H   SFRSYM    DATA     BYTE      SCON
      00000087H   SFRSYM    DATA     BYTE      PCON
      000000BCH   SFRSYM    DATA     BYTE      ADC_CONTR
      000000D1H   SFRSYM    DATA     BYTE      PSW1
      000000E7H   SFRSYM    DATA     BYTE      CMPCR2
      000000E6H   SFRSYM    DATA     BYTE      CMPCR1
      000000DEH   SFRSYM    DATA     BYTE      ADCCFG
      000000B8H   SFRSYM    DATA     BYTE      IP
      0000008FH   SFRSYM    DATA     BYTE      INTCLKO
      000000EEH   SFRSYM    DATA     BYTE      IP3H
      000000B6H   SFRSYM    DATA     BYTE      IP2H
      000000BFH   SFRSYM    DATA     BYTE      P_SW4
      000000A8H   SFRSYM    DATA     BYTE      IE
      000000BBH   SFRSYM    DATA     BYTE      P_SW3
      000000BAH   SFRSYM    DATA     BYTE      P_SW2
      000000A2H   SFRSYM    DATA     BYTE      P_SW1
      000000CEH   SFRSYM    DATA     BYTE      SPCTL
      000000F8H   SFRSYM    DATA     BYTE      P7
      000000E8H   SFRSYM    DATA     BYTE      P6
      000000C8H   SFRSYM    DATA     BYTE      P5
      000000C0H   SFRSYM    DATA     BYTE      P4
      000000ABH   SFRSYM    DATA     BYTE      WKTCH
      000000B0H   SFRSYM    DATA     BYTE      P3
      000000A0H   SFRSYM    DATA     BYTE      P2
      00000090H   SFRSYM    DATA     BYTE      P1
      00000080H   SFRSYM    DATA     BYTE      P0

      ---         MODULE    ---      ---       CCD
      000107FAH   PUBLIC    XDATA    WORD      i
      000107FCH   PUBLIC    XDATA    WORD      j
      000107FEH   PUBLIC    XDATA    ---       y1_boundary
      0001087EH   PUBLIC    XDATA    ---       y2_boundary
      000108FEH   PUBLIC    XDATA    ---       y3_boundary
      000000D0H   SFRSYM    DATA     BYTE      PSW
      0000009DH   SFRSYM    DATA     BYTE      IRCBAND
      00000097H   SFRSYM    DATA     BYTE      AUXR2
      000000EFH   SFRSYM    DATA     BYTE      AUXINTIF
      000000FDH   SFRSYM    DATA     BYTE      S4CON
      000000ACH   SFRSYM    DATA     BYTE      S3CON
      0000009AH   SFRSYM    DATA     BYTE      S2CON
      000000B7H   SFRSYM    DATA     BYTE      IPH
      000000CDH   SFRSYM    DATA     BYTE      SPSTAT
      000000DDH   SFRSYM    DATA     BYTE      T4T3M
      000000C1H   SFRSYM    DATA     BYTE      WDT_CONTR
      000000DFH   SFRSYM    DATA     BYTE      IP3
      000000F4H   SFRSYM    DATA     BYTE      USBCON
      000000B5H   SFRSYM    DATA     BYTE      IP2
      000000FFH   SFRSYM    DATA     BYTE      RSTCFG
      000000C7H   SFRSYM    DATA     BYTE      IAP_CONTR
      0000008EH   SFRSYM    DATA     BYTE      AUXR
      000000AFH   SFRSYM    DATA     BYTE      IE2
      00000088H   SFRSYM    DATA     BYTE      TCON
      00000089H   SFRSYM    DATA     BYTE      TMOD
      00000098H   SFRSYM    DATA     BYTE      SCON
      00000087H   SFRSYM    DATA     BYTE      PCON
      000000BCH   SFRSYM    DATA     BYTE      ADC_CONTR
      000000D1H   SFRSYM    DATA     BYTE      PSW1
      000000E7H   SFRSYM    DATA     BYTE      CMPCR2
      000000E6H   SFRSYM    DATA     BYTE      CMPCR1
      000000DEH   SFRSYM    DATA     BYTE      ADCCFG
      000000B8H   SFRSYM    DATA     BYTE      IP
      0000008FH   SFRSYM    DATA     BYTE      INTCLKO
L251 LINKER/LOCATER V4.66.93.0                                                        02/28/2025  00:29:39  PAGE 119


      000000EEH   SFRSYM    DATA     BYTE      IP3H
      000000B6H   SFRSYM    DATA     BYTE      IP2H
      000000BFH   SFRSYM    DATA     BYTE      P_SW4
      000000A8H   SFRSYM    DATA     BYTE      IE
      000000BBH   SFRSYM    DATA     BYTE      P_SW3
      000000BAH   SFRSYM    DATA     BYTE      P_SW2
      000000A2H   SFRSYM    DATA     BYTE      P_SW1
      000000CEH   SFRSYM    DATA     BYTE      SPCTL
      000000F8H   SFRSYM    DATA     BYTE      P7
      000000E8H   SFRSYM    DATA     BYTE      P6
      000000C8H   SFRSYM    DATA     BYTE      P5
      000000C0H   SFRSYM    DATA     BYTE      P4
      000000ABH   SFRSYM    DATA     BYTE      WKTCH
      000000B0H   SFRSYM    DATA     BYTE      P3
      000000A0H   SFRSYM    DATA     BYTE      P2
      00000090H   SFRSYM    DATA     BYTE      P1
      00000080H   SFRSYM    DATA     BYTE      P0
      REG=2       REGSYM    ---      ---       buff
      DR28        REGSYM    ---      DWORD     length

      ---         MODULE    ---      ---       menu
      00FF6576H   PUBLIC    CODE     ---       Menu_display
      00010E96H   PUBLIC    XDATA    CHAR      Choice
      000000D0H   SFRSYM    DATA     BYTE      PSW
      0000009DH   SFRSYM    DATA     BYTE      IRCBAND
      00000097H   SFRSYM    DATA     BYTE      AUXR2
      000000EFH   SFRSYM    DATA     BYTE      AUXINTIF
      000000FDH   SFRSYM    DATA     BYTE      S4CON
      000000ACH   SFRSYM    DATA     BYTE      S3CON
      0000009AH   SFRSYM    DATA     BYTE      S2CON
      000000B7H   SFRSYM    DATA     BYTE      IPH
      000000CDH   SFRSYM    DATA     BYTE      SPSTAT
      000000DDH   SFRSYM    DATA     BYTE      T4T3M
      000000C1H   SFRSYM    DATA     BYTE      WDT_CONTR
      000000DFH   SFRSYM    DATA     BYTE      IP3
      000000F4H   SFRSYM    DATA     BYTE      USBCON
      000000B5H   SFRSYM    DATA     BYTE      IP2
      000000FFH   SFRSYM    DATA     BYTE      RSTCFG
      000000C7H   SFRSYM    DATA     BYTE      IAP_CONTR
      0000008EH   SFRSYM    DATA     BYTE      AUXR
      000000AFH   SFRSYM    DATA     BYTE      IE2
      00000088H   SFRSYM    DATA     BYTE      TCON
      00000089H   SFRSYM    DATA     BYTE      TMOD
      00000098H   SFRSYM    DATA     BYTE      SCON
      00000087H   SFRSYM    DATA     BYTE      PCON
      000000BCH   SFRSYM    DATA     BYTE      ADC_CONTR
      000000D1H   SFRSYM    DATA     BYTE      PSW1
      000000E7H   SFRSYM    DATA     BYTE      CMPCR2
      000000E6H   SFRSYM    DATA     BYTE      CMPCR1
      000000DEH   SFRSYM    DATA     BYTE      ADCCFG
      000000B8H   SFRSYM    DATA     BYTE      IP
      0000008FH   SFRSYM    DATA     BYTE      INTCLKO
      000000EEH   SFRSYM    DATA     BYTE      IP3H
      000000B6H   SFRSYM    DATA     BYTE      IP2H
      000000BFH   SFRSYM    DATA     BYTE      P_SW4
      000000A8H   SFRSYM    DATA     BYTE      IE
      000000BBH   SFRSYM    DATA     BYTE      P_SW3
      000000BAH   SFRSYM    DATA     BYTE      P_SW2
      000000A2H   SFRSYM    DATA     BYTE      P_SW1
      000000CEH   SFRSYM    DATA     BYTE      SPCTL
      000000F8H   SFRSYM    DATA     BYTE      P7
      000000E8H   SFRSYM    DATA     BYTE      P6
      000000C8H   SFRSYM    DATA     BYTE      P5
      000000C0H   SFRSYM    DATA     BYTE      P4
      000000ABH   SFRSYM    DATA     BYTE      WKTCH
L251 LINKER/LOCATER V4.66.93.0                                                        02/28/2025  00:29:39  PAGE 120


      000000B0H   SFRSYM    DATA     BYTE      P3
      000000A0H   SFRSYM    DATA     BYTE      P2
      00000090H   SFRSYM    DATA     BYTE      P1
      00000080H   SFRSYM    DATA     BYTE      P0

      00FF6576H   BLOCK     CODE     ---       LVL=0
      00FF6576H   LINE      CODE     ---       #7
      00FF6578H   LINE      CODE     ---       #9
      00FF657DH   LINE      CODE     ---       #11
      00FF6580H   LINE      CODE     ---       #15
      00FF658FH   LINE      CODE     ---       #16
      00FF65A0H   LINE      CODE     ---       #17
      00FF65B1H   LINE      CODE     ---       #18
      00FF65C2H   LINE      CODE     ---       #19
      00FF65D3H   LINE      CODE     ---       #20
      00FF65E4H   LINE      CODE     ---       #21
      00FF65F5H   LINE      CODE     ---       #22
      00FF6606H   LINE      CODE     ---       #24
      00FF6623H   LINE      CODE     ---       #26
      00FF6639H   LINE      CODE     ---       #28
      00FF6645H   LINE      CODE     ---       #30
      00FF665EH   LINE      CODE     ---       #31
      00FF6673H   LINE      CODE     ---       #32
      00FF6688H   LINE      CODE     ---       #33
      00FF668AH   LINE      CODE     ---       #34
      00FF6690H   LINE      CODE     ---       #36
      00FF66A9H   LINE      CODE     ---       #37
      00FF66BEH   LINE      CODE     ---       #38
      00FF66BEH   LINE      CODE     ---       #40
      00FF66DBH   LINE      CODE     ---       #43
      00FF66E7H   LINE      CODE     ---       #45
      00FF66EEH   LINE      CODE     ---       #65
      00FF66EEH   LINE      CODE     ---       #67
      00FF671CH   LINE      CODE     ---       #68
      00FF6746H   LINE      CODE     ---       #69
      00FF674DH   LINE      CODE     ---       #70
      00FF674DH   LINE      CODE     ---       #72
      00FF6754H   LINE      CODE     ---       #73
      00FF6760H   LINE      CODE     ---       #74
      ---         BLOCKEND  ---      ---       LVL=0

      ---         MODULE    ---      ---       control
      000000D0H   SFRSYM    DATA     BYTE      PSW
      0000009DH   SFRSYM    DATA     BYTE      IRCBAND
      00000097H   SFRSYM    DATA     BYTE      AUXR2
      000000EFH   SFRSYM    DATA     BYTE      AUXINTIF
      000000FDH   SFRSYM    DATA     BYTE      S4CON
      000000ACH   SFRSYM    DATA     BYTE      S3CON
      0000009AH   SFRSYM    DATA     BYTE      S2CON
      000000B7H   SFRSYM    DATA     BYTE      IPH
      000000CDH   SFRSYM    DATA     BYTE      SPSTAT
      000000DDH   SFRSYM    DATA     BYTE      T4T3M
      000000C1H   SFRSYM    DATA     BYTE      WDT_CONTR
      000000DFH   SFRSYM    DATA     BYTE      IP3
      000000F4H   SFRSYM    DATA     BYTE      USBCON
      000000B5H   SFRSYM    DATA     BYTE      IP2
      000000FFH   SFRSYM    DATA     BYTE      RSTCFG
      000000C7H   SFRSYM    DATA     BYTE      IAP_CONTR
      0000008EH   SFRSYM    DATA     BYTE      AUXR
      000000AFH   SFRSYM    DATA     BYTE      IE2
      00000088H   SFRSYM    DATA     BYTE      TCON
      00000089H   SFRSYM    DATA     BYTE      TMOD
      00000098H   SFRSYM    DATA     BYTE      SCON
      00000087H   SFRSYM    DATA     BYTE      PCON
      000000BCH   SFRSYM    DATA     BYTE      ADC_CONTR
L251 LINKER/LOCATER V4.66.93.0                                                        02/28/2025  00:29:39  PAGE 121


      000000D1H   SFRSYM    DATA     BYTE      PSW1
      000000E7H   SFRSYM    DATA     BYTE      CMPCR2
      000000E6H   SFRSYM    DATA     BYTE      CMPCR1
      000000DEH   SFRSYM    DATA     BYTE      ADCCFG
      000000B8H   SFRSYM    DATA     BYTE      IP
      0000008FH   SFRSYM    DATA     BYTE      INTCLKO
      000000EEH   SFRSYM    DATA     BYTE      IP3H
      000000B6H   SFRSYM    DATA     BYTE      IP2H
      000000BFH   SFRSYM    DATA     BYTE      P_SW4
      000000A8H   SFRSYM    DATA     BYTE      IE
      000000BBH   SFRSYM    DATA     BYTE      P_SW3
      000000BAH   SFRSYM    DATA     BYTE      P_SW2
      000000A2H   SFRSYM    DATA     BYTE      P_SW1
      000000CEH   SFRSYM    DATA     BYTE      SPCTL
      000000F8H   SFRSYM    DATA     BYTE      P7
      000000E8H   SFRSYM    DATA     BYTE      P6
      000000C8H   SFRSYM    DATA     BYTE      P5
      000000C0H   SFRSYM    DATA     BYTE      P4
      000000ABH   SFRSYM    DATA     BYTE      WKTCH
      000000B0H   SFRSYM    DATA     BYTE      P3
      000000A0H   SFRSYM    DATA     BYTE      P2
      00000090H   SFRSYM    DATA     BYTE      P1
      00000080H   SFRSYM    DATA     BYTE      P0
      REG=2       REGSYM    ---      ---       pid
      DR4         REGSYM    ---      FLOAT     kp
      REG=6       REGSYM    ---      ---       pid
      DR28        REGSYM    ---      FLOAT     Value_new
      DR4         REGSYM    ---      FLOAT     output
      REG=6       REGSYM    ---      ---       pid
      DR28        REGSYM    ---      FLOAT     Value_new
      DR4         REGSYM    ---      FLOAT     output

      ---         MODULE    ---      ---       time
      00FF76FCH   PUBLIC    CODE     ---       pit_handler
      00FF0026H   PUBLIC    CODE     ---       Interrupt_Solution
      00FF9661H   PUBLIC    CODE     ---       timer_Init
      00010DEBH   PUBLIC    XDATA    ---       TFlag1
      000000D0H   SFRSYM    DATA     BYTE      PSW
      0000009DH   SFRSYM    DATA     BYTE      IRCBAND
      00000097H   SFRSYM    DATA     BYTE      AUXR2
      000000EFH   SFRSYM    DATA     BYTE      AUXINTIF
      000000FDH   SFRSYM    DATA     BYTE      S4CON
      000000ACH   SFRSYM    DATA     BYTE      S3CON
      0000009AH   SFRSYM    DATA     BYTE      S2CON
      000000B7H   SFRSYM    DATA     BYTE      IPH
      000000CDH   SFRSYM    DATA     BYTE      SPSTAT
      000000DDH   SFRSYM    DATA     BYTE      T4T3M
      000000C1H   SFRSYM    DATA     BYTE      WDT_CONTR
      000000DFH   SFRSYM    DATA     BYTE      IP3
      000000F4H   SFRSYM    DATA     BYTE      USBCON
      000000B5H   SFRSYM    DATA     BYTE      IP2
      000000FFH   SFRSYM    DATA     BYTE      RSTCFG
      000000C7H   SFRSYM    DATA     BYTE      IAP_CONTR
      0000008EH   SFRSYM    DATA     BYTE      AUXR
      000000AFH   SFRSYM    DATA     BYTE      IE2
      00000088H   SFRSYM    DATA     BYTE      TCON
      00000089H   SFRSYM    DATA     BYTE      TMOD
      00000098H   SFRSYM    DATA     BYTE      SCON
      00000087H   SFRSYM    DATA     BYTE      PCON
      000000BCH   SFRSYM    DATA     BYTE      ADC_CONTR
      000000D1H   SFRSYM    DATA     BYTE      PSW1
      000000E7H   SFRSYM    DATA     BYTE      CMPCR2
      000000E6H   SFRSYM    DATA     BYTE      CMPCR1
      000000DEH   SFRSYM    DATA     BYTE      ADCCFG
      000000B8H   SFRSYM    DATA     BYTE      IP
L251 LINKER/LOCATER V4.66.93.0                                                        02/28/2025  00:29:39  PAGE 122


      0000008FH   SFRSYM    DATA     BYTE      INTCLKO
      000000EEH   SFRSYM    DATA     BYTE      IP3H
      000000B6H   SFRSYM    DATA     BYTE      IP2H
      000000BFH   SFRSYM    DATA     BYTE      P_SW4
      000000A8H   SFRSYM    DATA     BYTE      IE
      000000BBH   SFRSYM    DATA     BYTE      P_SW3
      000000BAH   SFRSYM    DATA     BYTE      P_SW2
      000000A2H   SFRSYM    DATA     BYTE      P_SW1
      000000CEH   SFRSYM    DATA     BYTE      SPCTL
      000000F8H   SFRSYM    DATA     BYTE      P7
      000000E8H   SFRSYM    DATA     BYTE      P6
      000000C8H   SFRSYM    DATA     BYTE      P5
      000000C0H   SFRSYM    DATA     BYTE      P4
      000000ABH   SFRSYM    DATA     BYTE      WKTCH
      000000B0H   SFRSYM    DATA     BYTE      P3
      000000A0H   SFRSYM    DATA     BYTE      P2
      00000090H   SFRSYM    DATA     BYTE      P1
      00000080H   SFRSYM    DATA     BYTE      P0

      00FF9661H   BLOCK     CODE     ---       LVL=0
      00FF9661H   LINE      CODE     ---       #6
      00FF9661H   LINE      CODE     ---       #9
      00FF966BH   LINE      CODE     ---       #10
      ---         BLOCKEND  ---      ---       LVL=0

      00FF76FCH   BLOCK     CODE     ---       LVL=0
      00010DF3H   SYMBOL    XDATA    DWORD     time_sum
      00FF76FCH   LINE      CODE     ---       #19
      00FF76FCH   LINE      CODE     ---       #20
      00FF76FCH   LINE      CODE     ---       #22
      00FF7711H   LINE      CODE     ---       #23
      00FF7728H   LINE      CODE     ---       #24
      00FF7736H   LINE      CODE     ---       #25
      00FF7751H   LINE      CODE     ---       #26
      00FF776CH   LINE      CODE     ---       #27
      00FF7787H   LINE      CODE     ---       #28
      00FF77A2H   LINE      CODE     ---       #30
      00FF77D0H   LINE      CODE     ---       #31
      ---         BLOCKEND  ---      ---       LVL=0

      00FF0026H   BLOCK     CODE     ---       LVL=0
      00FF0026H   LINE      CODE     ---       #38
      00FF0026H   LINE      CODE     ---       #40
      00FF002CH   LINE      CODE     ---       #42
      00FF0037H   LINE      CODE     ---       #43
      00FF003AH   LINE      CODE     ---       #45
      00FF003FH   LINE      CODE     ---       #46
      ---         BLOCKEND  ---      ---       LVL=0

      ---         MODULE    ---      ---       encoder
      00FF7CFFH   PUBLIC    CODE     ---       encoder_get
      00FF019EH   PUBLIC    CODE     ---       encoder_Init
      00010D95H   PUBLIC    XDATA    FLOAT     INS_V
      00010D99H   PUBLIC    XDATA    DWORD     encoder_data
      00010D9DH   PUBLIC    XDATA    FLOAT     low_pass
      000000D0H   SFRSYM    DATA     BYTE      PSW
      0000009DH   SFRSYM    DATA     BYTE      IRCBAND
      00000097H   SFRSYM    DATA     BYTE      AUXR2
      000000EFH   SFRSYM    DATA     BYTE      AUXINTIF
      000000FDH   SFRSYM    DATA     BYTE      S4CON
      000000ACH   SFRSYM    DATA     BYTE      S3CON
      0000009AH   SFRSYM    DATA     BYTE      S2CON
      000000B7H   SFRSYM    DATA     BYTE      IPH
      000000CDH   SFRSYM    DATA     BYTE      SPSTAT
      000000DDH   SFRSYM    DATA     BYTE      T4T3M
L251 LINKER/LOCATER V4.66.93.0                                                        02/28/2025  00:29:39  PAGE 123


      000000C1H   SFRSYM    DATA     BYTE      WDT_CONTR
      000000DFH   SFRSYM    DATA     BYTE      IP3
      000000F4H   SFRSYM    DATA     BYTE      USBCON
      000000B5H   SFRSYM    DATA     BYTE      IP2
      000000FFH   SFRSYM    DATA     BYTE      RSTCFG
      000000C7H   SFRSYM    DATA     BYTE      IAP_CONTR
      0000008EH   SFRSYM    DATA     BYTE      AUXR
      000000AFH   SFRSYM    DATA     BYTE      IE2
      00000088H   SFRSYM    DATA     BYTE      TCON
      00000089H   SFRSYM    DATA     BYTE      TMOD
      00000098H   SFRSYM    DATA     BYTE      SCON
      00000087H   SFRSYM    DATA     BYTE      PCON
      000000BCH   SFRSYM    DATA     BYTE      ADC_CONTR
      000000D1H   SFRSYM    DATA     BYTE      PSW1
      000000E7H   SFRSYM    DATA     BYTE      CMPCR2
      000000E6H   SFRSYM    DATA     BYTE      CMPCR1
      000000DEH   SFRSYM    DATA     BYTE      ADCCFG
      000000B8H   SFRSYM    DATA     BYTE      IP
      0000008FH   SFRSYM    DATA     BYTE      INTCLKO
      000000EEH   SFRSYM    DATA     BYTE      IP3H
      000000B6H   SFRSYM    DATA     BYTE      IP2H
      000000BFH   SFRSYM    DATA     BYTE      P_SW4
      000000A8H   SFRSYM    DATA     BYTE      IE
      000000BBH   SFRSYM    DATA     BYTE      P_SW3
      000000BAH   SFRSYM    DATA     BYTE      P_SW2
      000000A2H   SFRSYM    DATA     BYTE      P_SW1
      000000CEH   SFRSYM    DATA     BYTE      SPCTL
      000000F8H   SFRSYM    DATA     BYTE      P7
      000000E8H   SFRSYM    DATA     BYTE      P6
      000000C8H   SFRSYM    DATA     BYTE      P5
      000000C0H   SFRSYM    DATA     BYTE      P4
      000000ABH   SFRSYM    DATA     BYTE      WKTCH
      000000B0H   SFRSYM    DATA     BYTE      P3
      000000A0H   SFRSYM    DATA     BYTE      P2
      00000090H   SFRSYM    DATA     BYTE      P1
      00000080H   SFRSYM    DATA     BYTE      P0

      00FF019EH   BLOCK     CODE     ---       LVL=0
      00FF019EH   LINE      CODE     ---       #12
      00FF019EH   LINE      CODE     ---       #14
      ---         BLOCKEND  ---      ---       LVL=0

      00FF7CFFH   BLOCK     CODE     ---       LVL=0
      00010DA1H   SYMBOL    XDATA    BYTE      times
      00010DA2H   SYMBOL    XDATA    FLOAT     encoder_dr
      00FF7CFFH   LINE      CODE     ---       #23
      00FF7CFFH   LINE      CODE     ---       #24
      00FF7CFFH   LINE      CODE     ---       #28
      00FF7D14H   LINE      CODE     ---       #30
      00FF7D54H   LINE      CODE     ---       #31
      00FF7D72H   LINE      CODE     ---       #32
      00FF7D79H   LINE      CODE     ---       #33
      00FF7D90H   LINE      CODE     ---       #34
      00FF7D9CH   LINE      CODE     ---       #35
      00FF7DA1H   LINE      CODE     ---       #36
      00FF7DA1H   LINE      CODE     ---       #38
      00FF7DA6H   LINE      CODE     ---       #39
      00FF7DACH   LINE      CODE     ---       #40
      ---         BLOCKEND  ---      ---       LVL=0

      ---         MODULE    ---      ---       valuepack
      00FF0096H   PUBLIC    HCONST   WORD      RXPACK_BYTE_SIZE
      00FF0098H   PUBLIC    HCONST   WORD      TXPACK_BYTE_SIZE
      00010000H   PUBLIC    XDATA    DWORD     vp_circle_rx_index
      00010004H   PUBLIC    XDATA    BYTE      valuepack_tx_index
L251 LINKER/LOCATER V4.66.93.0                                                        02/28/2025  00:29:39  PAGE 124


      00010005H   PUBLIC    XDATA    WORD      bool_index
      00010007H   PUBLIC    XDATA    WORD      rdii
      00010009H   PUBLIC    XDATA    BYTE      valuepack_tx_bit_index
      0001000AH   PUBLIC    XDATA    DWORD     idc
      0001000EH   PUBLIC    XDATA    WORD      idi
      00010010H   PUBLIC    XDATA    BYTE      isok
      00010011H   PUBLIC    XDATA    WORD      idl
      00010013H   PUBLIC    XDATA    WORD      loop
      00010015H   PUBLIC    XDATA    WORD      rdi
      00010017H   PUBLIC    XDATA    DWORD     err
      0001001BH   PUBLIC    XDATA    WORD      bool_bit
      0001001DH   PUBLIC    XDATA    LONG      rdIndex
      00010021H   PUBLIC    XDATA    WORD      rx_pack_length
      00010023H   PUBLIC    XDATA    BYTE      sum
      00010024H   PUBLIC    XDATA    ---       vp_rxbuff
      00010424H   PUBLIC    XDATA    LONG      rxIndex
      000000D0H   SFRSYM    DATA     BYTE      PSW
      0000009DH   SFRSYM    DATA     BYTE      IRCBAND
      00000097H   SFRSYM    DATA     BYTE      AUXR2
      000000EFH   SFRSYM    DATA     BYTE      AUXINTIF
      000000FDH   SFRSYM    DATA     BYTE      S4CON
      000000ACH   SFRSYM    DATA     BYTE      S3CON
      0000009AH   SFRSYM    DATA     BYTE      S2CON
      000000B7H   SFRSYM    DATA     BYTE      IPH
      000000CDH   SFRSYM    DATA     BYTE      SPSTAT
      000000DDH   SFRSYM    DATA     BYTE      T4T3M
      000000C1H   SFRSYM    DATA     BYTE      WDT_CONTR
      000000DFH   SFRSYM    DATA     BYTE      IP3
      000000F4H   SFRSYM    DATA     BYTE      USBCON
      000000B5H   SFRSYM    DATA     BYTE      IP2
      000000FFH   SFRSYM    DATA     BYTE      RSTCFG
      000000C7H   SFRSYM    DATA     BYTE      IAP_CONTR
      0000008EH   SFRSYM    DATA     BYTE      AUXR
      000000AFH   SFRSYM    DATA     BYTE      IE2
      00000088H   SFRSYM    DATA     BYTE      TCON
      00000089H   SFRSYM    DATA     BYTE      TMOD
      00000098H   SFRSYM    DATA     BYTE      SCON
      00000087H   SFRSYM    DATA     BYTE      PCON
      000000BCH   SFRSYM    DATA     BYTE      ADC_CONTR
      000000D1H   SFRSYM    DATA     BYTE      PSW1
      000000E7H   SFRSYM    DATA     BYTE      CMPCR2
      000000E6H   SFRSYM    DATA     BYTE      CMPCR1
      000000DEH   SFRSYM    DATA     BYTE      ADCCFG
      000000B8H   SFRSYM    DATA     BYTE      IP
      0000008FH   SFRSYM    DATA     BYTE      INTCLKO
      000000EEH   SFRSYM    DATA     BYTE      IP3H
      000000B6H   SFRSYM    DATA     BYTE      IP2H
      000000BFH   SFRSYM    DATA     BYTE      P_SW4
      000000A8H   SFRSYM    DATA     BYTE      IE
      000000BBH   SFRSYM    DATA     BYTE      P_SW3
      000000BAH   SFRSYM    DATA     BYTE      P_SW2
      000000A2H   SFRSYM    DATA     BYTE      P_SW1
      000000CEH   SFRSYM    DATA     BYTE      SPCTL
      000000F8H   SFRSYM    DATA     BYTE      P7
      000000E8H   SFRSYM    DATA     BYTE      P6
      000000C8H   SFRSYM    DATA     BYTE      P5
      000000C0H   SFRSYM    DATA     BYTE      P4
      000000ABH   SFRSYM    DATA     BYTE      WKTCH
      000000B0H   SFRSYM    DATA     BYTE      P3
      000000A0H   SFRSYM    DATA     BYTE      P2
      00000090H   SFRSYM    DATA     BYTE      P1
      00000080H   SFRSYM    DATA     BYTE      P0
      REG=7       REGSYM    ---      ---       rx_pack_ptr
      WR18        REGSYM    ---      WORD      s
      R5          REGSYM    ---      BYTE      ch
L251 LINKER/LOCATER V4.66.93.0                                                        02/28/2025  00:29:39  PAGE 125


      REG=3       REGSYM    ---      ---       p
      REG=3       REGSYM    ---      ---       tx_pack_ptr
      DR4         REGSYM    ---      LONG      i
      WR4         REGSYM    ---      WORD      d

      ---         MODULE    ---      ---       imu660
      00FF7538H   PUBLIC    CODE     ---       get_yaw_data
      00010CAAH   PUBLIC    XDATA    DOUBLE    yaw_e
      00010CB2H   PUBLIC    XDATA    FLOAT     gz_out
      00010CB6H   PUBLIC    XDATA    FLOAT     gyro_x
      00010CBAH   PUBLIC    XDATA    FLOAT     gyro_y
      00010CBEH   PUBLIC    XDATA    FLOAT     gyro_z
      00010CC2H   PUBLIC    XDATA    FLOAT     ROLL
      00010CC6H   PUBLIC    XDATA    FLOAT     zero_drift_pitch
      00010CCAH   PUBLIC    XDATA    FLOAT     zero_drift_roll
      00010CCEH   PUBLIC    XDATA    FLOAT     YAW
      00010CD2H   PUBLIC    XDATA    FLOAT     zero_drift_yaw
      00010CD6H   PUBLIC    XDATA    FLOAT     PITCH
      000000D0H   SFRSYM    DATA     BYTE      PSW
      0000009DH   SFRSYM    DATA     BYTE      IRCBAND
      00000097H   SFRSYM    DATA     BYTE      AUXR2
      000000EFH   SFRSYM    DATA     BYTE      AUXINTIF
      000000FDH   SFRSYM    DATA     BYTE      S4CON
      000000ACH   SFRSYM    DATA     BYTE      S3CON
      0000009AH   SFRSYM    DATA     BYTE      S2CON
      000000B7H   SFRSYM    DATA     BYTE      IPH
      000000CDH   SFRSYM    DATA     BYTE      SPSTAT
      000000DDH   SFRSYM    DATA     BYTE      T4T3M
      000000C1H   SFRSYM    DATA     BYTE      WDT_CONTR
      000000DFH   SFRSYM    DATA     BYTE      IP3
      000000F4H   SFRSYM    DATA     BYTE      USBCON
      000000B5H   SFRSYM    DATA     BYTE      IP2
      000000FFH   SFRSYM    DATA     BYTE      RSTCFG
      000000C7H   SFRSYM    DATA     BYTE      IAP_CONTR
      0000008EH   SFRSYM    DATA     BYTE      AUXR
      000000AFH   SFRSYM    DATA     BYTE      IE2
      00000088H   SFRSYM    DATA     BYTE      TCON
      00000089H   SFRSYM    DATA     BYTE      TMOD
      00000098H   SFRSYM    DATA     BYTE      SCON
      00000087H   SFRSYM    DATA     BYTE      PCON
      000000BCH   SFRSYM    DATA     BYTE      ADC_CONTR
      000000D1H   SFRSYM    DATA     BYTE      PSW1
      000000E7H   SFRSYM    DATA     BYTE      CMPCR2
      000000E6H   SFRSYM    DATA     BYTE      CMPCR1
      000000DEH   SFRSYM    DATA     BYTE      ADCCFG
      000000B8H   SFRSYM    DATA     BYTE      IP
      0000008FH   SFRSYM    DATA     BYTE      INTCLKO
      000000EEH   SFRSYM    DATA     BYTE      IP3H
      000000B6H   SFRSYM    DATA     BYTE      IP2H
      000000BFH   SFRSYM    DATA     BYTE      P_SW4
      000000A8H   SFRSYM    DATA     BYTE      IE
      000000BBH   SFRSYM    DATA     BYTE      P_SW3
      000000BAH   SFRSYM    DATA     BYTE      P_SW2
      000000A2H   SFRSYM    DATA     BYTE      P_SW1
      000000CEH   SFRSYM    DATA     BYTE      SPCTL
      000000F8H   SFRSYM    DATA     BYTE      P7
      000000E8H   SFRSYM    DATA     BYTE      P6
      000000C8H   SFRSYM    DATA     BYTE      P5
      000000C0H   SFRSYM    DATA     BYTE      P4
      000000ABH   SFRSYM    DATA     BYTE      WKTCH
      000000B0H   SFRSYM    DATA     BYTE      P3
      000000A0H   SFRSYM    DATA     BYTE      P2
      00000090H   SFRSYM    DATA     BYTE      P1
      00000080H   SFRSYM    DATA     BYTE      P0

L251 LINKER/LOCATER V4.66.93.0                                                        02/28/2025  00:29:39  PAGE 126


      00FF7538H   BLOCK     CODE     ---       LVL=0
      REG=3       REGSYM    ---      ---       gyro_z
      00FF753CH   BLOCK     CODE     NEAR LAB  LVL=1
      WR30        REGSYM    ---      INT       gyro_yaw
      00010CDAH   SYMBOL    XDATA    LONG      gyro_z_sum
      ---         BLOCKEND  ---      ---       LVL=1
      00FF7538H   LINE      CODE     ---       #11
      00FF753CH   LINE      CODE     ---       #12
      00FF753CH   LINE      CODE     ---       #15
      00FF753FH   LINE      CODE     ---       #16
      00FF7545H   LINE      CODE     ---       #17
      00FF755EH   LINE      CODE     ---       #18
      00FF756FH   LINE      CODE     ---       #19
      00FF7588H   LINE      CODE     ---       #20
      00FF75D6H   LINE      CODE     ---       #21
      00FF7607H   LINE      CODE     ---       #22
      00FF761EH   LINE      CODE     ---       #25
      ---         BLOCKEND  ---      ---       LVL=0
      DR12        REGSYM    ---      DWORD     i

      ---         MODULE    ---      ---       ?C?DPADD
      00FF2225H   PUBLIC    CODE     ---       ?C?DPADD
      00FF2221H   PUBLIC    CODE     ---       ?C?DPSUB

      ---         MODULE    ---      ---       ?C?DPMUL
      00FF2334H   PUBLIC    CODE     ---       ?C?DPMUL

      ---         MODULE    ---      ---       ?C?DPDIV
      00FF2444H   PUBLIC    CODE     ---       ?C?DPDIV

      ---         MODULE    ---      ---       ?C?DPCMP
      00FF24E5H   PUBLIC    CODE     ---       ?C?DPCMP
      00FF24E3H   PUBLIC    CODE     ---       ?C?DPCMP3

      ---         MODULE    ---      ---       ?C?DPNEG
      00FF2544H   PUBLIC    CODE     ---       ?C?DPNEG

      ---         MODULE    ---      ---       ?C?DCAST
      00FF255CH   PUBLIC    CODE     NEAR LAB  ?C?DCASTC
      00FF2557H   PUBLIC    CODE     NEAR LAB  ?C?DCASTI
      00FF2552H   PUBLIC    CODE     NEAR LAB  ?C?DCASTL

      ---         MODULE    ---      ---       ?C?CASTD
      00FF259FH   PUBLIC    CODE     NEAR LAB  ?C?CASTD

      ---         MODULE    ---      ---       ?C?DCASTF
      00FF25FFH   PUBLIC    CODE     NEAR LAB  ?C?DCASTF

      ---         MODULE    ---      ---       ?C?FCASTD
      00FF2641H   PUBLIC    CODE     NEAR LAB  ?C?FCASTD

      ---         MODULE    ---      ---       PRINTF
      00010AE3H   PUBLIC    XDATA    ---       ?PRINTF?BYTE
      00FF2678H   PUBLIC    CODE     NEAR LAB  PRINTF

      ---         MODULE    ---      ---       SQRT?_
      00FF26AAH   PUBLIC    CODE     ---       SQRT?_

      ---         MODULE    ---      ---       pow

      ---         MODULE    ---      ---       SIN?_
      00FF27F8H   PUBLIC    CODE     ---       COS?_
      00FF2819H   PUBLIC    CODE     ---       SIN?_
      00FF284EH   PUBLIC    CODE     ---       TAN?_

L251 LINKER/LOCATER V4.66.93.0                                                        02/28/2025  00:29:39  PAGE 127


      ---         MODULE    ---      ---       ATAN?_
      00FF2990H   PUBLIC    CODE     ---       ATAN?_

      ---         MODULE    ---      ---       ASIN?_
      00FF2AABH   PUBLIC    CODE     ---       ASIN?_

      ---         MODULE    ---      ---       ?C?DPGETOPN
      00FF2AD5H   PUBLIC    CODE     ---       ?C?DPGETOPN2
      00FF2B20H   PUBLIC    CODE     ---       ?C?DPNANRESULT
      00FF2B2CH   PUBLIC    CODE     ---       ?C?DPOVERFLOW
      00FF2AF8H   PUBLIC    CODE     ---       ?C?DPRESULT
      00FF2B11H   PUBLIC    CODE     ---       ?C?DPRESULT2
      00FF2B27H   PUBLIC    CODE     ---       ?C?DPUNDERFLOW

      ---         MODULE    ---      ---       _CHKDOUBLE_?_
      00FF2B3AH   PUBLIC    CODE     ---       _CHKDOUBLE_?_

      ---         MODULE    ---      ---       ?C?PRNFMT
      00FF2B85H   PUBLIC    CODE     ---       ?C?PRNFMT

      ---         MODULE    ---      ---       ?C?DPSERIES
      00FF2FB3H   PUBLIC    CODE     ---       ?C?DP2SERIES
      00FF2FBEH   PUBLIC    CODE     ---       ?C?DPSERIES

      ---         MODULE    ---      ---       EXP?_
      00FF309AH   PUBLIC    CODE     ---       EXP?_

      ---         MODULE    ---      ---       LOG?_
      00FF3183H   PUBLIC    CODE     NEAR LAB  LOG?_

      ---         MODULE    ---      ---       ?C?DPCONVERT
      00FF329EH   PUBLIC    CODE     ---       ?C?DPCONVERT
      00FF33C5H   PUBLIC    CODE     ---       ?C?DPROUND

      ---         MODULE    ---      ---       ?C?DTNPWR
      00FF34A0H   PUBLIC    CODE     ---       ?C?DTNPWR

      ---         MODULE    ---      ---       ?C?FPGETOPN
      00FF3526H   PUBLIC    CODE     ---       ?C?FPGETOPN2
      00FF3563H   PUBLIC    CODE     ---       ?C?FPNANRESULT
      00FF356BH   PUBLIC    CODE     ---       ?C?FPOVERFLOW
      00FF353FH   PUBLIC    CODE     ---       ?C?FPRESULT
      00FF3555H   PUBLIC    CODE     ---       ?C?FPRESULT2
      00FF3568H   PUBLIC    CODE     ---       ?C?FPUNDERFLOW

      ---         MODULE    ---      ---       ?C?FPADD
      00FF357DH   PUBLIC    CODE     ---       ?C?FPADD
      00FF357AH   PUBLIC    CODE     ---       ?C?FPSUB

      ---         MODULE    ---      ---       ?C?FPMUL
      00FF3635H   PUBLIC    CODE     ---       ?C?FPMUL

      ---         MODULE    ---      ---       ?C?FPDIV
      00FF36D5H   PUBLIC    CODE     ---       ?C?FPDIV

      ---         MODULE    ---      ---       ?C?FPCMP
      00FF3758H   PUBLIC    CODE     ---       ?C?FPCMP
      00FF3756H   PUBLIC    CODE     ---       ?C?FPCMP3

      ---         MODULE    ---      ---       ?C?FPNEG
      00FF379CH   PUBLIC    CODE     ---       ?C?FPNEG

      ---         MODULE    ---      ---       ?C?FCAST
      00FF37B4H   PUBLIC    CODE     NEAR LAB  ?C?FCASTC
      00FF37AFH   PUBLIC    CODE     NEAR LAB  ?C?FCASTI
L251 LINKER/LOCATER V4.66.93.0                                                        02/28/2025  00:29:39  PAGE 128


      00FF37AAH   PUBLIC    CODE     NEAR LAB  ?C?FCASTL

      ---         MODULE    ---      ---       ?C?CASTF
      00FF37E7H   PUBLIC    CODE     NEAR LAB  ?C?CASTF

      ---         MODULE    ---      ---       ?C_START
      00FF0000H   PUBLIC    CODE     ---       ?C?STARTUP
      00FF0000H   PUBLIC    CODE     ---       ?C_STARTUP

      ---         MODULE    ---      ---       ?C?INITHDATA
      00FF8FD7H   PUBLIC    CODE     ---       ?C?INITHDATA

      ---         MODULE    ---      ---       ?C?SIDIV
      00FF3824H   PUBLIC    CODE     ---       ?C?SIDIV

      ---         MODULE    ---      ---       ?C?LMUL
      00FF3856H   PUBLIC    CODE     ---       ?C?LMUL

      ---         MODULE    ---      ---       ?C?LIMUL
      00FF3867H   PUBLIC    CODE     ---       ?C?LIMUL

      ---         MODULE    ---      ---       ?C?ULDIV
      00FF3872H   PUBLIC    CODE     NEAR LAB  ?C?ULDIV
      00FF3870H   PUBLIC    CODE     NEAR LAB  ?C?ULIDIV

      ---         MODULE    ---      ---       ?C?SLDIV
      00FF38C3H   PUBLIC    CODE     NEAR LAB  ?C?SLDIV

      ---         MODULE    ---      ---       ?C?BMOVEPP
      00FF38F9H   PUBLIC    CODE     ---       ?C?BMOVEPP
      00FF38F7H   PUBLIC    CODE     ---       ?C?BMOVEPP8

      ---         MODULE    ---      ---       STRNCMP
      00FF9560H   PUBLIC    CODE     ---       strncmp?_

      ---         MODULE    ---      ---       STRNCPY
      00FF9631H   PUBLIC    CODE     ---       strncpy?_

      ---         MODULE    ---      ---       STRLEN
      00FF987BH   PUBLIC    CODE     ---       strlen?_

      ---         MODULE    ---      ---       STRCHR
      00FF97A3H   PUBLIC    CODE     ---       strchr?_

      ---         MODULE    ---      ---       memcpy
      00FF977EH   PUBLIC    CODE     ---       memcpy?_

      ---         MODULE    ---      ---       memset
      00FF0046H   PUBLIC    CODE     ---       memset?_

      ---         MODULE    ---      ---       malloc

      ---         MODULE    ---      ---       free

      ---         MODULE    ---      ---       ?C?INITHDATA_END
      00FF9D30H   PUBLIC    HCONST   WORD      ?C?INITHDATA_END

      ---         MODULE    ---      ---       mdefine
      00000108H   PUBLIC    HDATA    ---       __mp__

Program Size: data=8.0 edata+hdata=260 xdata=3735 const=3500 code=38996
L251 RUN COMPLETE.  0 WARNING(S),  0 ERROR(S)
